TN:
SF:/home/marabella/Desktop/C++/Projects/UniversalConverterToString/src/UniversalConverterToString/universal_converter_to_string.cpp
FN:5,7,_ZNK11dev_toolkit4ucts30InvalidTypeConversionException4whatEv
FNDA:4,_ZNK11dev_toolkit4ucts30InvalidTypeConversionException4whatEv
FNF:1
FNH:1
DA:5,4
DA:6,4
LF:2
LH:2
end_of_record
TN:
SF:/home/marabella/Desktop/C++/Projects/UniversalConverterToString/src/UniversalConverterToString/universal_converter_to_string.h
FN:30,58,_ZN11dev_toolkit4ucts29universal_converter_to_stringI17DerivedFromStringEENSt7__cxx1112basic_stringIcSt11char_traitsIcESaIcEEEOT_
FN:30,58,_ZN11dev_toolkit4ucts29universal_converter_to_stringI18WithOutputOperatorEENSt7__cxx1112basic_stringIcSt11char_traitsIcESaIcEEEOT_
FN:30,58,_ZN11dev_toolkit4ucts29universal_converter_to_stringI19WithConvertOperatorEENSt7__cxx1112basic_stringIcSt11char_traitsIcESaIcEEEOT_
FN:30,58,_ZN11dev_toolkit4ucts29universal_converter_to_stringI27WithExplicitConvertOperatorEENSt7__cxx1112basic_stringIcSt11char_traitsIcESaIcEEEOT_
FN:30,58,_ZN11dev_toolkit4ucts29universal_converter_to_stringI36DerivedFromStringWithConvertOperatorEENSt7__cxx1112basic_stringIcSt11char_traitsIcESaIcEEEOT_
FN:30,58,_ZN11dev_toolkit4ucts29universal_converter_to_stringIDnEENSt7__cxx1112basic_stringIcSt11char_traitsIcESaIcEEEOT_
FN:30,58,_ZN11dev_toolkit4ucts29universal_converter_to_stringINSt7__cxx1112basic_stringIcSt11char_traitsIcESaIcEEEEES7_OT_
FN:30,58,_ZN11dev_toolkit4ucts29universal_converter_to_stringIPKcEENSt7__cxx1112basic_stringIcSt11char_traitsIcESaIcEEEOT_
FN:30,58,_ZN11dev_toolkit4ucts29universal_converter_to_stringIPvEENSt7__cxx1112basic_stringIcSt11char_traitsIcESaIcEEEOT_
FN:30,58,_ZN11dev_toolkit4ucts29universal_converter_to_stringIRSt16initializer_listIcEEENSt7__cxx1112basic_stringIcSt11char_traitsIcESaIcEEEOT_
FN:30,58,_ZN11dev_toolkit4ucts29universal_converter_to_stringISt17basic_string_viewIcSt11char_traitsIcEEEENSt7__cxx1112basic_stringIcS4_SaIcEEEOT_
FN:30,58,_ZN11dev_toolkit4ucts29universal_converter_to_stringISt5dequeINSt7__cxx1112basic_stringIcSt11char_traitsIcESaIcEEESaIS8_EEEES8_OT_
FN:30,58,_ZN11dev_toolkit4ucts29universal_converter_to_stringISt6vectorIiSaIiEEEENSt7__cxx1112basic_stringIcSt11char_traitsIcESaIcEEEOT_
FN:30,58,_ZN11dev_toolkit4ucts29universal_converter_to_stringIaEENSt7__cxx1112basic_stringIcSt11char_traitsIcESaIcEEEOT_
FN:30,58,_ZN11dev_toolkit4ucts29universal_converter_to_stringIbEENSt7__cxx1112basic_stringIcSt11char_traitsIcESaIcEEEOT_
FN:30,58,_ZN11dev_toolkit4ucts29universal_converter_to_stringIcEENSt7__cxx1112basic_stringIcSt11char_traitsIcESaIcEEEOT_
FN:30,58,_ZN11dev_toolkit4ucts29universal_converter_to_stringIdEENSt7__cxx1112basic_stringIcSt11char_traitsIcESaIcEEEOT_
FN:30,58,_ZN11dev_toolkit4ucts29universal_converter_to_stringIeEENSt7__cxx1112basic_stringIcSt11char_traitsIcESaIcEEEOT_
FN:30,58,_ZN11dev_toolkit4ucts29universal_converter_to_stringIfEENSt7__cxx1112basic_stringIcSt11char_traitsIcESaIcEEEOT_
FN:30,58,_ZN11dev_toolkit4ucts29universal_converter_to_stringIhEENSt7__cxx1112basic_stringIcSt11char_traitsIcESaIcEEEOT_
FN:30,58,_ZN11dev_toolkit4ucts29universal_converter_to_stringIiEENSt7__cxx1112basic_stringIcSt11char_traitsIcESaIcEEEOT_
FN:30,58,_ZN11dev_toolkit4ucts29universal_converter_to_stringIjEENSt7__cxx1112basic_stringIcSt11char_traitsIcESaIcEEEOT_
FN:30,58,_ZN11dev_toolkit4ucts29universal_converter_to_stringIlEENSt7__cxx1112basic_stringIcSt11char_traitsIcESaIcEEEOT_
FN:30,58,_ZN11dev_toolkit4ucts29universal_converter_to_stringImEENSt7__cxx1112basic_stringIcSt11char_traitsIcESaIcEEEOT_
FN:30,58,_ZN11dev_toolkit4ucts29universal_converter_to_stringIsEENSt7__cxx1112basic_stringIcSt11char_traitsIcESaIcEEEOT_
FN:30,58,_ZN11dev_toolkit4ucts29universal_converter_to_stringItEENSt7__cxx1112basic_stringIcSt11char_traitsIcESaIcEEEOT_
FN:30,58,_ZN11dev_toolkit4ucts29universal_converter_to_stringIxEENSt7__cxx1112basic_stringIcSt11char_traitsIcESaIcEEEOT_
FN:30,58,_ZN11dev_toolkit4ucts29universal_converter_to_stringIyEENSt7__cxx1112basic_stringIcSt11char_traitsIcESaIcEEEOT_
FNDA:1,_ZN11dev_toolkit4ucts29universal_converter_to_stringI17DerivedFromStringEENSt7__cxx1112basic_stringIcSt11char_traitsIcESaIcEEEOT_
FNDA:1,_ZN11dev_toolkit4ucts29universal_converter_to_stringI18WithOutputOperatorEENSt7__cxx1112basic_stringIcSt11char_traitsIcESaIcEEEOT_
FNDA:1,_ZN11dev_toolkit4ucts29universal_converter_to_stringI19WithConvertOperatorEENSt7__cxx1112basic_stringIcSt11char_traitsIcESaIcEEEOT_
FNDA:1,_ZN11dev_toolkit4ucts29universal_converter_to_stringI27WithExplicitConvertOperatorEENSt7__cxx1112basic_stringIcSt11char_traitsIcESaIcEEEOT_
FNDA:1,_ZN11dev_toolkit4ucts29universal_converter_to_stringI36DerivedFromStringWithConvertOperatorEENSt7__cxx1112basic_stringIcSt11char_traitsIcESaIcEEEOT_
FNDA:1,_ZN11dev_toolkit4ucts29universal_converter_to_stringIDnEENSt7__cxx1112basic_stringIcSt11char_traitsIcESaIcEEEOT_
FNDA:1,_ZN11dev_toolkit4ucts29universal_converter_to_stringINSt7__cxx1112basic_stringIcSt11char_traitsIcESaIcEEEEES7_OT_
FNDA:1,_ZN11dev_toolkit4ucts29universal_converter_to_stringIPKcEENSt7__cxx1112basic_stringIcSt11char_traitsIcESaIcEEEOT_
FNDA:1,_ZN11dev_toolkit4ucts29universal_converter_to_stringIPvEENSt7__cxx1112basic_stringIcSt11char_traitsIcESaIcEEEOT_
FNDA:1,_ZN11dev_toolkit4ucts29universal_converter_to_stringIRSt16initializer_listIcEEENSt7__cxx1112basic_stringIcSt11char_traitsIcESaIcEEEOT_
FNDA:1,_ZN11dev_toolkit4ucts29universal_converter_to_stringISt17basic_string_viewIcSt11char_traitsIcEEEENSt7__cxx1112basic_stringIcS4_SaIcEEEOT_
FNDA:1,_ZN11dev_toolkit4ucts29universal_converter_to_stringISt5dequeINSt7__cxx1112basic_stringIcSt11char_traitsIcESaIcEEESaIS8_EEEES8_OT_
FNDA:1,_ZN11dev_toolkit4ucts29universal_converter_to_stringISt6vectorIiSaIiEEEENSt7__cxx1112basic_stringIcSt11char_traitsIcESaIcEEEOT_
FNDA:1,_ZN11dev_toolkit4ucts29universal_converter_to_stringIaEENSt7__cxx1112basic_stringIcSt11char_traitsIcESaIcEEEOT_
FNDA:2,_ZN11dev_toolkit4ucts29universal_converter_to_stringIbEENSt7__cxx1112basic_stringIcSt11char_traitsIcESaIcEEEOT_
FNDA:1,_ZN11dev_toolkit4ucts29universal_converter_to_stringIcEENSt7__cxx1112basic_stringIcSt11char_traitsIcESaIcEEEOT_
FNDA:9,_ZN11dev_toolkit4ucts29universal_converter_to_stringIdEENSt7__cxx1112basic_stringIcSt11char_traitsIcESaIcEEEOT_
FNDA:1,_ZN11dev_toolkit4ucts29universal_converter_to_stringIeEENSt7__cxx1112basic_stringIcSt11char_traitsIcESaIcEEEOT_
FNDA:1,_ZN11dev_toolkit4ucts29universal_converter_to_stringIfEENSt7__cxx1112basic_stringIcSt11char_traitsIcESaIcEEEOT_
FNDA:1,_ZN11dev_toolkit4ucts29universal_converter_to_stringIhEENSt7__cxx1112basic_stringIcSt11char_traitsIcESaIcEEEOT_
FNDA:1,_ZN11dev_toolkit4ucts29universal_converter_to_stringIiEENSt7__cxx1112basic_stringIcSt11char_traitsIcESaIcEEEOT_
FNDA:1,_ZN11dev_toolkit4ucts29universal_converter_to_stringIjEENSt7__cxx1112basic_stringIcSt11char_traitsIcESaIcEEEOT_
FNDA:1,_ZN11dev_toolkit4ucts29universal_converter_to_stringIlEENSt7__cxx1112basic_stringIcSt11char_traitsIcESaIcEEEOT_
FNDA:1,_ZN11dev_toolkit4ucts29universal_converter_to_stringImEENSt7__cxx1112basic_stringIcSt11char_traitsIcESaIcEEEOT_
FNDA:1,_ZN11dev_toolkit4ucts29universal_converter_to_stringIsEENSt7__cxx1112basic_stringIcSt11char_traitsIcESaIcEEEOT_
FNDA:1,_ZN11dev_toolkit4ucts29universal_converter_to_stringItEENSt7__cxx1112basic_stringIcSt11char_traitsIcESaIcEEEOT_
FNDA:1,_ZN11dev_toolkit4ucts29universal_converter_to_stringIxEENSt7__cxx1112basic_stringIcSt11char_traitsIcESaIcEEEOT_
FNDA:1,_ZN11dev_toolkit4ucts29universal_converter_to_stringIyEENSt7__cxx1112basic_stringIcSt11char_traitsIcESaIcEEEOT_
FNF:28
FNH:28
DA:30,37
DA:32,1
DA:37,4
DA:40,4
DA:44,20
DA:48,10
DA:51,1
DA:52,1
DA:53,1
DA:54,1
DA:56,4
LF:11
LH:11
end_of_record
TN:
SF:/home/marabella/Desktop/C++/Projects/UniversalConverterToString/tests/UniversalConverterToStringTests/universal_converter_to_string_tests.cpp
FN:106,106,_ZN53UniversalConverterTest_SpecialConstructibleTypes_Test8TestBodyEv
FN:106,106,_ZN53UniversalConverterTest_SpecialConstructibleTypes_TestC2Ev
FN:106,106,_ZN53UniversalConverterTest_SpecialConstructibleTypes_TestD0Ev
FN:106,106,_ZN53UniversalConverterTest_SpecialConstructibleTypes_TestD2Ev
FN:114,114,_ZN45UniversalConverterTest_NotSupportedTypes_Test8TestBodyEv
FN:114,114,_ZN45UniversalConverterTest_NotSupportedTypes_TestC2Ev
FN:114,114,_ZN45UniversalConverterTest_NotSupportedTypes_TestD0Ev
FN:114,114,_ZN45UniversalConverterTest_NotSupportedTypes_TestD2Ev
FN:17,17,_ZNK19WithConvertOperatorcvNSt7__cxx1112basic_stringIcSt11char_traitsIcESaIcEEEEv
FN:21,21,_ZNK27WithExplicitConvertOperatorcvNSt7__cxx1112basic_stringIcSt11char_traitsIcESaIcEEEEv
FN:25,25,_ZNK36DerivedFromStringWithConvertOperatorcvNSt7__cxx1112basic_stringIcSt11char_traitsIcESaIcEEEEv
FN:29,32,_ZlsRSoRK18WithOutputOperator
FN:38,48,_Z15test_conversionI17DerivedFromStringEbOT_RKNSt7__cxx1112basic_stringIcSt11char_traitsIcESaIcEEE
FN:38,48,_Z15test_conversionI18WithOutputOperatorEbOT_RKNSt7__cxx1112basic_stringIcSt11char_traitsIcESaIcEEE
FN:38,48,_Z15test_conversionI19WithConvertOperatorEbOT_RKNSt7__cxx1112basic_stringIcSt11char_traitsIcESaIcEEE
FN:38,48,_Z15test_conversionI27WithExplicitConvertOperatorEbOT_RKNSt7__cxx1112basic_stringIcSt11char_traitsIcESaIcEEE
FN:38,48,_Z15test_conversionI36DerivedFromStringWithConvertOperatorEbOT_RKNSt7__cxx1112basic_stringIcSt11char_traitsIcESaIcEEE
FN:38,48,_Z15test_conversionIDnEbOT_RKNSt7__cxx1112basic_stringIcSt11char_traitsIcESaIcEEE
FN:38,48,_Z15test_conversionINSt7__cxx1112basic_stringIcSt11char_traitsIcESaIcEEEEbOT_RKS5_
FN:38,48,_Z15test_conversionIPKcEbOT_RKNSt7__cxx1112basic_stringIcSt11char_traitsIcESaIcEEE
FN:38,48,_Z15test_conversionIPvEbOT_RKNSt7__cxx1112basic_stringIcSt11char_traitsIcESaIcEEE
FN:38,48,_Z15test_conversionIRSt16initializer_listIcEEbOT_RKNSt7__cxx1112basic_stringIcSt11char_traitsIcESaIcEEE
FN:38,48,_Z15test_conversionISt17basic_string_viewIcSt11char_traitsIcEEEbOT_RKNSt7__cxx1112basic_stringIcS2_SaIcEEE
FN:38,48,_Z15test_conversionISt5dequeINSt7__cxx1112basic_stringIcSt11char_traitsIcESaIcEEESaIS6_EEEbOT_RKS6_
FN:38,48,_Z15test_conversionISt6vectorIiSaIiEEEbOT_RKNSt7__cxx1112basic_stringIcSt11char_traitsIcESaIcEEE
FN:38,48,_Z15test_conversionIaEbOT_RKNSt7__cxx1112basic_stringIcSt11char_traitsIcESaIcEEE
FN:38,48,_Z15test_conversionIbEbOT_RKNSt7__cxx1112basic_stringIcSt11char_traitsIcESaIcEEE
FN:38,48,_Z15test_conversionIcEbOT_RKNSt7__cxx1112basic_stringIcSt11char_traitsIcESaIcEEE
FN:38,48,_Z15test_conversionIdEbOT_RKNSt7__cxx1112basic_stringIcSt11char_traitsIcESaIcEEE
FN:38,48,_Z15test_conversionIeEbOT_RKNSt7__cxx1112basic_stringIcSt11char_traitsIcESaIcEEE
FN:38,48,_Z15test_conversionIfEbOT_RKNSt7__cxx1112basic_stringIcSt11char_traitsIcESaIcEEE
FN:38,48,_Z15test_conversionIhEbOT_RKNSt7__cxx1112basic_stringIcSt11char_traitsIcESaIcEEE
FN:38,48,_Z15test_conversionIiEbOT_RKNSt7__cxx1112basic_stringIcSt11char_traitsIcESaIcEEE
FN:38,48,_Z15test_conversionIjEbOT_RKNSt7__cxx1112basic_stringIcSt11char_traitsIcESaIcEEE
FN:38,48,_Z15test_conversionIlEbOT_RKNSt7__cxx1112basic_stringIcSt11char_traitsIcESaIcEEE
FN:38,48,_Z15test_conversionImEbOT_RKNSt7__cxx1112basic_stringIcSt11char_traitsIcESaIcEEE
FN:38,48,_Z15test_conversionIsEbOT_RKNSt7__cxx1112basic_stringIcSt11char_traitsIcESaIcEEE
FN:38,48,_Z15test_conversionItEbOT_RKNSt7__cxx1112basic_stringIcSt11char_traitsIcESaIcEEE
FN:38,48,_Z15test_conversionIxEbOT_RKNSt7__cxx1112basic_stringIcSt11char_traitsIcESaIcEEE
FN:38,48,_Z15test_conversionIyEbOT_RKNSt7__cxx1112basic_stringIcSt11char_traitsIcESaIcEEE
FN:50,50,_ZN42UniversalConverterTest_DegenerateCase_Test8TestBodyEv
FN:50,50,_ZN42UniversalConverterTest_DegenerateCase_TestC2Ev
FN:50,50,_ZN42UniversalConverterTest_DegenerateCase_TestD0Ev
FN:50,50,_ZN42UniversalConverterTest_DegenerateCase_TestD2Ev
FN:54,54,_ZN40UniversalConverterTest_IntegerTypes_Test8TestBodyEv
FN:54,54,_ZN40UniversalConverterTest_IntegerTypes_TestC2Ev
FN:54,54,_ZN40UniversalConverterTest_IntegerTypes_TestD0Ev
FN:54,54,_ZN40UniversalConverterTest_IntegerTypes_TestD2Ev
FN:71,71,_ZN51UniversalConverterTest_FloatingPointTypesBasic_Test8TestBodyEv
FN:71,71,_ZN51UniversalConverterTest_FloatingPointTypesBasic_TestC2Ev
FN:71,71,_ZN51UniversalConverterTest_FloatingPointTypesBasic_TestD0Ev
FN:71,71,_ZN51UniversalConverterTest_FloatingPointTypesBasic_TestD2Ev
FN:77,77,_ZN54UniversalConverterTest_FloatingPointTypesExtremes_Test8TestBodyEv
FN:77,77,_ZN54UniversalConverterTest_FloatingPointTypesExtremes_TestC2Ev
FN:77,77,_ZN54UniversalConverterTest_FloatingPointTypesExtremes_TestD0Ev
FN:77,77,_ZN54UniversalConverterTest_FloatingPointTypesExtremes_TestD2Ev
FN:91,91,_ZN39UniversalConverterTest_BooleanType_Test8TestBodyEv
FN:91,91,_ZN39UniversalConverterTest_BooleanType_TestC2Ev
FN:91,91,_ZN39UniversalConverterTest_BooleanType_TestD0Ev
FN:91,91,_ZN39UniversalConverterTest_BooleanType_TestD2Ev
FN:97,97,_ZN46UniversalConverterTest_ConstructibleTypes_Test8TestBodyEv
FN:97,97,_ZN46UniversalConverterTest_ConstructibleTypes_TestC2Ev
FN:97,97,_ZN46UniversalConverterTest_ConstructibleTypes_TestD0Ev
FN:97,97,_ZN46UniversalConverterTest_ConstructibleTypes_TestD2Ev
FNDA:1,_ZN53UniversalConverterTest_SpecialConstructibleTypes_Test8TestBodyEv
FNDA:1,_ZN53UniversalConverterTest_SpecialConstructibleTypes_TestC2Ev
FNDA:1,_ZN53UniversalConverterTest_SpecialConstructibleTypes_TestD0Ev
FNDA:1,_ZN53UniversalConverterTest_SpecialConstructibleTypes_TestD2Ev
FNDA:1,_ZN45UniversalConverterTest_NotSupportedTypes_Test8TestBodyEv
FNDA:1,_ZN45UniversalConverterTest_NotSupportedTypes_TestC2Ev
FNDA:1,_ZN45UniversalConverterTest_NotSupportedTypes_TestD0Ev
FNDA:1,_ZN45UniversalConverterTest_NotSupportedTypes_TestD2Ev
FNDA:1,_ZNK19WithConvertOperatorcvNSt7__cxx1112basic_stringIcSt11char_traitsIcESaIcEEEEv
FNDA:1,_ZNK27WithExplicitConvertOperatorcvNSt7__cxx1112basic_stringIcSt11char_traitsIcESaIcEEEEv
FNDA:0,_ZNK36DerivedFromStringWithConvertOperatorcvNSt7__cxx1112basic_stringIcSt11char_traitsIcESaIcEEEEv
FNDA:1,_ZlsRSoRK18WithOutputOperator
FNDA:1,_Z15test_conversionI17DerivedFromStringEbOT_RKNSt7__cxx1112basic_stringIcSt11char_traitsIcESaIcEEE
FNDA:1,_Z15test_conversionI18WithOutputOperatorEbOT_RKNSt7__cxx1112basic_stringIcSt11char_traitsIcESaIcEEE
FNDA:1,_Z15test_conversionI19WithConvertOperatorEbOT_RKNSt7__cxx1112basic_stringIcSt11char_traitsIcESaIcEEE
FNDA:1,_Z15test_conversionI27WithExplicitConvertOperatorEbOT_RKNSt7__cxx1112basic_stringIcSt11char_traitsIcESaIcEEE
FNDA:1,_Z15test_conversionI36DerivedFromStringWithConvertOperatorEbOT_RKNSt7__cxx1112basic_stringIcSt11char_traitsIcESaIcEEE
FNDA:1,_Z15test_conversionIDnEbOT_RKNSt7__cxx1112basic_stringIcSt11char_traitsIcESaIcEEE
FNDA:1,_Z15test_conversionINSt7__cxx1112basic_stringIcSt11char_traitsIcESaIcEEEEbOT_RKS5_
FNDA:1,_Z15test_conversionIPKcEbOT_RKNSt7__cxx1112basic_stringIcSt11char_traitsIcESaIcEEE
FNDA:1,_Z15test_conversionIPvEbOT_RKNSt7__cxx1112basic_stringIcSt11char_traitsIcESaIcEEE
FNDA:1,_Z15test_conversionIRSt16initializer_listIcEEbOT_RKNSt7__cxx1112basic_stringIcSt11char_traitsIcESaIcEEE
FNDA:1,_Z15test_conversionISt17basic_string_viewIcSt11char_traitsIcEEEbOT_RKNSt7__cxx1112basic_stringIcS2_SaIcEEE
FNDA:1,_Z15test_conversionISt5dequeINSt7__cxx1112basic_stringIcSt11char_traitsIcESaIcEEESaIS6_EEEbOT_RKS6_
FNDA:1,_Z15test_conversionISt6vectorIiSaIiEEEbOT_RKNSt7__cxx1112basic_stringIcSt11char_traitsIcESaIcEEE
FNDA:1,_Z15test_conversionIaEbOT_RKNSt7__cxx1112basic_stringIcSt11char_traitsIcESaIcEEE
FNDA:2,_Z15test_conversionIbEbOT_RKNSt7__cxx1112basic_stringIcSt11char_traitsIcESaIcEEE
FNDA:1,_Z15test_conversionIcEbOT_RKNSt7__cxx1112basic_stringIcSt11char_traitsIcESaIcEEE
FNDA:9,_Z15test_conversionIdEbOT_RKNSt7__cxx1112basic_stringIcSt11char_traitsIcESaIcEEE
FNDA:1,_Z15test_conversionIeEbOT_RKNSt7__cxx1112basic_stringIcSt11char_traitsIcESaIcEEE
FNDA:1,_Z15test_conversionIfEbOT_RKNSt7__cxx1112basic_stringIcSt11char_traitsIcESaIcEEE
FNDA:1,_Z15test_conversionIhEbOT_RKNSt7__cxx1112basic_stringIcSt11char_traitsIcESaIcEEE
FNDA:1,_Z15test_conversionIiEbOT_RKNSt7__cxx1112basic_stringIcSt11char_traitsIcESaIcEEE
FNDA:1,_Z15test_conversionIjEbOT_RKNSt7__cxx1112basic_stringIcSt11char_traitsIcESaIcEEE
FNDA:1,_Z15test_conversionIlEbOT_RKNSt7__cxx1112basic_stringIcSt11char_traitsIcESaIcEEE
FNDA:1,_Z15test_conversionImEbOT_RKNSt7__cxx1112basic_stringIcSt11char_traitsIcESaIcEEE
FNDA:1,_Z15test_conversionIsEbOT_RKNSt7__cxx1112basic_stringIcSt11char_traitsIcESaIcEEE
FNDA:1,_Z15test_conversionItEbOT_RKNSt7__cxx1112basic_stringIcSt11char_traitsIcESaIcEEE
FNDA:1,_Z15test_conversionIxEbOT_RKNSt7__cxx1112basic_stringIcSt11char_traitsIcESaIcEEE
FNDA:1,_Z15test_conversionIyEbOT_RKNSt7__cxx1112basic_stringIcSt11char_traitsIcESaIcEEE
FNDA:1,_ZN42UniversalConverterTest_DegenerateCase_Test8TestBodyEv
FNDA:1,_ZN42UniversalConverterTest_DegenerateCase_TestC2Ev
FNDA:1,_ZN42UniversalConverterTest_DegenerateCase_TestD0Ev
FNDA:1,_ZN42UniversalConverterTest_DegenerateCase_TestD2Ev
FNDA:1,_ZN40UniversalConverterTest_IntegerTypes_Test8TestBodyEv
FNDA:1,_ZN40UniversalConverterTest_IntegerTypes_TestC2Ev
FNDA:1,_ZN40UniversalConverterTest_IntegerTypes_TestD0Ev
FNDA:1,_ZN40UniversalConverterTest_IntegerTypes_TestD2Ev
FNDA:1,_ZN51UniversalConverterTest_FloatingPointTypesBasic_Test8TestBodyEv
FNDA:1,_ZN51UniversalConverterTest_FloatingPointTypesBasic_TestC2Ev
FNDA:1,_ZN51UniversalConverterTest_FloatingPointTypesBasic_TestD0Ev
FNDA:1,_ZN51UniversalConverterTest_FloatingPointTypesBasic_TestD2Ev
FNDA:1,_ZN54UniversalConverterTest_FloatingPointTypesExtremes_Test8TestBodyEv
FNDA:1,_ZN54UniversalConverterTest_FloatingPointTypesExtremes_TestC2Ev
FNDA:1,_ZN54UniversalConverterTest_FloatingPointTypesExtremes_TestD0Ev
FNDA:1,_ZN54UniversalConverterTest_FloatingPointTypesExtremes_TestD2Ev
FNDA:1,_ZN39UniversalConverterTest_BooleanType_Test8TestBodyEv
FNDA:1,_ZN39UniversalConverterTest_BooleanType_TestC2Ev
FNDA:1,_ZN39UniversalConverterTest_BooleanType_TestD0Ev
FNDA:1,_ZN39UniversalConverterTest_BooleanType_TestD2Ev
FNDA:1,_ZN46UniversalConverterTest_ConstructibleTypes_Test8TestBodyEv
FNDA:1,_ZN46UniversalConverterTest_ConstructibleTypes_TestC2Ev
FNDA:1,_ZN46UniversalConverterTest_ConstructibleTypes_TestD0Ev
FNDA:1,_ZN46UniversalConverterTest_ConstructibleTypes_TestD2Ev
FNF:64
FNH:63
DA:17,3
DA:21,3
DA:25,0
DA:29,1
DA:30,1
DA:31,1
DA:38,37
DA:39,37
DA:41,37
DA:43,4
DA:44,4
DA:45,4
DA:47,33
DA:48,37
DA:50,4
DA:51,4
DA:52,1
DA:54,4
DA:55,2
DA:56,2
DA:57,2
DA:58,2
DA:59,2
DA:60,2
DA:62,2
DA:63,1
DA:64,2
DA:65,2
DA:66,2
DA:67,2
DA:68,1
DA:69,1
DA:71,4
DA:72,2
DA:73,2
DA:74,2
DA:75,1
DA:77,4
DA:78,2
DA:79,2
DA:80,2
DA:81,1
DA:82,2
DA:83,2
DA:84,1
DA:85,2
DA:86,2
DA:87,1
DA:88,2
DA:89,1
DA:91,4
DA:93,2
DA:94,2
DA:95,1
DA:97,4
DA:98,2
DA:99,2
DA:101,1
DA:102,1
DA:103,2
DA:104,1
DA:106,4
DA:107,2
DA:108,2
DA:109,2
DA:110,2
DA:111,2
DA:112,1
DA:114,4
DA:115,2
DA:116,2
DA:117,2
DA:118,2
DA:119,1
LF:74
LH:73
end_of_record
TN:
SF:/home/marabella/Desktop/C++/Projects/UniversalConverterToString/tests/UniversalConverterToStringTraitsTests/has_ostream_operator_tests.cpp
FN:16,16,_ZlsRSoRK25WithDefaultOutputOperator
FN:21,21,_ZlsRSoR38WithOutputOperatorTakeValueByLvalueRef
FN:26,26,_ZlsRSoRK28WithOutputOperatorReturnVoid
FN:31,31,_ZN49HasOstreamOperator_WithoutOutputOperatorCase_Test8TestBodyEv
FN:31,31,_ZN49HasOstreamOperator_WithoutOutputOperatorCase_TestC2Ev
FN:31,31,_ZN49HasOstreamOperator_WithoutOutputOperatorCase_TestD0Ev
FN:31,31,_ZN49HasOstreamOperator_WithoutOutputOperatorCase_TestD2Ev
FN:33,33,_ZN53HasOstreamOperator_WithDefaultOutputOperatorCase_Test8TestBodyEv
FN:33,33,_ZN53HasOstreamOperator_WithDefaultOutputOperatorCase_TestC2Ev
FN:33,33,_ZN53HasOstreamOperator_WithDefaultOutputOperatorCase_TestD0Ev
FN:33,33,_ZN53HasOstreamOperator_WithDefaultOutputOperatorCase_TestD2Ev
FN:40,40,_ZN66HasOstreamOperator_WithOutputOperatorTakeValueByLvalueRefCase_Test8TestBodyEv
FN:40,40,_ZN66HasOstreamOperator_WithOutputOperatorTakeValueByLvalueRefCase_TestC2Ev
FN:40,40,_ZN66HasOstreamOperator_WithOutputOperatorTakeValueByLvalueRefCase_TestD0Ev
FN:40,40,_ZN66HasOstreamOperator_WithOutputOperatorTakeValueByLvalueRefCase_TestD2Ev
FN:51,51,_ZN56HasOstreamOperator_WithOutputOperatorReturnVoidCase_Test8TestBodyEv
FN:51,51,_ZN56HasOstreamOperator_WithOutputOperatorReturnVoidCase_TestC2Ev
FN:51,51,_ZN56HasOstreamOperator_WithOutputOperatorReturnVoidCase_TestD0Ev
FN:51,51,_ZN56HasOstreamOperator_WithOutputOperatorReturnVoidCase_TestD2Ev
FN:62,62,_ZN41HasOstreamOperator_NotSupportedTypes_Test8TestBodyEv
FN:62,62,_ZN41HasOstreamOperator_NotSupportedTypes_TestC2Ev
FN:62,62,_ZN41HasOstreamOperator_NotSupportedTypes_TestD0Ev
FN:62,62,_ZN41HasOstreamOperator_NotSupportedTypes_TestD2Ev
FNDA:0,_ZlsRSoRK25WithDefaultOutputOperator
FNDA:0,_ZlsRSoR38WithOutputOperatorTakeValueByLvalueRef
FNDA:1,_ZlsRSoRK28WithOutputOperatorReturnVoid
FNDA:1,_ZN49HasOstreamOperator_WithoutOutputOperatorCase_Test8TestBodyEv
FNDA:1,_ZN49HasOstreamOperator_WithoutOutputOperatorCase_TestC2Ev
FNDA:1,_ZN49HasOstreamOperator_WithoutOutputOperatorCase_TestD0Ev
FNDA:1,_ZN49HasOstreamOperator_WithoutOutputOperatorCase_TestD2Ev
FNDA:1,_ZN53HasOstreamOperator_WithDefaultOutputOperatorCase_Test8TestBodyEv
FNDA:1,_ZN53HasOstreamOperator_WithDefaultOutputOperatorCase_TestC2Ev
FNDA:1,_ZN53HasOstreamOperator_WithDefaultOutputOperatorCase_TestD0Ev
FNDA:1,_ZN53HasOstreamOperator_WithDefaultOutputOperatorCase_TestD2Ev
FNDA:1,_ZN66HasOstreamOperator_WithOutputOperatorTakeValueByLvalueRefCase_Test8TestBodyEv
FNDA:1,_ZN66HasOstreamOperator_WithOutputOperatorTakeValueByLvalueRefCase_TestC2Ev
FNDA:1,_ZN66HasOstreamOperator_WithOutputOperatorTakeValueByLvalueRefCase_TestD0Ev
FNDA:1,_ZN66HasOstreamOperator_WithOutputOperatorTakeValueByLvalueRefCase_TestD2Ev
FNDA:1,_ZN56HasOstreamOperator_WithOutputOperatorReturnVoidCase_Test8TestBodyEv
FNDA:1,_ZN56HasOstreamOperator_WithOutputOperatorReturnVoidCase_TestC2Ev
FNDA:1,_ZN56HasOstreamOperator_WithOutputOperatorReturnVoidCase_TestD0Ev
FNDA:1,_ZN56HasOstreamOperator_WithOutputOperatorReturnVoidCase_TestD2Ev
FNDA:1,_ZN41HasOstreamOperator_NotSupportedTypes_Test8TestBodyEv
FNDA:1,_ZN41HasOstreamOperator_NotSupportedTypes_TestC2Ev
FNDA:1,_ZN41HasOstreamOperator_NotSupportedTypes_TestD0Ev
FNDA:1,_ZN41HasOstreamOperator_NotSupportedTypes_TestD2Ev
FNF:23
FNH:21
DA:16,0
DA:21,0
DA:26,1
DA:31,4
DA:33,4
DA:35,1
DA:36,1
DA:37,1
DA:38,1
DA:40,4
DA:42,1
DA:43,1
DA:44,1
DA:48,1
DA:49,1
DA:51,4
DA:53,1
DA:54,1
DA:55,1
DA:58,1
DA:60,1
DA:62,4
DA:63,1
DA:64,1
DA:65,1
DA:66,1
DA:67,1
LF:27
LH:25
end_of_record
TN:
SF:/home/marabella/Desktop/C++/Projects/UniversalConverterToString/tests/UniversalConverterToStringTraitsTests/has_to_string_conversion_operator_tests.cpp
FN:17,17,_ZNK26WithDefaultConvertOperatorcvNSt7__cxx1112basic_stringIcSt11char_traitsIcESaIcEEEEv
FN:21,21,_ZNK27WithExplicitConvertOperatorcvNSt7__cxx1112basic_stringIcSt11char_traitsIcESaIcEEEEv
FN:25,25,_ZNR31WithRefQualifiedConvertOperatorcvNSt7__cxx1112basic_stringIcSt11char_traitsIcESaIcEEEEv
FN:27,27,_ZNO31WithRefQualifiedConvertOperatorcvNSt7__cxx1112basic_stringIcSt11char_traitsIcESaIcEEEEv
FN:32,32,_ZN61HasToStringConversionOperator_WithoutConvertOperatorCase_Test8TestBodyEv
FN:32,32,_ZN61HasToStringConversionOperator_WithoutConvertOperatorCase_TestC2Ev
FN:32,32,_ZN61HasToStringConversionOperator_WithoutConvertOperatorCase_TestD0Ev
FN:32,32,_ZN61HasToStringConversionOperator_WithoutConvertOperatorCase_TestD2Ev
FN:39,39,_ZN65HasToStringConversionOperator_WithDefaultConvertOperatorCase_Test8TestBodyEv
FN:39,39,_ZN65HasToStringConversionOperator_WithDefaultConvertOperatorCase_TestC2Ev
FN:39,39,_ZN65HasToStringConversionOperator_WithDefaultConvertOperatorCase_TestD0Ev
FN:39,39,_ZN65HasToStringConversionOperator_WithDefaultConvertOperatorCase_TestD2Ev
FN:46,46,_ZN66HasToStringConversionOperator_WithExplicitConvertOperatorCase_Test8TestBodyEv
FN:46,46,_ZN66HasToStringConversionOperator_WithExplicitConvertOperatorCase_TestC2Ev
FN:46,46,_ZN66HasToStringConversionOperator_WithExplicitConvertOperatorCase_TestD0Ev
FN:46,46,_ZN66HasToStringConversionOperator_WithExplicitConvertOperatorCase_TestD2Ev
FN:53,53,_ZN70HasToStringConversionOperator_WithRefQualifiedConvertOperatorCase_Test8TestBodyEv
FN:53,53,_ZN70HasToStringConversionOperator_WithRefQualifiedConvertOperatorCase_TestC2Ev
FN:53,53,_ZN70HasToStringConversionOperator_WithRefQualifiedConvertOperatorCase_TestD0Ev
FN:53,53,_ZN70HasToStringConversionOperator_WithRefQualifiedConvertOperatorCase_TestD2Ev
FN:73,73,_ZN52HasToStringConversionOperator_NotSupportedTypes_Test8TestBodyEv
FN:73,73,_ZN52HasToStringConversionOperator_NotSupportedTypes_TestC2Ev
FN:73,73,_ZN52HasToStringConversionOperator_NotSupportedTypes_TestD0Ev
FN:73,73,_ZN52HasToStringConversionOperator_NotSupportedTypes_TestD2Ev
FNDA:0,_ZNK26WithDefaultConvertOperatorcvNSt7__cxx1112basic_stringIcSt11char_traitsIcESaIcEEEEv
FNDA:0,_ZNK27WithExplicitConvertOperatorcvNSt7__cxx1112basic_stringIcSt11char_traitsIcESaIcEEEEv
FNDA:1,_ZNR31WithRefQualifiedConvertOperatorcvNSt7__cxx1112basic_stringIcSt11char_traitsIcESaIcEEEEv
FNDA:1,_ZNO31WithRefQualifiedConvertOperatorcvNSt7__cxx1112basic_stringIcSt11char_traitsIcESaIcEEEEv
FNDA:1,_ZN61HasToStringConversionOperator_WithoutConvertOperatorCase_Test8TestBodyEv
FNDA:1,_ZN61HasToStringConversionOperator_WithoutConvertOperatorCase_TestC2Ev
FNDA:1,_ZN61HasToStringConversionOperator_WithoutConvertOperatorCase_TestD0Ev
FNDA:1,_ZN61HasToStringConversionOperator_WithoutConvertOperatorCase_TestD2Ev
FNDA:1,_ZN65HasToStringConversionOperator_WithDefaultConvertOperatorCase_Test8TestBodyEv
FNDA:1,_ZN65HasToStringConversionOperator_WithDefaultConvertOperatorCase_TestC2Ev
FNDA:1,_ZN65HasToStringConversionOperator_WithDefaultConvertOperatorCase_TestD0Ev
FNDA:1,_ZN65HasToStringConversionOperator_WithDefaultConvertOperatorCase_TestD2Ev
FNDA:1,_ZN66HasToStringConversionOperator_WithExplicitConvertOperatorCase_Test8TestBodyEv
FNDA:1,_ZN66HasToStringConversionOperator_WithExplicitConvertOperatorCase_TestC2Ev
FNDA:1,_ZN66HasToStringConversionOperator_WithExplicitConvertOperatorCase_TestD0Ev
FNDA:1,_ZN66HasToStringConversionOperator_WithExplicitConvertOperatorCase_TestD2Ev
FNDA:1,_ZN70HasToStringConversionOperator_WithRefQualifiedConvertOperatorCase_Test8TestBodyEv
FNDA:1,_ZN70HasToStringConversionOperator_WithRefQualifiedConvertOperatorCase_TestC2Ev
FNDA:1,_ZN70HasToStringConversionOperator_WithRefQualifiedConvertOperatorCase_TestD0Ev
FNDA:1,_ZN70HasToStringConversionOperator_WithRefQualifiedConvertOperatorCase_TestD2Ev
FNDA:1,_ZN52HasToStringConversionOperator_NotSupportedTypes_Test8TestBodyEv
FNDA:1,_ZN52HasToStringConversionOperator_NotSupportedTypes_TestC2Ev
FNDA:1,_ZN52HasToStringConversionOperator_NotSupportedTypes_TestD0Ev
FNDA:1,_ZN52HasToStringConversionOperator_NotSupportedTypes_TestD2Ev
FNF:24
FNH:22
DA:17,0
DA:21,0
DA:25,3
DA:27,3
DA:32,4
DA:34,1
DA:35,1
DA:36,1
DA:37,1
DA:39,4
DA:41,1
DA:42,1
DA:43,1
DA:44,1
DA:46,4
DA:48,1
DA:49,1
DA:50,1
DA:51,1
DA:53,4
DA:60,1
DA:61,2
DA:62,1
DA:67,1
DA:68,2
DA:69,1
DA:71,1
DA:73,4
DA:74,1
DA:75,1
DA:76,1
DA:77,1
DA:78,1
LF:33
LH:31
end_of_record
TN:
SF:/home/marabella/Desktop/C++/Projects/UniversalConverterToString/tests/UniversalConverterToStringTraitsTests/is_constructible_tests.cpp
FN:16,16,_ZNK19WithConvertOperatorcvNSt7__cxx1112basic_stringIcSt11char_traitsIcESaIcEEEEv
FN:20,20,_ZNK27WithExplicitConvertOperatorcvNSt7__cxx1112basic_stringIcSt11char_traitsIcESaIcEEEEv
FN:24,24,_ZNK36DerivedFromStringWithConvertOperatorcvNSt7__cxx1112basic_stringIcSt11char_traitsIcESaIcEEEEv
FN:28,31,_ZlsRSoRK18WithOutputOperator
FN:36,36,_ZN29IsConstructible_CStrings_Test8TestBodyEv
FN:36,36,_ZN29IsConstructible_CStrings_TestC2Ev
FN:36,36,_ZN29IsConstructible_CStrings_TestD0Ev
FN:36,36,_ZN29IsConstructible_CStrings_TestD2Ev
FN:49,49,_ZN35IsConstructible_StringWiewLike_Test8TestBodyEv
FN:49,49,_ZN35IsConstructible_StringWiewLike_TestC2Ev
FN:49,49,_ZN35IsConstructible_StringWiewLike_TestD0Ev
FN:49,49,_ZN35IsConstructible_StringWiewLike_TestD2Ev
FN:58,58,_ZN40IsConstructible_InitializerListChar_Test8TestBodyEv
FN:58,58,_ZN40IsConstructible_InitializerListChar_TestC2Ev
FN:58,58,_ZN40IsConstructible_InitializerListChar_TestD0Ev
FN:58,58,_ZN40IsConstructible_InitializerListChar_TestD2Ev
FN:67,74,_ZN29IsConstructible_NullptrT_Test8TestBodyEv
FN:67,74,_ZN29IsConstructible_NullptrT_TestC2Ev
FN:67,74,_ZN29IsConstructible_NullptrT_TestD0Ev
FN:67,74,_ZN29IsConstructible_NullptrT_TestD2Ev
FN:76,76,_ZN44IsConstructible_ImplicitlyConstructible_Test8TestBodyEv
FN:76,76,_ZN44IsConstructible_ImplicitlyConstructible_TestC2Ev
FN:76,76,_ZN44IsConstructible_ImplicitlyConstructible_TestD0Ev
FN:76,76,_ZN44IsConstructible_ImplicitlyConstructible_TestD2Ev
FN:83,83,_ZN38IsConstructible_NotSupportedTypes_Test8TestBodyEv
FN:83,83,_ZN38IsConstructible_NotSupportedTypes_TestC2Ev
FN:83,83,_ZN38IsConstructible_NotSupportedTypes_TestD0Ev
FN:83,83,_ZN38IsConstructible_NotSupportedTypes_TestD2Ev
FNDA:0,_ZNK19WithConvertOperatorcvNSt7__cxx1112basic_stringIcSt11char_traitsIcESaIcEEEEv
FNDA:0,_ZNK27WithExplicitConvertOperatorcvNSt7__cxx1112basic_stringIcSt11char_traitsIcESaIcEEEEv
FNDA:0,_ZNK36DerivedFromStringWithConvertOperatorcvNSt7__cxx1112basic_stringIcSt11char_traitsIcESaIcEEEEv
FNDA:0,_ZlsRSoRK18WithOutputOperator
FNDA:1,_ZN29IsConstructible_CStrings_Test8TestBodyEv
FNDA:1,_ZN29IsConstructible_CStrings_TestC2Ev
FNDA:1,_ZN29IsConstructible_CStrings_TestD0Ev
FNDA:1,_ZN29IsConstructible_CStrings_TestD2Ev
FNDA:1,_ZN35IsConstructible_StringWiewLike_Test8TestBodyEv
FNDA:1,_ZN35IsConstructible_StringWiewLike_TestC2Ev
FNDA:1,_ZN35IsConstructible_StringWiewLike_TestD0Ev
FNDA:1,_ZN35IsConstructible_StringWiewLike_TestD2Ev
FNDA:1,_ZN40IsConstructible_InitializerListChar_Test8TestBodyEv
FNDA:1,_ZN40IsConstructible_InitializerListChar_TestC2Ev
FNDA:1,_ZN40IsConstructible_InitializerListChar_TestD0Ev
FNDA:1,_ZN40IsConstructible_InitializerListChar_TestD2Ev
FNDA:1,_ZN29IsConstructible_NullptrT_Test8TestBodyEv
FNDA:1,_ZN29IsConstructible_NullptrT_TestC2Ev
FNDA:1,_ZN29IsConstructible_NullptrT_TestD0Ev
FNDA:1,_ZN29IsConstructible_NullptrT_TestD2Ev
FNDA:1,_ZN44IsConstructible_ImplicitlyConstructible_Test8TestBodyEv
FNDA:1,_ZN44IsConstructible_ImplicitlyConstructible_TestC2Ev
FNDA:1,_ZN44IsConstructible_ImplicitlyConstructible_TestD0Ev
FNDA:1,_ZN44IsConstructible_ImplicitlyConstructible_TestD2Ev
FNDA:1,_ZN38IsConstructible_NotSupportedTypes_Test8TestBodyEv
FNDA:1,_ZN38IsConstructible_NotSupportedTypes_TestC2Ev
FNDA:1,_ZN38IsConstructible_NotSupportedTypes_TestD0Ev
FNDA:1,_ZN38IsConstructible_NotSupportedTypes_TestD2Ev
FNF:28
FNH:24
DA:16,0
DA:20,0
DA:24,0
DA:28,0
DA:29,0
DA:30,0
DA:36,4
DA:37,1
DA:40,1
DA:41,2
DA:42,1
DA:44,1
DA:45,2
DA:46,1
DA:47,1
DA:49,4
DA:50,1
DA:53,1
DA:54,2
DA:55,1
DA:56,1
DA:58,4
DA:59,1
DA:62,1
DA:63,2
DA:64,1
DA:65,1
DA:67,4
DA:68,1
DA:74,1
DA:76,4
DA:77,1
DA:78,1
DA:79,1
DA:80,1
DA:81,1
DA:83,4
DA:84,1
DA:85,1
DA:86,1
DA:87,1
DA:88,1
LF:42
LH:36
end_of_record
TN:
SF:/home/marabella/Desktop/C++/Projects/UniversalConverterToString/tests/UniversalConverterToStringTraitsTests/is_convertible_to_base_tests.cpp
FN:22,22,_ZNK36DerivedFromStringWithConvertOperatorcvNSt7__cxx1112basic_stringIcSt11char_traitsIcESaIcEEEEv
FN:34,34,_ZN42IsConvertibleToBase_PublicInheritance_Test8TestBodyEv
FN:34,34,_ZN42IsConvertibleToBase_PublicInheritance_TestC2Ev
FN:34,34,_ZN42IsConvertibleToBase_PublicInheritance_TestD0Ev
FN:34,34,_ZN42IsConvertibleToBase_PublicInheritance_TestD2Ev
FN:43,43,_ZN43IsConvertibleToBase_PrivateInheritance_Test8TestBodyEv
FN:43,43,_ZN43IsConvertibleToBase_PrivateInheritance_TestC2Ev
FN:43,43,_ZN43IsConvertibleToBase_PrivateInheritance_TestD0Ev
FN:43,43,_ZN43IsConvertibleToBase_PrivateInheritance_TestD2Ev
FN:52,52,_ZN45IsConvertibleToBase_ProtectedInheritance_Test8TestBodyEv
FN:52,52,_ZN45IsConvertibleToBase_ProtectedInheritance_TestC2Ev
FN:52,52,_ZN45IsConvertibleToBase_ProtectedInheritance_TestD0Ev
FN:52,52,_ZN45IsConvertibleToBase_ProtectedInheritance_TestD2Ev
FN:61,61,_ZN48IsConvertibleToBase_RaisingCastIsNotAllowed_Test8TestBodyEv
FN:61,61,_ZN48IsConvertibleToBase_RaisingCastIsNotAllowed_TestC2Ev
FN:61,61,_ZN48IsConvertibleToBase_RaisingCastIsNotAllowed_TestD0Ev
FN:61,61,_ZN48IsConvertibleToBase_RaisingCastIsNotAllowed_TestD2Ev
FN:66,66,_ZN55IsConvertibleToBase_InheritanceWithConvertOperator_Test8TestBodyEv
FN:66,66,_ZN55IsConvertibleToBase_InheritanceWithConvertOperator_TestC2Ev
FN:66,66,_ZN55IsConvertibleToBase_InheritanceWithConvertOperator_TestD0Ev
FN:66,66,_ZN55IsConvertibleToBase_InheritanceWithConvertOperator_TestD2Ev
FN:73,73,_ZN42IsConvertibleToBase_NotSupportedTypes_Test8TestBodyEv
FN:73,73,_ZN42IsConvertibleToBase_NotSupportedTypes_TestC2Ev
FN:73,73,_ZN42IsConvertibleToBase_NotSupportedTypes_TestD0Ev
FN:73,73,_ZN42IsConvertibleToBase_NotSupportedTypes_TestD2Ev
FNDA:0,_ZNK36DerivedFromStringWithConvertOperatorcvNSt7__cxx1112basic_stringIcSt11char_traitsIcESaIcEEEEv
FNDA:1,_ZN42IsConvertibleToBase_PublicInheritance_Test8TestBodyEv
FNDA:1,_ZN42IsConvertibleToBase_PublicInheritance_TestC2Ev
FNDA:1,_ZN42IsConvertibleToBase_PublicInheritance_TestD0Ev
FNDA:1,_ZN42IsConvertibleToBase_PublicInheritance_TestD2Ev
FNDA:1,_ZN43IsConvertibleToBase_PrivateInheritance_Test8TestBodyEv
FNDA:1,_ZN43IsConvertibleToBase_PrivateInheritance_TestC2Ev
FNDA:1,_ZN43IsConvertibleToBase_PrivateInheritance_TestD0Ev
FNDA:1,_ZN43IsConvertibleToBase_PrivateInheritance_TestD2Ev
FNDA:1,_ZN45IsConvertibleToBase_ProtectedInheritance_Test8TestBodyEv
FNDA:1,_ZN45IsConvertibleToBase_ProtectedInheritance_TestC2Ev
FNDA:1,_ZN45IsConvertibleToBase_ProtectedInheritance_TestD0Ev
FNDA:1,_ZN45IsConvertibleToBase_ProtectedInheritance_TestD2Ev
FNDA:1,_ZN48IsConvertibleToBase_RaisingCastIsNotAllowed_Test8TestBodyEv
FNDA:1,_ZN48IsConvertibleToBase_RaisingCastIsNotAllowed_TestC2Ev
FNDA:1,_ZN48IsConvertibleToBase_RaisingCastIsNotAllowed_TestD0Ev
FNDA:1,_ZN48IsConvertibleToBase_RaisingCastIsNotAllowed_TestD2Ev
FNDA:1,_ZN55IsConvertibleToBase_InheritanceWithConvertOperator_Test8TestBodyEv
FNDA:1,_ZN55IsConvertibleToBase_InheritanceWithConvertOperator_TestC2Ev
FNDA:1,_ZN55IsConvertibleToBase_InheritanceWithConvertOperator_TestD0Ev
FNDA:1,_ZN55IsConvertibleToBase_InheritanceWithConvertOperator_TestD2Ev
FNDA:1,_ZN42IsConvertibleToBase_NotSupportedTypes_Test8TestBodyEv
FNDA:1,_ZN42IsConvertibleToBase_NotSupportedTypes_TestC2Ev
FNDA:1,_ZN42IsConvertibleToBase_NotSupportedTypes_TestD0Ev
FNDA:1,_ZN42IsConvertibleToBase_NotSupportedTypes_TestD2Ev
FNF:25
FNH:24
DA:22,0
DA:34,4
DA:36,1
DA:37,1
DA:39,2
DA:40,1
DA:41,1
DA:43,4
DA:45,1
DA:46,1
DA:48,1
DA:50,1
DA:52,4
DA:54,1
DA:55,1
DA:57,1
DA:59,1
DA:61,4
DA:62,1
DA:63,1
DA:64,1
DA:66,4
DA:67,1
DA:68,1
DA:69,1
DA:70,1
DA:71,1
DA:73,4
DA:74,1
DA:75,1
DA:76,1
DA:77,1
DA:78,1
LF:33
LH:32
end_of_record
TN:
SF:/home/marabella/Desktop/C++/Projects/UniversalConverterToString/tests/UniversalConverterToStringTraitsTests/is_convertible_to_string_tests.cpp
FN:21,21,_ZNK19WithConvertOperatorcvNSt7__cxx1112basic_stringIcSt11char_traitsIcESaIcEEEEv
FN:25,25,_ZNK27WithExplicitConvertOperatorcvNSt7__cxx1112basic_stringIcSt11char_traitsIcESaIcEEEEv
FN:29,29,_ZNK36DerivedFromStringWithConvertOperatorcvNSt7__cxx1112basic_stringIcSt11char_traitsIcESaIcEEEEv
FN:33,36,_ZlsRSoRK18WithOutputOperator
FN:41,41,_ZN46IsConvertibleToString_SupportedTypesCheck_Test8TestBodyEv
FN:41,41,_ZN46IsConvertibleToString_SupportedTypesCheck_TestC2Ev
FN:41,41,_ZN46IsConvertibleToString_SupportedTypesCheck_TestD0Ev
FN:41,41,_ZN46IsConvertibleToString_SupportedTypesCheck_TestD2Ev
FN:62,62,_ZN56IsConvertibleToString_AdditionalSupportedTypesCheck_Test8TestBodyEv
FN:62,62,_ZN56IsConvertibleToString_AdditionalSupportedTypesCheck_TestC2Ev
FN:62,62,_ZN56IsConvertibleToString_AdditionalSupportedTypesCheck_TestD0Ev
FN:62,62,_ZN56IsConvertibleToString_AdditionalSupportedTypesCheck_TestD2Ev
FN:73,73,_ZN44IsConvertibleToString_NotSupportedTypes_Test8TestBodyEv
FN:73,73,_ZN44IsConvertibleToString_NotSupportedTypes_TestC2Ev
FN:73,73,_ZN44IsConvertibleToString_NotSupportedTypes_TestD0Ev
FN:73,73,_ZN44IsConvertibleToString_NotSupportedTypes_TestD2Ev
FNDA:0,_ZNK19WithConvertOperatorcvNSt7__cxx1112basic_stringIcSt11char_traitsIcESaIcEEEEv
FNDA:0,_ZNK27WithExplicitConvertOperatorcvNSt7__cxx1112basic_stringIcSt11char_traitsIcESaIcEEEEv
FNDA:0,_ZNK36DerivedFromStringWithConvertOperatorcvNSt7__cxx1112basic_stringIcSt11char_traitsIcESaIcEEEEv
FNDA:0,_ZlsRSoRK18WithOutputOperator
FNDA:1,_ZN46IsConvertibleToString_SupportedTypesCheck_Test8TestBodyEv
FNDA:1,_ZN46IsConvertibleToString_SupportedTypesCheck_TestC2Ev
FNDA:1,_ZN46IsConvertibleToString_SupportedTypesCheck_TestD0Ev
FNDA:1,_ZN46IsConvertibleToString_SupportedTypesCheck_TestD2Ev
FNDA:1,_ZN56IsConvertibleToString_AdditionalSupportedTypesCheck_Test8TestBodyEv
FNDA:1,_ZN56IsConvertibleToString_AdditionalSupportedTypesCheck_TestC2Ev
FNDA:1,_ZN56IsConvertibleToString_AdditionalSupportedTypesCheck_TestD0Ev
FNDA:1,_ZN56IsConvertibleToString_AdditionalSupportedTypesCheck_TestD2Ev
FNDA:1,_ZN44IsConvertibleToString_NotSupportedTypes_Test8TestBodyEv
FNDA:1,_ZN44IsConvertibleToString_NotSupportedTypes_TestC2Ev
FNDA:1,_ZN44IsConvertibleToString_NotSupportedTypes_TestD0Ev
FNDA:1,_ZN44IsConvertibleToString_NotSupportedTypes_TestD2Ev
FNF:16
FNH:12
DA:21,0
DA:25,0
DA:29,0
DA:33,0
DA:34,0
DA:35,0
DA:41,4
DA:42,1
DA:43,1
DA:44,1
DA:45,1
DA:46,1
DA:47,1
DA:48,1
DA:49,1
DA:50,1
DA:51,1
DA:52,1
DA:53,1
DA:54,1
DA:55,1
DA:56,1
DA:57,1
DA:58,1
DA:59,1
DA:60,1
DA:62,4
DA:65,1
DA:66,1
DA:67,1
DA:68,1
DA:69,1
DA:70,1
DA:71,1
DA:73,4
DA:74,1
DA:75,1
DA:76,1
DA:77,1
DA:78,1
LF:40
LH:34
end_of_record
TN:
SF:/home/marabella/Desktop/C++/Projects/UniversalConverterToString/tests/UniversalConverterToStringTraitsTests/is_to_string_compatible_tests.cpp
FN:10,10,_ZN43IsToStringCompatible_DifferentRefTypes_Test8TestBodyEv
FN:10,10,_ZN43IsToStringCompatible_DifferentRefTypes_TestC2Ev
FN:10,10,_ZN43IsToStringCompatible_DifferentRefTypes_TestD0Ev
FN:10,10,_ZN43IsToStringCompatible_DifferentRefTypes_TestD2Ev
FN:18,18,_ZN50IsToStringCompatible_ExplicitlySupportedTypes_Test8TestBodyEv
FN:18,18,_ZN50IsToStringCompatible_ExplicitlySupportedTypes_TestC2Ev
FN:18,18,_ZN50IsToStringCompatible_ExplicitlySupportedTypes_TestD0Ev
FN:18,18,_ZN50IsToStringCompatible_ExplicitlySupportedTypes_TestD2Ev
FN:30,30,_ZN50IsToStringCompatible_ImplicitlySupportedTypes_Test8TestBodyEv
FN:30,30,_ZN50IsToStringCompatible_ImplicitlySupportedTypes_TestC2Ev
FN:30,30,_ZN50IsToStringCompatible_ImplicitlySupportedTypes_TestD0Ev
FN:30,30,_ZN50IsToStringCompatible_ImplicitlySupportedTypes_TestD2Ev
FNDA:1,_ZN43IsToStringCompatible_DifferentRefTypes_Test8TestBodyEv
FNDA:1,_ZN43IsToStringCompatible_DifferentRefTypes_TestC2Ev
FNDA:1,_ZN43IsToStringCompatible_DifferentRefTypes_TestD0Ev
FNDA:1,_ZN43IsToStringCompatible_DifferentRefTypes_TestD2Ev
FNDA:1,_ZN50IsToStringCompatible_ExplicitlySupportedTypes_Test8TestBodyEv
FNDA:1,_ZN50IsToStringCompatible_ExplicitlySupportedTypes_TestC2Ev
FNDA:1,_ZN50IsToStringCompatible_ExplicitlySupportedTypes_TestD0Ev
FNDA:1,_ZN50IsToStringCompatible_ExplicitlySupportedTypes_TestD2Ev
FNDA:1,_ZN50IsToStringCompatible_ImplicitlySupportedTypes_Test8TestBodyEv
FNDA:1,_ZN50IsToStringCompatible_ImplicitlySupportedTypes_TestC2Ev
FNDA:1,_ZN50IsToStringCompatible_ImplicitlySupportedTypes_TestD0Ev
FNDA:1,_ZN50IsToStringCompatible_ImplicitlySupportedTypes_TestD2Ev
FNF:12
FNH:12
DA:10,4
DA:12,1
DA:13,1
DA:14,1
DA:15,1
DA:16,1
DA:18,4
DA:19,1
DA:20,1
DA:21,1
DA:22,1
DA:23,1
DA:24,1
DA:25,1
DA:26,1
DA:27,1
DA:28,1
DA:30,4
DA:31,1
DA:32,1
DA:33,1
DA:34,1
DA:35,1
DA:36,1
DA:37,1
LF:25
LH:25
end_of_record
