TN:
SF:/home/marabella/Desktop/C++/Projects/UniversalConverterToString/build/Coverage/_deps/gtest-src/googletest/include/gtest/gtest-assertion-result.h
FN:162,168,_ZN7testing15AssertionResultC2IbEERKT_PNSt9enable_ifIXntsrSt14is_convertibleIS2_S0_E5valueEvE4typeE
FN:175,178,_ZN7testing15AssertionResultaSES0_
FN:181,181,_ZNK7testing15AssertionResultcvbEv
FN:190,192,_ZNK7testing15AssertionResult7messageEv
FN:194,194,_ZNK7testing15AssertionResult15failure_messageEv
FN:205,209,_ZN7testing15AssertionResultlsEPFRSoS1_E
FN:213,216,_ZN7testing15AssertionResult13AppendMessageERKNS_7MessageE
FNDA:146,_ZN7testing15AssertionResultC2IbEERKT_PNSt9enable_ifIXntsrSt14is_convertibleIS2_S0_E5valueEvE4typeE
FNDA:0,_ZN7testing15AssertionResultaSES0_
FNDA:146,_ZNK7testing15AssertionResultcvbEv
FNDA:0,_ZNK7testing15AssertionResult7messageEv
FNDA:0,_ZNK7testing15AssertionResult15failure_messageEv
FNDA:0,_ZN7testing15AssertionResultlsEPFRSoS1_E
FNDA:0,_ZN7testing15AssertionResult13AppendMessageERKNS_7MessageE
FNF:7
FNH:2
DA:162,146
DA:168,146
DA:175,0
DA:176,0
DA:177,0
DA:181,146
DA:190,0
DA:191,0
DA:194,0
DA:205,0
DA:207,0
DA:208,0
DA:213,0
DA:214,0
DA:215,0
DA:216,0
LF:16
LH:3
end_of_record
TN:
SF:/home/marabella/Desktop/C++/Projects/UniversalConverterToString/build/Coverage/_deps/gtest-src/googletest/include/gtest/gtest-matchers.h
FN:101,101,_ZNK7testing19MatchResultListener12IsInterestedEv
FN:110,110,_ZN7testing19MatchResultListenerD0Ev
FN:110,110,_ZN7testing19MatchResultListenerD2Ev
FN:116,116,_ZN7testing25MatcherDescriberInterfaceD0Ev
FN:116,116,_ZN7testing25MatcherDescriberInterfaceD2Ev
FN:131,135,_ZNK7testing25MatcherDescriberInterface18DescribeNegationToEPSo
FN:185,185,_ZN7testing8internal24DummyMatchResultListenerC2Ev
FN:197,198,_ZN7testing8internal25StreamMatchResultListenerC2EPSo
FN:208,208,_ZN7testing8internal17SharedPayloadBase3RefEv
FN:209,209,_ZN7testing8internal17SharedPayloadBase5UnrefEv
FN:215,215,_ZN7testing8internal13SharedPayloadISt10unique_ptrIKNS_16MatcherInterfaceINSt7__cxx1112basic_stringIcSt11char_traitsIcESaIcEEEEESt14default_deleteISB_EEEC2EOSE_
FN:215,215,_ZN7testing8internal13SharedPayloadISt10unique_ptrIKNS_16MatcherInterfaceIRKNSt7__cxx1112basic_stringIcSt11char_traitsIcESaIcEEEEESt14default_deleteISD_EEEC2EOSG_
FN:215,215,_ZN7testing8internal13SharedPayloadISt10unique_ptrIKNS_16MatcherInterfaceIRKSt17basic_string_viewIcSt11char_traitsIcEEEESt14default_deleteISB_EEEC2EOSE_
FN:215,215,_ZN7testing8internal13SharedPayloadISt10unique_ptrIKNS_16MatcherInterfaceISt17basic_string_viewIcSt11char_traitsIcEEEESt14default_deleteIS9_EEEC2EOSC_
FN:217,219,_ZN7testing8internal13SharedPayloadISt10unique_ptrIKNS_16MatcherInterfaceINSt7__cxx1112basic_stringIcSt11char_traitsIcESaIcEEEEESt14default_deleteISB_EEE7DestroyEPNS0_17SharedPayloadBaseE
FN:217,219,_ZN7testing8internal13SharedPayloadISt10unique_ptrIKNS_16MatcherInterfaceIRKNSt7__cxx1112basic_stringIcSt11char_traitsIcESaIcEEEEESt14default_deleteISD_EEE7DestroyEPNS0_17SharedPayloadBaseE
FN:217,219,_ZN7testing8internal13SharedPayloadISt10unique_ptrIKNS_16MatcherInterfaceIRKSt17basic_string_viewIcSt11char_traitsIcEEEESt14default_deleteISB_EEE7DestroyEPNS0_17SharedPayloadBaseE
FN:217,219,_ZN7testing8internal13SharedPayloadISt10unique_ptrIKNS_16MatcherInterfaceISt17basic_string_viewIcSt11char_traitsIcEEEESt14default_deleteIS9_EEE7DestroyEPNS0_17SharedPayloadBaseE
FN:244,247,_ZNK7testing8internal11MatcherBaseINSt7__cxx1112basic_stringIcSt11char_traitsIcESaIcEEEE10DescribeToEPSo
FN:244,247,_ZNK7testing8internal11MatcherBaseIRKNSt7__cxx1112basic_stringIcSt11char_traitsIcESaIcEEEE10DescribeToEPSo
FN:244,247,_ZNK7testing8internal11MatcherBaseIRKSt17basic_string_viewIcSt11char_traitsIcEEE10DescribeToEPSo
FN:244,247,_ZNK7testing8internal11MatcherBaseISt17basic_string_viewIcSt11char_traitsIcEEE10DescribeToEPSo
FN:250,253,_ZNK7testing8internal11MatcherBaseINSt7__cxx1112basic_stringIcSt11char_traitsIcESaIcEEEE18DescribeNegationToEPSo
FN:250,253,_ZNK7testing8internal11MatcherBaseIRKNSt7__cxx1112basic_stringIcSt11char_traitsIcESaIcEEEE18DescribeNegationToEPSo
FN:250,253,_ZNK7testing8internal11MatcherBaseIRKSt17basic_string_viewIcSt11char_traitsIcEEE18DescribeNegationToEPSo
FN:250,253,_ZNK7testing8internal11MatcherBaseISt17basic_string_viewIcSt11char_traitsIcEEE18DescribeNegationToEPSo
FN:274,277,_ZN7testing8internal11MatcherBaseINSt7__cxx1112basic_stringIcSt11char_traitsIcESaIcEEEEC2IRKS7_EEPKNS_16MatcherInterfaceIT_EE
FN:274,277,_ZN7testing8internal11MatcherBaseINSt7__cxx1112basic_stringIcSt11char_traitsIcESaIcEEEEC2IS7_EEPKNS_16MatcherInterfaceIT_EE
FN:274,277,_ZN7testing8internal11MatcherBaseIRKNSt7__cxx1112basic_stringIcSt11char_traitsIcESaIcEEEEC2IS9_EEPKNS_16MatcherInterfaceIT_EE
FN:274,277,_ZN7testing8internal11MatcherBaseIRKSt17basic_string_viewIcSt11char_traitsIcEEEC2IS7_EEPKNS_16MatcherInterfaceIT_EE
FN:274,277,_ZN7testing8internal11MatcherBaseISt17basic_string_viewIcSt11char_traitsIcEEEC2IRKS5_EEPKNS_16MatcherInterfaceIT_EE
FN:274,277,_ZN7testing8internal11MatcherBaseISt17basic_string_viewIcSt11char_traitsIcEEEC2IS5_EEPKNS_16MatcherInterfaceIT_EE
FN:299,302,_ZN7testing8internal11MatcherBaseIRKNSt7__cxx1112basic_stringIcSt11char_traitsIcESaIcEEEEC2EOSA_
FN:313,313,_ZN7testing8internal11MatcherBaseINSt7__cxx1112basic_stringIcSt11char_traitsIcESaIcEEEED0Ev
FN:313,313,_ZN7testing8internal11MatcherBaseINSt7__cxx1112basic_stringIcSt11char_traitsIcESaIcEEEED2Ev
FN:313,313,_ZN7testing8internal11MatcherBaseIRKNSt7__cxx1112basic_stringIcSt11char_traitsIcESaIcEEEED0Ev
FN:313,313,_ZN7testing8internal11MatcherBaseIRKNSt7__cxx1112basic_stringIcSt11char_traitsIcESaIcEEEED2Ev
FN:313,313,_ZN7testing8internal11MatcherBaseIRKSt17basic_string_viewIcSt11char_traitsIcEEED0Ev
FN:313,313,_ZN7testing8internal11MatcherBaseIRKSt17basic_string_viewIcSt11char_traitsIcEEED2Ev
FN:313,313,_ZN7testing8internal11MatcherBaseISt17basic_string_viewIcSt11char_traitsIcEEED0Ev
FN:313,313,_ZN7testing8internal11MatcherBaseISt17basic_string_viewIcSt11char_traitsIcEEED2Ev
FN:327,329,_ZNK7testing8internal11MatcherBaseINSt7__cxx1112basic_stringIcSt11char_traitsIcESaIcEEEE8IsSharedEv
FN:327,329,_ZNK7testing8internal11MatcherBaseIRKNSt7__cxx1112basic_stringIcSt11char_traitsIcESaIcEEEE8IsSharedEv
FN:327,329,_ZNK7testing8internal11MatcherBaseIRKSt17basic_string_viewIcSt11char_traitsIcEEE8IsSharedEv
FN:327,329,_ZNK7testing8internal11MatcherBaseISt17basic_string_viewIcSt11char_traitsIcEEE8IsSharedEv
FN:340,344,_ZN7testing8internal11MatcherBaseINSt7__cxx1112basic_stringIcSt11char_traitsIcESaIcEEEE19MatchAndExplainImplINS8_11ValuePolicyIPKNS_16MatcherInterfaceIRKS7_EELb1EEEEEDTcldtclsrT_3Getfp_E15MatchAndExplainfp0_fp1_EERKS8_SD_PNS_19MatchResultListenerE
FN:340,344,_ZN7testing8internal11MatcherBaseINSt7__cxx1112basic_stringIcSt11char_traitsIcESaIcEEEE19MatchAndExplainImplINS8_11ValuePolicyIPKNS_16MatcherInterfaceIS7_EELb1EEEEEDTcldtclsrT_3Getfp_E15MatchAndExplainfp0_fp1_EERKS8_RKS7_PNS_19MatchResultListenerE
FN:340,344,_ZN7testing8internal11MatcherBaseIRKNSt7__cxx1112basic_stringIcSt11char_traitsIcESaIcEEEE19MatchAndExplainImplINSA_11ValuePolicyIPKNS_16MatcherInterfaceIS9_EELb1EEEEEDTcldtclsrT_3Getfp_E15MatchAndExplainfp0_fp1_EERKSA_S9_PNS_19MatchResultListenerE
FN:340,344,_ZN7testing8internal11MatcherBaseIRKSt17basic_string_viewIcSt11char_traitsIcEEE19MatchAndExplainImplINS8_11ValuePolicyIPKNS_16MatcherInterfaceIS7_EELb1EEEEEDTcldtclsrT_3Getfp_E15MatchAndExplainfp0_fp1_EERKS8_S7_PNS_19MatchResultListenerE
FN:340,344,_ZN7testing8internal11MatcherBaseISt17basic_string_viewIcSt11char_traitsIcEEE19MatchAndExplainImplINS6_11ValuePolicyIPKNS_16MatcherInterfaceIRKS5_EELb1EEEEEDTcldtclsrT_3Getfp_E15MatchAndExplainfp0_fp1_EERKS6_SB_PNS_19MatchResultListenerE
FN:340,344,_ZN7testing8internal11MatcherBaseISt17basic_string_viewIcSt11char_traitsIcEEE19MatchAndExplainImplINS6_11ValuePolicyIPKNS_16MatcherInterfaceIS5_EELb1EEEEEDTcldtclsrT_3Getfp_E15MatchAndExplainfp0_fp1_EERKS6_RKS5_PNS_19MatchResultListenerE
FN:347,354,_ZN7testing8internal11MatcherBaseINSt7__cxx1112basic_stringIcSt11char_traitsIcESaIcEEEE12DescribeImplINS8_11ValuePolicyIPKNS_16MatcherInterfaceIRKS7_EELb1EEEEEvRKS8_PSob
FN:347,354,_ZN7testing8internal11MatcherBaseINSt7__cxx1112basic_stringIcSt11char_traitsIcESaIcEEEE12DescribeImplINS8_11ValuePolicyIPKNS_16MatcherInterfaceIS7_EELb1EEEEEvRKS8_PSob
FN:347,354,_ZN7testing8internal11MatcherBaseIRKNSt7__cxx1112basic_stringIcSt11char_traitsIcESaIcEEEE12DescribeImplINSA_11ValuePolicyIPKNS_16MatcherInterfaceIS9_EELb1EEEEEvRKSA_PSob
FN:347,354,_ZN7testing8internal11MatcherBaseIRKSt17basic_string_viewIcSt11char_traitsIcEEE12DescribeImplINS8_11ValuePolicyIPKNS_16MatcherInterfaceIS7_EELb1EEEEEvRKS8_PSob
FN:347,354,_ZN7testing8internal11MatcherBaseISt17basic_string_viewIcSt11char_traitsIcEEE12DescribeImplINS6_11ValuePolicyIPKNS_16MatcherInterfaceIRKS5_EELb1EEEEEvRKS6_PSob
FN:347,354,_ZN7testing8internal11MatcherBaseISt17basic_string_viewIcSt11char_traitsIcEEE12DescribeImplINS6_11ValuePolicyIPKNS_16MatcherInterfaceIS5_EELb1EEEEEvRKS6_PSob
FN:357,370,_ZN7testing8internal11MatcherBaseINSt7__cxx1112basic_stringIcSt11char_traitsIcESaIcEEEE16GetDescriberImplINS8_11ValuePolicyIPKNS_16MatcherInterfaceIRKS7_EELb1EEEEEPKNS_25MatcherDescriberInterfaceERKS8_
FN:357,370,_ZN7testing8internal11MatcherBaseINSt7__cxx1112basic_stringIcSt11char_traitsIcESaIcEEEE16GetDescriberImplINS8_11ValuePolicyIPKNS_16MatcherInterfaceIS7_EELb1EEEEEPKNS_25MatcherDescriberInterfaceERKS8_
FN:357,370,_ZN7testing8internal11MatcherBaseIRKNSt7__cxx1112basic_stringIcSt11char_traitsIcESaIcEEEE16GetDescriberImplINSA_11ValuePolicyIPKNS_16MatcherInterfaceIS9_EELb1EEEEEPKNS_25MatcherDescriberInterfaceERKSA_
FN:357,370,_ZN7testing8internal11MatcherBaseIRKSt17basic_string_viewIcSt11char_traitsIcEEE16GetDescriberImplINS8_11ValuePolicyIPKNS_16MatcherInterfaceIS7_EELb1EEEEEPKNS_25MatcherDescriberInterfaceERKS8_
FN:357,370,_ZN7testing8internal11MatcherBaseISt17basic_string_viewIcSt11char_traitsIcEEE16GetDescriberImplINS6_11ValuePolicyIPKNS_16MatcherInterfaceIRKS5_EELb1EEEEEPKNS_25MatcherDescriberInterfaceERKS6_
FN:357,370,_ZN7testing8internal11MatcherBaseISt17basic_string_viewIcSt11char_traitsIcEEE16GetDescriberImplINS6_11ValuePolicyIPKNS_16MatcherInterfaceIS5_EELb1EEEEEPKNS_25MatcherDescriberInterfaceERKS6_
FN:373,378,_ZN7testing8internal11MatcherBaseINSt7__cxx1112basic_stringIcSt11char_traitsIcESaIcEEEE9GetVTableINS8_11ValuePolicyIPKNS_16MatcherInterfaceIRKS7_EELb1EEEEEPKNS8_6VTableEv
FN:373,378,_ZN7testing8internal11MatcherBaseINSt7__cxx1112basic_stringIcSt11char_traitsIcESaIcEEEE9GetVTableINS8_11ValuePolicyIPKNS_16MatcherInterfaceIS7_EELb1EEEEEPKNS8_6VTableEv
FN:373,378,_ZN7testing8internal11MatcherBaseIRKNSt7__cxx1112basic_stringIcSt11char_traitsIcESaIcEEEE9GetVTableINSA_11ValuePolicyIPKNS_16MatcherInterfaceIS9_EELb1EEEEEPKNSA_6VTableEv
FN:373,378,_ZN7testing8internal11MatcherBaseIRKSt17basic_string_viewIcSt11char_traitsIcEEE9GetVTableINS8_11ValuePolicyIPKNS_16MatcherInterfaceIS7_EELb1EEEEEPKNS8_6VTableEv
FN:373,378,_ZN7testing8internal11MatcherBaseISt17basic_string_viewIcSt11char_traitsIcEEE9GetVTableINS6_11ValuePolicyIPKNS_16MatcherInterfaceIRKS5_EELb1EEEEEPKNS6_6VTableEv
FN:373,378,_ZN7testing8internal11MatcherBaseISt17basic_string_viewIcSt11char_traitsIcEEE9GetVTableINS6_11ValuePolicyIPKNS_16MatcherInterfaceIS5_EELb1EEEEEPKNS6_6VTableEv
FN:389,393,_ZN7testing8internal11MatcherBaseINSt7__cxx1112basic_stringIcSt11char_traitsIcESaIcEEEE7DestroyEv
FN:389,393,_ZN7testing8internal11MatcherBaseIRKNSt7__cxx1112basic_stringIcSt11char_traitsIcESaIcEEEE7DestroyEv
FN:389,393,_ZN7testing8internal11MatcherBaseIRKSt17basic_string_viewIcSt11char_traitsIcEEE7DestroyEv
FN:389,393,_ZN7testing8internal11MatcherBaseISt17basic_string_viewIcSt11char_traitsIcEEE7DestroyEv
FN:396,400,_ZN7testing8internal11MatcherBaseINSt7__cxx1112basic_stringIcSt11char_traitsIcESaIcEEEE9IsInlinedIPKNS_16MatcherInterfaceIRKS7_EEEEbv
FN:396,400,_ZN7testing8internal11MatcherBaseINSt7__cxx1112basic_stringIcSt11char_traitsIcESaIcEEEE9IsInlinedIPKNS_16MatcherInterfaceIS7_EEEEbv
FN:396,400,_ZN7testing8internal11MatcherBaseIRKNSt7__cxx1112basic_stringIcSt11char_traitsIcESaIcEEEE9IsInlinedIPKNS_16MatcherInterfaceIS9_EEEEbv
FN:396,400,_ZN7testing8internal11MatcherBaseIRKSt17basic_string_viewIcSt11char_traitsIcEEE9IsInlinedIPKNS_16MatcherInterfaceIS7_EEEEbv
FN:396,400,_ZN7testing8internal11MatcherBaseISt17basic_string_viewIcSt11char_traitsIcEEE9IsInlinedIPKNS_16MatcherInterfaceIRKS5_EEEEbv
FN:396,400,_ZN7testing8internal11MatcherBaseISt17basic_string_viewIcSt11char_traitsIcEEE9IsInlinedIPKNS_16MatcherInterfaceIS5_EEEEbv
FN:434,436,_ZN7testing8internal11MatcherBaseINSt7__cxx1112basic_stringIcSt11char_traitsIcESaIcEEEE11ValuePolicyIPKNS_16MatcherInterfaceIRKS7_EELb1EE3GetERKS8_
FN:434,436,_ZN7testing8internal11MatcherBaseINSt7__cxx1112basic_stringIcSt11char_traitsIcESaIcEEEE11ValuePolicyIPKNS_16MatcherInterfaceIS7_EELb1EE3GetERKS8_
FN:434,436,_ZN7testing8internal11MatcherBaseIRKNSt7__cxx1112basic_stringIcSt11char_traitsIcESaIcEEEE11ValuePolicyIPKNS_16MatcherInterfaceIS9_EELb1EE3GetERKSA_
FN:434,436,_ZN7testing8internal11MatcherBaseIRKSt17basic_string_viewIcSt11char_traitsIcEEE11ValuePolicyIPKNS_16MatcherInterfaceIS7_EELb1EE3GetERKS8_
FN:434,436,_ZN7testing8internal11MatcherBaseISt17basic_string_viewIcSt11char_traitsIcEEE11ValuePolicyIPKNS_16MatcherInterfaceIRKS5_EELb1EE3GetERKS6_
FN:434,436,_ZN7testing8internal11MatcherBaseISt17basic_string_viewIcSt11char_traitsIcEEE11ValuePolicyIPKNS_16MatcherInterfaceIS5_EELb1EE3GetERKS6_
FN:437,439,_ZN7testing8internal11MatcherBaseINSt7__cxx1112basic_stringIcSt11char_traitsIcESaIcEEEE11ValuePolicyIPKNS_16MatcherInterfaceIRKS7_EELb1EE4InitERS8_SF_
FN:437,439,_ZN7testing8internal11MatcherBaseINSt7__cxx1112basic_stringIcSt11char_traitsIcESaIcEEEE11ValuePolicyIPKNS_16MatcherInterfaceIS7_EELb1EE4InitERS8_SD_
FN:437,439,_ZN7testing8internal11MatcherBaseIRKNSt7__cxx1112basic_stringIcSt11char_traitsIcESaIcEEEE11ValuePolicyIPKNS_16MatcherInterfaceIS9_EELb1EE4InitERSA_SF_
FN:437,439,_ZN7testing8internal11MatcherBaseIRKSt17basic_string_viewIcSt11char_traitsIcEEE11ValuePolicyIPKNS_16MatcherInterfaceIS7_EELb1EE4InitERS8_SD_
FN:437,439,_ZN7testing8internal11MatcherBaseISt17basic_string_viewIcSt11char_traitsIcEEE11ValuePolicyIPKNS_16MatcherInterfaceIRKS5_EELb1EE4InitERS6_SD_
FN:437,439,_ZN7testing8internal11MatcherBaseISt17basic_string_viewIcSt11char_traitsIcEEE11ValuePolicyIPKNS_16MatcherInterfaceIS5_EELb1EE4InitERS6_SB_
FN:445,450,_ZN7testing8internal11MatcherBaseINSt7__cxx1112basic_stringIcSt11char_traitsIcESaIcEEEE4InitIRPKNS_16MatcherInterfaceIRKS7_EEEEvOT_
FN:445,450,_ZN7testing8internal11MatcherBaseINSt7__cxx1112basic_stringIcSt11char_traitsIcESaIcEEEE4InitIRPKNS_16MatcherInterfaceIS7_EEEEvOT_
FN:445,450,_ZN7testing8internal11MatcherBaseIRKNSt7__cxx1112basic_stringIcSt11char_traitsIcESaIcEEEE4InitIRPKNS_16MatcherInterfaceIS9_EEEEvOT_
FN:445,450,_ZN7testing8internal11MatcherBaseIRKSt17basic_string_viewIcSt11char_traitsIcEEE4InitIRPKNS_16MatcherInterfaceIS7_EEEEvOT_
FN:445,450,_ZN7testing8internal11MatcherBaseISt17basic_string_viewIcSt11char_traitsIcEEE4InitIRPKNS_16MatcherInterfaceIRKS5_EEEEvOT_
FN:445,450,_ZN7testing8internal11MatcherBaseISt17basic_string_viewIcSt11char_traitsIcEEE4InitIRPKNS_16MatcherInterfaceIS5_EEEEvOT_
FN:499,500,_ZN7testing7MatcherIRKNSt7__cxx1112basic_stringIcSt11char_traitsIcESaIcEEEEC2EPKNS_16MatcherInterfaceIS8_EE
FN:521,522,_ZN7testing7MatcherINSt7__cxx1112basic_stringIcSt11char_traitsIcESaIcEEEEC2EPKNS_16MatcherInterfaceIRKS6_EE
FN:523,524,_ZN7testing7MatcherINSt7__cxx1112basic_stringIcSt11char_traitsIcESaIcEEEEC2EPKNS_16MatcherInterfaceIS6_EE
FN:549,550,_ZN7testing7MatcherIRKSt17basic_string_viewIcSt11char_traitsIcEEEC2EPKNS_16MatcherInterfaceIS6_EE
FN:575,576,_ZN7testing7MatcherISt17basic_string_viewIcSt11char_traitsIcEEEC2EPKNS_16MatcherInterfaceIRKS4_EE
FN:577,578,_ZN7testing7MatcherISt17basic_string_viewIcSt11char_traitsIcEEEC2EPKNS_16MatcherInterfaceIS4_EE
FN:619,619,_ZN7testing18PolymorphicMatcherINS_8internal19MatchesRegexMatcherEEC2ERKS2_
FN:630,632,_ZNK7testing18PolymorphicMatcherINS_8internal19MatchesRegexMatcherEEcvNS_7MatcherIT_EEIRKNSt7__cxx1112basic_stringIcSt11char_traitsIcESaIcEEEEEv
FN:638,638,_ZN7testing18PolymorphicMatcherINS_8internal19MatchesRegexMatcherEE15MonomorphicImplIRKNSt7__cxx1112basic_stringIcSt11char_traitsIcESaIcEEEEC2ERKS2_
FN:640,640,_ZNK7testing18PolymorphicMatcherINS_8internal19MatchesRegexMatcherEE15MonomorphicImplIRKNSt7__cxx1112basic_stringIcSt11char_traitsIcESaIcEEEE10DescribeToEPSo
FN:642,644,_ZNK7testing18PolymorphicMatcherINS_8internal19MatchesRegexMatcherEE15MonomorphicImplIRKNSt7__cxx1112basic_stringIcSt11char_traitsIcESaIcEEEE18DescribeNegationToEPSo
FN:646,648,_ZNK7testing18PolymorphicMatcherINS_8internal19MatchesRegexMatcherEE15MonomorphicImplIRKNSt7__cxx1112basic_stringIcSt11char_traitsIcESaIcEEEE15MatchAndExplainESC_PNS_19MatchResultListenerE
FN:676,678,_ZN7testing22MakePolymorphicMatcherINS_8internal19MatchesRegexMatcherEEENS_18PolymorphicMatcherIT_EERKS4_
FN:785,786,_ZN7testing8internal19MatchesRegexMatcherC2EPKNS0_2REEb
FN:789,792,_ZNK7testing8internal19MatchesRegexMatcher15MatchAndExplainERKSt17basic_string_viewIcSt11char_traitsIcEEPNS_19MatchResultListenerE
FN:810,815,_ZNK7testing8internal19MatchesRegexMatcher15MatchAndExplainINSt7__cxx1112basic_stringIcSt11char_traitsIcESaIcEEEEEbRKT_PNS_19MatchResultListenerE
FN:817,820,_ZNK7testing8internal19MatchesRegexMatcher10DescribeToEPSo
FN:822,826,_ZNK7testing8internal19MatchesRegexMatcher18DescribeNegationToEPSo
FN:83,83,_ZN7testing19MatchResultListenerC2EPSo
FN:836,839,_ZN7testing12MatchesRegexEPKNS_8internal2REE
FN:848,851,_ZN7testing13ContainsRegexEPKNS_8internal2REE
FN:853,856,_ZN7testing13ContainsRegexINSt7__cxx1112basic_stringIcSt11char_traitsIcESaIcEEEEENS_18PolymorphicMatcherINS_8internal19MatchesRegexMatcherEEERKT_
FN:853,856,_ZN7testing13ContainsRegexIPKcEENS_18PolymorphicMatcherINS_8internal19MatchesRegexMatcherEEERKT_
FN:95,95,_ZN7testing19MatchResultListener6streamEv
FNDA:0,_ZNK7testing19MatchResultListener12IsInterestedEv
FNDA:0,_ZN7testing19MatchResultListenerD0Ev
FNDA:0,_ZN7testing19MatchResultListenerD2Ev
FNDA:0,_ZN7testing25MatcherDescriberInterfaceD0Ev
FNDA:0,_ZN7testing25MatcherDescriberInterfaceD2Ev
FNDA:0,_ZNK7testing25MatcherDescriberInterface18DescribeNegationToEPSo
FNDA:0,_ZN7testing8internal24DummyMatchResultListenerC2Ev
FNDA:0,_ZN7testing8internal25StreamMatchResultListenerC2EPSo
FNDA:0,_ZN7testing8internal17SharedPayloadBase3RefEv
FNDA:0,_ZN7testing8internal17SharedPayloadBase5UnrefEv
FNDA:0,_ZN7testing8internal13SharedPayloadISt10unique_ptrIKNS_16MatcherInterfaceINSt7__cxx1112basic_stringIcSt11char_traitsIcESaIcEEEEESt14default_deleteISB_EEEC2EOSE_
FNDA:0,_ZN7testing8internal13SharedPayloadISt10unique_ptrIKNS_16MatcherInterfaceIRKNSt7__cxx1112basic_stringIcSt11char_traitsIcESaIcEEEEESt14default_deleteISD_EEEC2EOSG_
FNDA:0,_ZN7testing8internal13SharedPayloadISt10unique_ptrIKNS_16MatcherInterfaceIRKSt17basic_string_viewIcSt11char_traitsIcEEEESt14default_deleteISB_EEEC2EOSE_
FNDA:0,_ZN7testing8internal13SharedPayloadISt10unique_ptrIKNS_16MatcherInterfaceISt17basic_string_viewIcSt11char_traitsIcEEEESt14default_deleteIS9_EEEC2EOSC_
FNDA:0,_ZN7testing8internal13SharedPayloadISt10unique_ptrIKNS_16MatcherInterfaceINSt7__cxx1112basic_stringIcSt11char_traitsIcESaIcEEEEESt14default_deleteISB_EEE7DestroyEPNS0_17SharedPayloadBaseE
FNDA:0,_ZN7testing8internal13SharedPayloadISt10unique_ptrIKNS_16MatcherInterfaceIRKNSt7__cxx1112basic_stringIcSt11char_traitsIcESaIcEEEEESt14default_deleteISD_EEE7DestroyEPNS0_17SharedPayloadBaseE
FNDA:0,_ZN7testing8internal13SharedPayloadISt10unique_ptrIKNS_16MatcherInterfaceIRKSt17basic_string_viewIcSt11char_traitsIcEEEESt14default_deleteISB_EEE7DestroyEPNS0_17SharedPayloadBaseE
FNDA:0,_ZN7testing8internal13SharedPayloadISt10unique_ptrIKNS_16MatcherInterfaceISt17basic_string_viewIcSt11char_traitsIcEEEESt14default_deleteIS9_EEE7DestroyEPNS0_17SharedPayloadBaseE
FNDA:0,_ZNK7testing8internal11MatcherBaseINSt7__cxx1112basic_stringIcSt11char_traitsIcESaIcEEEE10DescribeToEPSo
FNDA:0,_ZNK7testing8internal11MatcherBaseIRKNSt7__cxx1112basic_stringIcSt11char_traitsIcESaIcEEEE10DescribeToEPSo
FNDA:0,_ZNK7testing8internal11MatcherBaseIRKSt17basic_string_viewIcSt11char_traitsIcEEE10DescribeToEPSo
FNDA:0,_ZNK7testing8internal11MatcherBaseISt17basic_string_viewIcSt11char_traitsIcEEE10DescribeToEPSo
FNDA:0,_ZNK7testing8internal11MatcherBaseINSt7__cxx1112basic_stringIcSt11char_traitsIcESaIcEEEE18DescribeNegationToEPSo
FNDA:0,_ZNK7testing8internal11MatcherBaseIRKNSt7__cxx1112basic_stringIcSt11char_traitsIcESaIcEEEE18DescribeNegationToEPSo
FNDA:0,_ZNK7testing8internal11MatcherBaseIRKSt17basic_string_viewIcSt11char_traitsIcEEE18DescribeNegationToEPSo
FNDA:0,_ZNK7testing8internal11MatcherBaseISt17basic_string_viewIcSt11char_traitsIcEEE18DescribeNegationToEPSo
FNDA:0,_ZN7testing8internal11MatcherBaseINSt7__cxx1112basic_stringIcSt11char_traitsIcESaIcEEEEC2IRKS7_EEPKNS_16MatcherInterfaceIT_EE
FNDA:0,_ZN7testing8internal11MatcherBaseINSt7__cxx1112basic_stringIcSt11char_traitsIcESaIcEEEEC2IS7_EEPKNS_16MatcherInterfaceIT_EE
FNDA:0,_ZN7testing8internal11MatcherBaseIRKNSt7__cxx1112basic_stringIcSt11char_traitsIcESaIcEEEEC2IS9_EEPKNS_16MatcherInterfaceIT_EE
FNDA:0,_ZN7testing8internal11MatcherBaseIRKSt17basic_string_viewIcSt11char_traitsIcEEEC2IS7_EEPKNS_16MatcherInterfaceIT_EE
FNDA:0,_ZN7testing8internal11MatcherBaseISt17basic_string_viewIcSt11char_traitsIcEEEC2IRKS5_EEPKNS_16MatcherInterfaceIT_EE
FNDA:0,_ZN7testing8internal11MatcherBaseISt17basic_string_viewIcSt11char_traitsIcEEEC2IS5_EEPKNS_16MatcherInterfaceIT_EE
FNDA:0,_ZN7testing8internal11MatcherBaseIRKNSt7__cxx1112basic_stringIcSt11char_traitsIcESaIcEEEEC2EOSA_
FNDA:0,_ZN7testing8internal11MatcherBaseINSt7__cxx1112basic_stringIcSt11char_traitsIcESaIcEEEED0Ev
FNDA:0,_ZN7testing8internal11MatcherBaseINSt7__cxx1112basic_stringIcSt11char_traitsIcESaIcEEEED2Ev
FNDA:0,_ZN7testing8internal11MatcherBaseIRKNSt7__cxx1112basic_stringIcSt11char_traitsIcESaIcEEEED0Ev
FNDA:0,_ZN7testing8internal11MatcherBaseIRKNSt7__cxx1112basic_stringIcSt11char_traitsIcESaIcEEEED2Ev
FNDA:0,_ZN7testing8internal11MatcherBaseIRKSt17basic_string_viewIcSt11char_traitsIcEEED0Ev
FNDA:0,_ZN7testing8internal11MatcherBaseIRKSt17basic_string_viewIcSt11char_traitsIcEEED2Ev
FNDA:0,_ZN7testing8internal11MatcherBaseISt17basic_string_viewIcSt11char_traitsIcEEED0Ev
FNDA:0,_ZN7testing8internal11MatcherBaseISt17basic_string_viewIcSt11char_traitsIcEEED2Ev
FNDA:0,_ZNK7testing8internal11MatcherBaseINSt7__cxx1112basic_stringIcSt11char_traitsIcESaIcEEEE8IsSharedEv
FNDA:0,_ZNK7testing8internal11MatcherBaseIRKNSt7__cxx1112basic_stringIcSt11char_traitsIcESaIcEEEE8IsSharedEv
FNDA:0,_ZNK7testing8internal11MatcherBaseIRKSt17basic_string_viewIcSt11char_traitsIcEEE8IsSharedEv
FNDA:0,_ZNK7testing8internal11MatcherBaseISt17basic_string_viewIcSt11char_traitsIcEEE8IsSharedEv
FNDA:0,_ZN7testing8internal11MatcherBaseINSt7__cxx1112basic_stringIcSt11char_traitsIcESaIcEEEE19MatchAndExplainImplINS8_11ValuePolicyIPKNS_16MatcherInterfaceIRKS7_EELb1EEEEEDTcldtclsrT_3Getfp_E15MatchAndExplainfp0_fp1_EERKS8_SD_PNS_19MatchResultListenerE
FNDA:0,_ZN7testing8internal11MatcherBaseINSt7__cxx1112basic_stringIcSt11char_traitsIcESaIcEEEE19MatchAndExplainImplINS8_11ValuePolicyIPKNS_16MatcherInterfaceIS7_EELb1EEEEEDTcldtclsrT_3Getfp_E15MatchAndExplainfp0_fp1_EERKS8_RKS7_PNS_19MatchResultListenerE
FNDA:0,_ZN7testing8internal11MatcherBaseIRKNSt7__cxx1112basic_stringIcSt11char_traitsIcESaIcEEEE19MatchAndExplainImplINSA_11ValuePolicyIPKNS_16MatcherInterfaceIS9_EELb1EEEEEDTcldtclsrT_3Getfp_E15MatchAndExplainfp0_fp1_EERKSA_S9_PNS_19MatchResultListenerE
FNDA:0,_ZN7testing8internal11MatcherBaseIRKSt17basic_string_viewIcSt11char_traitsIcEEE19MatchAndExplainImplINS8_11ValuePolicyIPKNS_16MatcherInterfaceIS7_EELb1EEEEEDTcldtclsrT_3Getfp_E15MatchAndExplainfp0_fp1_EERKS8_S7_PNS_19MatchResultListenerE
FNDA:0,_ZN7testing8internal11MatcherBaseISt17basic_string_viewIcSt11char_traitsIcEEE19MatchAndExplainImplINS6_11ValuePolicyIPKNS_16MatcherInterfaceIRKS5_EELb1EEEEEDTcldtclsrT_3Getfp_E15MatchAndExplainfp0_fp1_EERKS6_SB_PNS_19MatchResultListenerE
FNDA:0,_ZN7testing8internal11MatcherBaseISt17basic_string_viewIcSt11char_traitsIcEEE19MatchAndExplainImplINS6_11ValuePolicyIPKNS_16MatcherInterfaceIS5_EELb1EEEEEDTcldtclsrT_3Getfp_E15MatchAndExplainfp0_fp1_EERKS6_RKS5_PNS_19MatchResultListenerE
FNDA:0,_ZN7testing8internal11MatcherBaseINSt7__cxx1112basic_stringIcSt11char_traitsIcESaIcEEEE12DescribeImplINS8_11ValuePolicyIPKNS_16MatcherInterfaceIRKS7_EELb1EEEEEvRKS8_PSob
FNDA:0,_ZN7testing8internal11MatcherBaseINSt7__cxx1112basic_stringIcSt11char_traitsIcESaIcEEEE12DescribeImplINS8_11ValuePolicyIPKNS_16MatcherInterfaceIS7_EELb1EEEEEvRKS8_PSob
FNDA:0,_ZN7testing8internal11MatcherBaseIRKNSt7__cxx1112basic_stringIcSt11char_traitsIcESaIcEEEE12DescribeImplINSA_11ValuePolicyIPKNS_16MatcherInterfaceIS9_EELb1EEEEEvRKSA_PSob
FNDA:0,_ZN7testing8internal11MatcherBaseIRKSt17basic_string_viewIcSt11char_traitsIcEEE12DescribeImplINS8_11ValuePolicyIPKNS_16MatcherInterfaceIS7_EELb1EEEEEvRKS8_PSob
FNDA:0,_ZN7testing8internal11MatcherBaseISt17basic_string_viewIcSt11char_traitsIcEEE12DescribeImplINS6_11ValuePolicyIPKNS_16MatcherInterfaceIRKS5_EELb1EEEEEvRKS6_PSob
FNDA:0,_ZN7testing8internal11MatcherBaseISt17basic_string_viewIcSt11char_traitsIcEEE12DescribeImplINS6_11ValuePolicyIPKNS_16MatcherInterfaceIS5_EELb1EEEEEvRKS6_PSob
FNDA:0,_ZN7testing8internal11MatcherBaseINSt7__cxx1112basic_stringIcSt11char_traitsIcESaIcEEEE16GetDescriberImplINS8_11ValuePolicyIPKNS_16MatcherInterfaceIRKS7_EELb1EEEEEPKNS_25MatcherDescriberInterfaceERKS8_
FNDA:0,_ZN7testing8internal11MatcherBaseINSt7__cxx1112basic_stringIcSt11char_traitsIcESaIcEEEE16GetDescriberImplINS8_11ValuePolicyIPKNS_16MatcherInterfaceIS7_EELb1EEEEEPKNS_25MatcherDescriberInterfaceERKS8_
FNDA:0,_ZN7testing8internal11MatcherBaseIRKNSt7__cxx1112basic_stringIcSt11char_traitsIcESaIcEEEE16GetDescriberImplINSA_11ValuePolicyIPKNS_16MatcherInterfaceIS9_EELb1EEEEEPKNS_25MatcherDescriberInterfaceERKSA_
FNDA:0,_ZN7testing8internal11MatcherBaseIRKSt17basic_string_viewIcSt11char_traitsIcEEE16GetDescriberImplINS8_11ValuePolicyIPKNS_16MatcherInterfaceIS7_EELb1EEEEEPKNS_25MatcherDescriberInterfaceERKS8_
FNDA:0,_ZN7testing8internal11MatcherBaseISt17basic_string_viewIcSt11char_traitsIcEEE16GetDescriberImplINS6_11ValuePolicyIPKNS_16MatcherInterfaceIRKS5_EELb1EEEEEPKNS_25MatcherDescriberInterfaceERKS6_
FNDA:0,_ZN7testing8internal11MatcherBaseISt17basic_string_viewIcSt11char_traitsIcEEE16GetDescriberImplINS6_11ValuePolicyIPKNS_16MatcherInterfaceIS5_EELb1EEEEEPKNS_25MatcherDescriberInterfaceERKS6_
FNDA:0,_ZN7testing8internal11MatcherBaseINSt7__cxx1112basic_stringIcSt11char_traitsIcESaIcEEEE9GetVTableINS8_11ValuePolicyIPKNS_16MatcherInterfaceIRKS7_EELb1EEEEEPKNS8_6VTableEv
FNDA:0,_ZN7testing8internal11MatcherBaseINSt7__cxx1112basic_stringIcSt11char_traitsIcESaIcEEEE9GetVTableINS8_11ValuePolicyIPKNS_16MatcherInterfaceIS7_EELb1EEEEEPKNS8_6VTableEv
FNDA:0,_ZN7testing8internal11MatcherBaseIRKNSt7__cxx1112basic_stringIcSt11char_traitsIcESaIcEEEE9GetVTableINSA_11ValuePolicyIPKNS_16MatcherInterfaceIS9_EELb1EEEEEPKNSA_6VTableEv
FNDA:0,_ZN7testing8internal11MatcherBaseIRKSt17basic_string_viewIcSt11char_traitsIcEEE9GetVTableINS8_11ValuePolicyIPKNS_16MatcherInterfaceIS7_EELb1EEEEEPKNS8_6VTableEv
FNDA:0,_ZN7testing8internal11MatcherBaseISt17basic_string_viewIcSt11char_traitsIcEEE9GetVTableINS6_11ValuePolicyIPKNS_16MatcherInterfaceIRKS5_EELb1EEEEEPKNS6_6VTableEv
FNDA:0,_ZN7testing8internal11MatcherBaseISt17basic_string_viewIcSt11char_traitsIcEEE9GetVTableINS6_11ValuePolicyIPKNS_16MatcherInterfaceIS5_EELb1EEEEEPKNS6_6VTableEv
FNDA:0,_ZN7testing8internal11MatcherBaseINSt7__cxx1112basic_stringIcSt11char_traitsIcESaIcEEEE7DestroyEv
FNDA:0,_ZN7testing8internal11MatcherBaseIRKNSt7__cxx1112basic_stringIcSt11char_traitsIcESaIcEEEE7DestroyEv
FNDA:0,_ZN7testing8internal11MatcherBaseIRKSt17basic_string_viewIcSt11char_traitsIcEEE7DestroyEv
FNDA:0,_ZN7testing8internal11MatcherBaseISt17basic_string_viewIcSt11char_traitsIcEEE7DestroyEv
FNDA:0,_ZN7testing8internal11MatcherBaseINSt7__cxx1112basic_stringIcSt11char_traitsIcESaIcEEEE9IsInlinedIPKNS_16MatcherInterfaceIRKS7_EEEEbv
FNDA:0,_ZN7testing8internal11MatcherBaseINSt7__cxx1112basic_stringIcSt11char_traitsIcESaIcEEEE9IsInlinedIPKNS_16MatcherInterfaceIS7_EEEEbv
FNDA:0,_ZN7testing8internal11MatcherBaseIRKNSt7__cxx1112basic_stringIcSt11char_traitsIcESaIcEEEE9IsInlinedIPKNS_16MatcherInterfaceIS9_EEEEbv
FNDA:0,_ZN7testing8internal11MatcherBaseIRKSt17basic_string_viewIcSt11char_traitsIcEEE9IsInlinedIPKNS_16MatcherInterfaceIS7_EEEEbv
FNDA:0,_ZN7testing8internal11MatcherBaseISt17basic_string_viewIcSt11char_traitsIcEEE9IsInlinedIPKNS_16MatcherInterfaceIRKS5_EEEEbv
FNDA:0,_ZN7testing8internal11MatcherBaseISt17basic_string_viewIcSt11char_traitsIcEEE9IsInlinedIPKNS_16MatcherInterfaceIS5_EEEEbv
FNDA:0,_ZN7testing8internal11MatcherBaseINSt7__cxx1112basic_stringIcSt11char_traitsIcESaIcEEEE11ValuePolicyIPKNS_16MatcherInterfaceIRKS7_EELb1EE3GetERKS8_
FNDA:0,_ZN7testing8internal11MatcherBaseINSt7__cxx1112basic_stringIcSt11char_traitsIcESaIcEEEE11ValuePolicyIPKNS_16MatcherInterfaceIS7_EELb1EE3GetERKS8_
FNDA:0,_ZN7testing8internal11MatcherBaseIRKNSt7__cxx1112basic_stringIcSt11char_traitsIcESaIcEEEE11ValuePolicyIPKNS_16MatcherInterfaceIS9_EELb1EE3GetERKSA_
FNDA:0,_ZN7testing8internal11MatcherBaseIRKSt17basic_string_viewIcSt11char_traitsIcEEE11ValuePolicyIPKNS_16MatcherInterfaceIS7_EELb1EE3GetERKS8_
FNDA:0,_ZN7testing8internal11MatcherBaseISt17basic_string_viewIcSt11char_traitsIcEEE11ValuePolicyIPKNS_16MatcherInterfaceIRKS5_EELb1EE3GetERKS6_
FNDA:0,_ZN7testing8internal11MatcherBaseISt17basic_string_viewIcSt11char_traitsIcEEE11ValuePolicyIPKNS_16MatcherInterfaceIS5_EELb1EE3GetERKS6_
FNDA:0,_ZN7testing8internal11MatcherBaseINSt7__cxx1112basic_stringIcSt11char_traitsIcESaIcEEEE11ValuePolicyIPKNS_16MatcherInterfaceIRKS7_EELb1EE4InitERS8_SF_
FNDA:0,_ZN7testing8internal11MatcherBaseINSt7__cxx1112basic_stringIcSt11char_traitsIcESaIcEEEE11ValuePolicyIPKNS_16MatcherInterfaceIS7_EELb1EE4InitERS8_SD_
FNDA:0,_ZN7testing8internal11MatcherBaseIRKNSt7__cxx1112basic_stringIcSt11char_traitsIcESaIcEEEE11ValuePolicyIPKNS_16MatcherInterfaceIS9_EELb1EE4InitERSA_SF_
FNDA:0,_ZN7testing8internal11MatcherBaseIRKSt17basic_string_viewIcSt11char_traitsIcEEE11ValuePolicyIPKNS_16MatcherInterfaceIS7_EELb1EE4InitERS8_SD_
FNDA:0,_ZN7testing8internal11MatcherBaseISt17basic_string_viewIcSt11char_traitsIcEEE11ValuePolicyIPKNS_16MatcherInterfaceIRKS5_EELb1EE4InitERS6_SD_
FNDA:0,_ZN7testing8internal11MatcherBaseISt17basic_string_viewIcSt11char_traitsIcEEE11ValuePolicyIPKNS_16MatcherInterfaceIS5_EELb1EE4InitERS6_SB_
FNDA:0,_ZN7testing8internal11MatcherBaseINSt7__cxx1112basic_stringIcSt11char_traitsIcESaIcEEEE4InitIRPKNS_16MatcherInterfaceIRKS7_EEEEvOT_
FNDA:0,_ZN7testing8internal11MatcherBaseINSt7__cxx1112basic_stringIcSt11char_traitsIcESaIcEEEE4InitIRPKNS_16MatcherInterfaceIS7_EEEEvOT_
FNDA:0,_ZN7testing8internal11MatcherBaseIRKNSt7__cxx1112basic_stringIcSt11char_traitsIcESaIcEEEE4InitIRPKNS_16MatcherInterfaceIS9_EEEEvOT_
FNDA:0,_ZN7testing8internal11MatcherBaseIRKSt17basic_string_viewIcSt11char_traitsIcEEE4InitIRPKNS_16MatcherInterfaceIS7_EEEEvOT_
FNDA:0,_ZN7testing8internal11MatcherBaseISt17basic_string_viewIcSt11char_traitsIcEEE4InitIRPKNS_16MatcherInterfaceIRKS5_EEEEvOT_
FNDA:0,_ZN7testing8internal11MatcherBaseISt17basic_string_viewIcSt11char_traitsIcEEE4InitIRPKNS_16MatcherInterfaceIS5_EEEEvOT_
FNDA:0,_ZN7testing7MatcherIRKNSt7__cxx1112basic_stringIcSt11char_traitsIcESaIcEEEEC2EPKNS_16MatcherInterfaceIS8_EE
FNDA:0,_ZN7testing7MatcherINSt7__cxx1112basic_stringIcSt11char_traitsIcESaIcEEEEC2EPKNS_16MatcherInterfaceIRKS6_EE
FNDA:0,_ZN7testing7MatcherINSt7__cxx1112basic_stringIcSt11char_traitsIcESaIcEEEEC2EPKNS_16MatcherInterfaceIS6_EE
FNDA:0,_ZN7testing7MatcherIRKSt17basic_string_viewIcSt11char_traitsIcEEEC2EPKNS_16MatcherInterfaceIS6_EE
FNDA:0,_ZN7testing7MatcherISt17basic_string_viewIcSt11char_traitsIcEEEC2EPKNS_16MatcherInterfaceIRKS4_EE
FNDA:0,_ZN7testing7MatcherISt17basic_string_viewIcSt11char_traitsIcEEEC2EPKNS_16MatcherInterfaceIS4_EE
FNDA:0,_ZN7testing18PolymorphicMatcherINS_8internal19MatchesRegexMatcherEEC2ERKS2_
FNDA:0,_ZNK7testing18PolymorphicMatcherINS_8internal19MatchesRegexMatcherEEcvNS_7MatcherIT_EEIRKNSt7__cxx1112basic_stringIcSt11char_traitsIcESaIcEEEEEv
FNDA:0,_ZN7testing18PolymorphicMatcherINS_8internal19MatchesRegexMatcherEE15MonomorphicImplIRKNSt7__cxx1112basic_stringIcSt11char_traitsIcESaIcEEEEC2ERKS2_
FNDA:0,_ZNK7testing18PolymorphicMatcherINS_8internal19MatchesRegexMatcherEE15MonomorphicImplIRKNSt7__cxx1112basic_stringIcSt11char_traitsIcESaIcEEEE10DescribeToEPSo
FNDA:0,_ZNK7testing18PolymorphicMatcherINS_8internal19MatchesRegexMatcherEE15MonomorphicImplIRKNSt7__cxx1112basic_stringIcSt11char_traitsIcESaIcEEEE18DescribeNegationToEPSo
FNDA:0,_ZNK7testing18PolymorphicMatcherINS_8internal19MatchesRegexMatcherEE15MonomorphicImplIRKNSt7__cxx1112basic_stringIcSt11char_traitsIcESaIcEEEE15MatchAndExplainESC_PNS_19MatchResultListenerE
FNDA:0,_ZN7testing22MakePolymorphicMatcherINS_8internal19MatchesRegexMatcherEEENS_18PolymorphicMatcherIT_EERKS4_
FNDA:0,_ZN7testing8internal19MatchesRegexMatcherC2EPKNS0_2REEb
FNDA:0,_ZNK7testing8internal19MatchesRegexMatcher15MatchAndExplainERKSt17basic_string_viewIcSt11char_traitsIcEEPNS_19MatchResultListenerE
FNDA:0,_ZNK7testing8internal19MatchesRegexMatcher15MatchAndExplainINSt7__cxx1112basic_stringIcSt11char_traitsIcESaIcEEEEEbRKT_PNS_19MatchResultListenerE
FNDA:0,_ZNK7testing8internal19MatchesRegexMatcher10DescribeToEPSo
FNDA:0,_ZNK7testing8internal19MatchesRegexMatcher18DescribeNegationToEPSo
FNDA:0,_ZN7testing19MatchResultListenerC2EPSo
FNDA:0,_ZN7testing12MatchesRegexEPKNS_8internal2REE
FNDA:0,_ZN7testing13ContainsRegexEPKNS_8internal2REE
FNDA:0,_ZN7testing13ContainsRegexINSt7__cxx1112basic_stringIcSt11char_traitsIcESaIcEEEEENS_18PolymorphicMatcherINS_8internal19MatchesRegexMatcherEEERKT_
FNDA:0,_ZN7testing13ContainsRegexIPKcEENS_18PolymorphicMatcherINS_8internal19MatchesRegexMatcherEEERKT_
FNDA:0,_ZN7testing19MatchResultListener6streamEv
FNF:121
FNH:0
DA:83,0
DA:95,0
DA:101,0
DA:110,0
DA:116,0
DA:131,0
DA:132,0
DA:133,0
DA:134,0
DA:135,0
DA:185,0
DA:197,0
DA:198,0
DA:208,0
DA:209,0
DA:215,0
DA:217,0
DA:218,0
DA:219,0
DA:244,0
DA:245,0
DA:246,0
DA:247,0
DA:250,0
DA:251,0
DA:252,0
DA:253,0
DA:274,0
DA:275,0
DA:276,0
DA:277,0
DA:299,0
DA:300,0
DA:301,0
DA:302,0
DA:313,0
DA:327,0
DA:328,0
DA:340,0
DA:343,0
DA:347,0
DA:349,0
DA:350,0
DA:352,0
DA:354,0
DA:357,0
DA:369,0
DA:373,0
DA:377,0
DA:389,0
DA:390,0
DA:391,0
DA:393,0
DA:396,0
DA:399,0
DA:434,0
DA:435,0
DA:437,0
DA:438,0
DA:439,0
DA:445,0
DA:448,0
DA:449,0
DA:450,0
DA:499,0
DA:500,0
DA:521,0
DA:522,0
DA:523,0
DA:524,0
DA:549,0
DA:550,0
DA:575,0
DA:576,0
DA:577,0
DA:578,0
DA:619,0
DA:630,0
DA:631,0
DA:638,0
DA:640,0
DA:642,0
DA:643,0
DA:644,0
DA:646,0
DA:647,0
DA:676,0
DA:677,0
DA:785,0
DA:786,0
DA:789,0
DA:791,0
DA:810,0
DA:812,0
DA:813,0
DA:814,0
DA:815,0
DA:817,0
DA:818,0
DA:819,0
DA:820,0
DA:822,0
DA:823,0
DA:824,0
DA:825,0
DA:826,0
DA:836,0
DA:838,0
DA:848,0
DA:850,0
DA:853,0
DA:855,0
LF:112
LH:0
end_of_record
TN:
SF:/home/marabella/Desktop/C++/Projects/UniversalConverterToString/build/Coverage/_deps/gtest-src/googletest/include/gtest/gtest-message.h
FN:112,114,_ZN7testing7MessageC2ERKS0_
FN:117,119,_ZN7testing7MessageC2EPKc
FN:181,188,_ZN7testing7MessagelsIKcEERS0_RKPT_
FN:196,199,_ZN7testing7MessagelsEPFRSoS1_E
FN:202,202,_ZN7testing7MessagelsEb
FN:231,233,_ZN7testinglsERSoRKNS_7MessageE
FNDA:0,_ZN7testing7MessageC2ERKS0_
FNDA:0,_ZN7testing7MessageC2EPKc
FNDA:88,_ZN7testing7MessagelsIKcEERS0_RKPT_
FNDA:0,_ZN7testing7MessagelsEPFRSoS1_E
FNDA:0,_ZN7testing7MessagelsEb
FNDA:0,_ZN7testinglsERSoRKNS_7MessageE
FNF:6
FNH:1
DA:112,0
DA:113,0
DA:114,0
DA:117,0
DA:118,0
DA:119,0
DA:181,88
DA:182,88
DA:183,0
DA:185,88
DA:187,88
DA:196,0
DA:197,0
DA:198,0
DA:202,0
DA:231,0
DA:232,0
LF:17
LH:4
end_of_record
TN:
SF:/home/marabella/Desktop/C++/Projects/UniversalConverterToString/build/Coverage/_deps/gtest-src/googletest/include/gtest/gtest-param-test.h
FN:298,302,_ZN7testing8ValuesInISt19_Bit_const_iteratorEENS_8internal14ParamGeneratorINSt15iterator_traitsIT_E10value_typeEEES5_S5_
FN:310,313,_ZN7testing8ValuesInISt6vectorIbSaIbEEEENS_8internal14ParamGeneratorINT_10value_typeEEERKS6_
FN:336,338,_ZN7testing6ValuesIJbbEEENS_8internal10ValueArrayIJDpT_EEES4_
FN:360,360,_ZN7testing4BoolEv
FNDA:0,_ZN7testing8ValuesInISt19_Bit_const_iteratorEENS_8internal14ParamGeneratorINSt15iterator_traitsIT_E10value_typeEEES5_S5_
FNDA:0,_ZN7testing8ValuesInISt6vectorIbSaIbEEEENS_8internal14ParamGeneratorINT_10value_typeEEERKS6_
FNDA:0,_ZN7testing6ValuesIJbbEEENS_8internal10ValueArrayIJDpT_EEES4_
FNDA:0,_ZN7testing4BoolEv
FNF:4
FNH:0
DA:298,0
DA:301,0
DA:310,0
DA:312,0
DA:336,0
DA:337,0
DA:360,0
LF:7
LH:0
end_of_record
TN:
SF:/home/marabella/Desktop/C++/Projects/UniversalConverterToString/build/Coverage/_deps/gtest-src/googletest/include/gtest/gtest-printers.h
FN:1064,1066,_ZN7testing8internal21UniversalTersePrinterIxE5PrintERKxPSo
FN:1092,1098,_ZN7testing8internal21UniversalTersePrinterIPKcE5PrintES3_PSo
FN:1124,1130,_ZN7testing8internal21UniversalTersePrinterIPKDsE5PrintES3_PSo
FN:1139,1145,_ZN7testing8internal21UniversalTersePrinterIPKDiE5PrintES3_PSo
FN:1155,1161,_ZN7testing8internal21UniversalTersePrinterIPKwE5PrintES3_PSo
FN:1168,1170,_ZN7testing8internal21UniversalTersePrinterIPwE5PrintES2_PSo
FN:1183,1188,_ZN7testing8internal14UniversalPrintINSt7__cxx1112basic_stringIDiSt11char_traitsIDiESaIDiEEEEEvRKT_PSo
FN:1183,1188,_ZN7testing8internal14UniversalPrintINSt7__cxx1112basic_stringIDsSt11char_traitsIDsESaIDsEEEEEvRKT_PSo
FN:1183,1188,_ZN7testing8internal14UniversalPrintINSt7__cxx1112basic_stringIcSt11char_traitsIcESaIcEEEEEvRKT_PSo
FN:1183,1188,_ZN7testing8internal14UniversalPrintINSt7__cxx1112basic_stringIwSt11char_traitsIwESaIwEEEEEvRKT_PSo
FN:1183,1188,_ZN7testing8internal14UniversalPrintISt17basic_string_viewIcSt11char_traitsIcEEEEvRKT_PSo
FN:1183,1188,_ZN7testing8internal14UniversalPrintIxEEvRKT_PSo
FN:1223,1227,_ZN7testing13PrintToStringIPDiEENSt7__cxx1112basic_stringIcSt11char_traitsIcESaIcEEERKT_
FN:1223,1227,_ZN7testing13PrintToStringIPDsEENSt7__cxx1112basic_stringIcSt11char_traitsIcESaIcEEERKT_
FN:1223,1227,_ZN7testing13PrintToStringIPKDiEENSt7__cxx1112basic_stringIcSt11char_traitsIcESaIcEEERKT_
FN:1223,1227,_ZN7testing13PrintToStringIPKDsEENSt7__cxx1112basic_stringIcSt11char_traitsIcESaIcEEERKT_
FN:1223,1227,_ZN7testing13PrintToStringIPKcEENSt7__cxx1112basic_stringIcSt11char_traitsIcESaIcEEERKT_
FN:1223,1227,_ZN7testing13PrintToStringIPKwEENSt7__cxx1112basic_stringIcSt11char_traitsIcESaIcEEERKT_
FN:1223,1227,_ZN7testing13PrintToStringIPcEENSt7__cxx1112basic_stringIcSt11char_traitsIcESaIcEEERKT_
FN:1223,1227,_ZN7testing13PrintToStringIPwEENSt7__cxx1112basic_stringIcSt11char_traitsIcESaIcEEERKT_
FN:1223,1227,_ZN7testing13PrintToStringIxEENSt7__cxx1112basic_stringIcSt11char_traitsIcESaIcEEERKT_
FN:217,226,_ZN7testing8internal14PointerPrinter10PrintValueIKvEEvPT_PSo
FN:248,253,_ZN7testing8internal52internal_stream_operator_without_lexical_name_lookup13StreamPrinter10PrintValueIxvEEDTcvvlsdefp0_fp_ERKT_PSo
FN:284,286,_ZN7testing8internal27ConvertibleToIntegerPrinter10PrintValueExPSo
FN:291,293,_ZN7testing8internal30ConvertibleToStringViewPrinter10PrintValueESt17basic_string_viewIcSt11char_traitsIcEEPSo
FN:352,363,_ZN7testing8internal17PrintWithFallbackIPKvEEvRKT_PSo
FN:352,363,_ZN7testing8internal17PrintWithFallbackIxEEvRKT_PSo
FN:383,385,_ZN7testing8internal19FormatForComparisonIxxE6FormatB5cxx11ERKx
FN:436,436,_ZN7testing8internal19FormatForComparisonIPcNSt7__cxx1112basic_stringIcSt11char_traitsIcESaIcEEEE6FormatES2_
FN:437,437,_ZN7testing8internal19FormatForComparisonIPKcNSt7__cxx1112basic_stringIcSt11char_traitsIcESaIcEEEE6FormatES3_
FN:442,442,_ZN7testing8internal19FormatForComparisonIPDsNSt7__cxx1112basic_stringIDsSt11char_traitsIDsESaIDsEEEE6FormatES2_
FN:443,443,_ZN7testing8internal19FormatForComparisonIPKDsNSt7__cxx1112basic_stringIDsSt11char_traitsIDsESaIDsEEEE6FormatES3_
FN:444,444,_ZN7testing8internal19FormatForComparisonIPDiNSt7__cxx1112basic_stringIDiSt11char_traitsIDiESaIDiEEEE6FormatES2_
FN:445,445,_ZN7testing8internal19FormatForComparisonIPKDiNSt7__cxx1112basic_stringIDiSt11char_traitsIDiESaIDiEEEE6FormatES3_
FN:448,448,_ZN7testing8internal19FormatForComparisonIPwNSt7__cxx1112basic_stringIwSt11char_traitsIwESaIwEEEE6FormatES2_
FN:449,449,_ZN7testing8internal19FormatForComparisonIPKwNSt7__cxx1112basic_stringIwSt11char_traitsIwESaIwEEEE6FormatES3_
FN:463,466,_ZN7testing8internal33FormatForComparisonFailureMessageIxxEENSt7__cxx1112basic_stringIcSt11char_traitsIcESaIcEEERKT_RKT0_
FN:490,492,_ZN7testing8internal7PrintToIPKvEEvRKT_PSo
FN:490,492,_ZN7testing8internal7PrintToIxEEvRKT_PSo
FN:501,506,_ZN7testing8internal7PrintToEcPSo
FN:509,511,_ZN7testing8internal7PrintToEbPSo
FN:523,525,_ZN7testing8internal7PrintToEDsPSo
FN:555,617,_ZN7testing8internal21AppropriateResolutionIdEEiT_
FN:555,617,_ZN7testing8internal21AppropriateResolutionIfEEiT_
FN:619,624,_ZN7testing8internal7PrintToEfPSo
FN:626,631,_ZN7testing8internal7PrintToEdPSo
FN:635,637,_ZN7testing8internal7PrintToEPcPSo
FN:641,643,_ZN7testing8internal7PrintToEPKaPSo
FN:644,646,_ZN7testing8internal7PrintToEPaPSo
FN:647,649,_ZN7testing8internal7PrintToEPKhPSo
FN:650,652,_ZN7testing8internal7PrintToEPhPSo
FN:662,664,_ZN7testing8internal7PrintToEPDsPSo
FN:667,669,_ZN7testing8internal7PrintToEPDiPSo
FN:679,681,_ZN7testing8internal7PrintToEPwPSo
FN:700,702,_ZN7testing8internal7PrintToERKNSt7__cxx1112basic_stringIcSt11char_traitsIcESaIcEEEPSo
FN:714,716,_ZN7testing8internal7PrintToERKNSt7__cxx1112basic_stringIDsSt11char_traitsIDsESaIDsEEEPSo
FN:720,722,_ZN7testing8internal7PrintToERKNSt7__cxx1112basic_stringIDiSt11char_traitsIDiESaIDiEEEPSo
FN:727,729,_ZN7testing8internal7PrintToERKNSt7__cxx1112basic_stringIwSt11char_traitsIwESaIwEEEPSo
FN:734,736,_ZN7testing8internal7PrintToESt17basic_string_viewIcSt11char_traitsIcEEPSo
FN:739,739,_ZN7testing8internal7PrintToEDnPSo
FN:742,744,_ZN7testing8internal7PrintToERKSt9type_infoPSo
FN:752,752,_ZN7testing8internal14VoidifyPointerEPKv
FN:753,755,_ZN7testing8internal14VoidifyPointerEPVKv
FN:874,884,_ZN7testing8internal16UniversalPrinterINSt7__cxx1112basic_stringIDiSt11char_traitsIDiESaIDiEEEE5PrintERKS7_PSo
FN:874,884,_ZN7testing8internal16UniversalPrinterINSt7__cxx1112basic_stringIDsSt11char_traitsIDsESaIDsEEEE5PrintERKS7_PSo
FN:874,884,_ZN7testing8internal16UniversalPrinterINSt7__cxx1112basic_stringIcSt11char_traitsIcESaIcEEEE5PrintERKS7_PSo
FN:874,884,_ZN7testing8internal16UniversalPrinterINSt7__cxx1112basic_stringIwSt11char_traitsIwESaIwEEEE5PrintERKS7_PSo
FN:874,884,_ZN7testing8internal16UniversalPrinterISt17basic_string_viewIcSt11char_traitsIcEEE5PrintERKS5_PSo
FN:874,884,_ZN7testing8internal16UniversalPrinterIxE5PrintERKxPSo
FN:900,906,_ZN7testing8internal16UniversalPrinterISt3anyE5PrintERKS2_PSo
FN:909,916,_ZN7testing8internal16UniversalPrinterISt3anyE11GetTypeNameB5cxx11ERKS2_
FN:942,944,_ZN7testing8internal16UniversalPrinterISt9nullopt_tE5PrintES2_PSo
FNDA:0,_ZN7testing8internal21UniversalTersePrinterIxE5PrintERKxPSo
FNDA:0,_ZN7testing8internal21UniversalTersePrinterIPKcE5PrintES3_PSo
FNDA:0,_ZN7testing8internal21UniversalTersePrinterIPKDsE5PrintES3_PSo
FNDA:0,_ZN7testing8internal21UniversalTersePrinterIPKDiE5PrintES3_PSo
FNDA:0,_ZN7testing8internal21UniversalTersePrinterIPKwE5PrintES3_PSo
FNDA:0,_ZN7testing8internal21UniversalTersePrinterIPwE5PrintES2_PSo
FNDA:0,_ZN7testing8internal14UniversalPrintINSt7__cxx1112basic_stringIDiSt11char_traitsIDiESaIDiEEEEEvRKT_PSo
FNDA:0,_ZN7testing8internal14UniversalPrintINSt7__cxx1112basic_stringIDsSt11char_traitsIDsESaIDsEEEEEvRKT_PSo
FNDA:0,_ZN7testing8internal14UniversalPrintINSt7__cxx1112basic_stringIcSt11char_traitsIcESaIcEEEEEvRKT_PSo
FNDA:0,_ZN7testing8internal14UniversalPrintINSt7__cxx1112basic_stringIwSt11char_traitsIwESaIwEEEEEvRKT_PSo
FNDA:0,_ZN7testing8internal14UniversalPrintISt17basic_string_viewIcSt11char_traitsIcEEEEvRKT_PSo
FNDA:0,_ZN7testing8internal14UniversalPrintIxEEvRKT_PSo
FNDA:0,_ZN7testing13PrintToStringIPDiEENSt7__cxx1112basic_stringIcSt11char_traitsIcESaIcEEERKT_
FNDA:0,_ZN7testing13PrintToStringIPDsEENSt7__cxx1112basic_stringIcSt11char_traitsIcESaIcEEERKT_
FNDA:0,_ZN7testing13PrintToStringIPKDiEENSt7__cxx1112basic_stringIcSt11char_traitsIcESaIcEEERKT_
FNDA:0,_ZN7testing13PrintToStringIPKDsEENSt7__cxx1112basic_stringIcSt11char_traitsIcESaIcEEERKT_
FNDA:0,_ZN7testing13PrintToStringIPKcEENSt7__cxx1112basic_stringIcSt11char_traitsIcESaIcEEERKT_
FNDA:0,_ZN7testing13PrintToStringIPKwEENSt7__cxx1112basic_stringIcSt11char_traitsIcESaIcEEERKT_
FNDA:0,_ZN7testing13PrintToStringIPcEENSt7__cxx1112basic_stringIcSt11char_traitsIcESaIcEEERKT_
FNDA:0,_ZN7testing13PrintToStringIPwEENSt7__cxx1112basic_stringIcSt11char_traitsIcESaIcEEERKT_
FNDA:0,_ZN7testing13PrintToStringIxEENSt7__cxx1112basic_stringIcSt11char_traitsIcESaIcEEERKT_
FNDA:0,_ZN7testing8internal14PointerPrinter10PrintValueIKvEEvPT_PSo
FNDA:0,_ZN7testing8internal52internal_stream_operator_without_lexical_name_lookup13StreamPrinter10PrintValueIxvEEDTcvvlsdefp0_fp_ERKT_PSo
FNDA:0,_ZN7testing8internal27ConvertibleToIntegerPrinter10PrintValueExPSo
FNDA:0,_ZN7testing8internal30ConvertibleToStringViewPrinter10PrintValueESt17basic_string_viewIcSt11char_traitsIcEEPSo
FNDA:0,_ZN7testing8internal17PrintWithFallbackIPKvEEvRKT_PSo
FNDA:0,_ZN7testing8internal17PrintWithFallbackIxEEvRKT_PSo
FNDA:0,_ZN7testing8internal19FormatForComparisonIxxE6FormatB5cxx11ERKx
FNDA:0,_ZN7testing8internal19FormatForComparisonIPcNSt7__cxx1112basic_stringIcSt11char_traitsIcESaIcEEEE6FormatES2_
FNDA:0,_ZN7testing8internal19FormatForComparisonIPKcNSt7__cxx1112basic_stringIcSt11char_traitsIcESaIcEEEE6FormatES3_
FNDA:0,_ZN7testing8internal19FormatForComparisonIPDsNSt7__cxx1112basic_stringIDsSt11char_traitsIDsESaIDsEEEE6FormatES2_
FNDA:0,_ZN7testing8internal19FormatForComparisonIPKDsNSt7__cxx1112basic_stringIDsSt11char_traitsIDsESaIDsEEEE6FormatES3_
FNDA:0,_ZN7testing8internal19FormatForComparisonIPDiNSt7__cxx1112basic_stringIDiSt11char_traitsIDiESaIDiEEEE6FormatES2_
FNDA:0,_ZN7testing8internal19FormatForComparisonIPKDiNSt7__cxx1112basic_stringIDiSt11char_traitsIDiESaIDiEEEE6FormatES3_
FNDA:0,_ZN7testing8internal19FormatForComparisonIPwNSt7__cxx1112basic_stringIwSt11char_traitsIwESaIwEEEE6FormatES2_
FNDA:0,_ZN7testing8internal19FormatForComparisonIPKwNSt7__cxx1112basic_stringIwSt11char_traitsIwESaIwEEEE6FormatES3_
FNDA:0,_ZN7testing8internal33FormatForComparisonFailureMessageIxxEENSt7__cxx1112basic_stringIcSt11char_traitsIcESaIcEEERKT_RKT0_
FNDA:0,_ZN7testing8internal7PrintToIPKvEEvRKT_PSo
FNDA:0,_ZN7testing8internal7PrintToIxEEvRKT_PSo
FNDA:0,_ZN7testing8internal7PrintToEcPSo
FNDA:0,_ZN7testing8internal7PrintToEbPSo
FNDA:0,_ZN7testing8internal7PrintToEDsPSo
FNDA:0,_ZN7testing8internal21AppropriateResolutionIdEEiT_
FNDA:0,_ZN7testing8internal21AppropriateResolutionIfEEiT_
FNDA:0,_ZN7testing8internal7PrintToEfPSo
FNDA:0,_ZN7testing8internal7PrintToEdPSo
FNDA:0,_ZN7testing8internal7PrintToEPcPSo
FNDA:0,_ZN7testing8internal7PrintToEPKaPSo
FNDA:0,_ZN7testing8internal7PrintToEPaPSo
FNDA:0,_ZN7testing8internal7PrintToEPKhPSo
FNDA:0,_ZN7testing8internal7PrintToEPhPSo
FNDA:0,_ZN7testing8internal7PrintToEPDsPSo
FNDA:0,_ZN7testing8internal7PrintToEPDiPSo
FNDA:0,_ZN7testing8internal7PrintToEPwPSo
FNDA:0,_ZN7testing8internal7PrintToERKNSt7__cxx1112basic_stringIcSt11char_traitsIcESaIcEEEPSo
FNDA:0,_ZN7testing8internal7PrintToERKNSt7__cxx1112basic_stringIDsSt11char_traitsIDsESaIDsEEEPSo
FNDA:0,_ZN7testing8internal7PrintToERKNSt7__cxx1112basic_stringIDiSt11char_traitsIDiESaIDiEEEPSo
FNDA:0,_ZN7testing8internal7PrintToERKNSt7__cxx1112basic_stringIwSt11char_traitsIwESaIwEEEPSo
FNDA:0,_ZN7testing8internal7PrintToESt17basic_string_viewIcSt11char_traitsIcEEPSo
FNDA:0,_ZN7testing8internal7PrintToEDnPSo
FNDA:0,_ZN7testing8internal7PrintToERKSt9type_infoPSo
FNDA:0,_ZN7testing8internal14VoidifyPointerEPKv
FNDA:0,_ZN7testing8internal14VoidifyPointerEPVKv
FNDA:0,_ZN7testing8internal16UniversalPrinterINSt7__cxx1112basic_stringIDiSt11char_traitsIDiESaIDiEEEE5PrintERKS7_PSo
FNDA:0,_ZN7testing8internal16UniversalPrinterINSt7__cxx1112basic_stringIDsSt11char_traitsIDsESaIDsEEEE5PrintERKS7_PSo
FNDA:0,_ZN7testing8internal16UniversalPrinterINSt7__cxx1112basic_stringIcSt11char_traitsIcESaIcEEEE5PrintERKS7_PSo
FNDA:0,_ZN7testing8internal16UniversalPrinterINSt7__cxx1112basic_stringIwSt11char_traitsIwESaIwEEEE5PrintERKS7_PSo
FNDA:0,_ZN7testing8internal16UniversalPrinterISt17basic_string_viewIcSt11char_traitsIcEEE5PrintERKS5_PSo
FNDA:0,_ZN7testing8internal16UniversalPrinterIxE5PrintERKxPSo
FNDA:0,_ZN7testing8internal16UniversalPrinterISt3anyE5PrintERKS2_PSo
FNDA:0,_ZN7testing8internal16UniversalPrinterISt3anyE11GetTypeNameB5cxx11ERKS2_
FNDA:0,_ZN7testing8internal16UniversalPrinterISt9nullopt_tE5PrintES2_PSo
FNF:72
FNH:0
DA:217,0
DA:218,0
DA:219,0
DA:224,0
DA:226,0
DA:248,0
DA:252,0
DA:253,0
DA:284,0
DA:285,0
DA:286,0
DA:291,0
DA:292,0
DA:293,0
DA:352,0
DA:362,0
DA:363,0
DA:383,0
DA:384,0
DA:436,0
DA:437,0
DA:442,0
DA:443,0
DA:444,0
DA:445,0
DA:448,0
DA:449,0
DA:463,0
DA:465,0
DA:490,0
DA:491,0
DA:492,0
DA:501,0
DA:505,0
DA:506,0
DA:509,0
DA:510,0
DA:511,0
DA:523,0
DA:524,0
DA:525,0
DA:555,0
DA:556,0
DA:557,0
DA:563,0
DA:564,0
DA:568,0
DA:569,0
DA:570,0
DA:571,0
DA:572,0
DA:573,0
DA:574,0
DA:575,0
DA:576,0
DA:577,0
DA:578,0
DA:579,0
DA:580,0
DA:581,0
DA:582,0
DA:583,0
DA:584,0
DA:585,0
DA:586,0
DA:587,0
DA:589,0
DA:590,0
DA:593,0
DA:594,0
DA:595,0
DA:596,0
DA:597,0
DA:598,0
DA:600,0
DA:601,0
DA:603,0
DA:604,0
DA:605,0
DA:607,0
DA:608,0
DA:611,0
DA:616,0
DA:619,0
DA:620,0
DA:621,0
DA:622,0
DA:623,0
DA:624,0
DA:626,0
DA:627,0
DA:628,0
DA:629,0
DA:630,0
DA:631,0
DA:635,0
DA:636,0
DA:637,0
DA:641,0
DA:642,0
DA:643,0
DA:644,0
DA:645,0
DA:646,0
DA:647,0
DA:648,0
DA:649,0
DA:650,0
DA:651,0
DA:652,0
DA:662,0
DA:663,0
DA:664,0
DA:667,0
DA:668,0
DA:669,0
DA:679,0
DA:680,0
DA:681,0
DA:700,0
DA:701,0
DA:702,0
DA:714,0
DA:715,0
DA:716,0
DA:720,0
DA:721,0
DA:722,0
DA:727,0
DA:728,0
DA:729,0
DA:734,0
DA:735,0
DA:736,0
DA:739,0
DA:742,0
DA:743,0
DA:744,0
DA:752,0
DA:753,0
DA:754,0
DA:874,0
DA:883,0
DA:884,0
DA:900,0
DA:901,0
DA:902,0
DA:904,0
DA:906,0
DA:909,0
DA:911,0
DA:942,0
DA:943,0
DA:944,0
DA:1064,0
DA:1065,0
DA:1066,0
DA:1092,0
DA:1093,0
DA:1094,0
DA:1096,0
DA:1098,0
DA:1124,0
DA:1125,0
DA:1126,0
DA:1128,0
DA:1130,0
DA:1139,0
DA:1140,0
DA:1141,0
DA:1143,0
DA:1145,0
DA:1155,0
DA:1156,0
DA:1157,0
DA:1159,0
DA:1161,0
DA:1168,0
DA:1169,0
DA:1170,0
DA:1183,0
DA:1187,0
DA:1188,0
DA:1223,0
DA:1224,0
DA:1225,0
DA:1226,0
DA:1227,0
LF:188
LH:0
end_of_record
TN:
SF:/home/marabella/Desktop/C++/Projects/UniversalConverterToString/build/Coverage/_deps/gtest-src/googletest/include/gtest/gtest-test-part.h
FN:102,102,_ZNK7testing14TestPartResult17nonfatally_failedEv
FN:105,105,_ZNK7testing14TestPartResult14fatally_failedEv
FN:108,108,_ZNK7testing14TestPartResult6failedEv
FN:176,176,_ZNK7testing8internal24HasNewFatalFailureHelper21has_new_fatal_failureEv
FN:68,74,_ZN7testing14TestPartResultC2ENS0_4TypeEPKciS3_
FN:77,77,_ZNK7testing14TestPartResult4typeEv
FN:81,83,_ZNK7testing14TestPartResult9file_nameEv
FN:87,87,_ZNK7testing14TestPartResult11line_numberEv
FN:90,90,_ZNK7testing14TestPartResult7summaryEv
FN:93,93,_ZNK7testing14TestPartResult7messageEv
FN:96,96,_ZNK7testing14TestPartResult7skippedEv
FN:99,99,_ZNK7testing14TestPartResult6passedEv
FNDA:0,_ZNK7testing14TestPartResult17nonfatally_failedEv
FNDA:0,_ZNK7testing14TestPartResult14fatally_failedEv
FNDA:0,_ZNK7testing14TestPartResult6failedEv
FNDA:0,_ZNK7testing8internal24HasNewFatalFailureHelper21has_new_fatal_failureEv
FNDA:0,_ZN7testing14TestPartResultC2ENS0_4TypeEPKciS3_
FNDA:0,_ZNK7testing14TestPartResult4typeEv
FNDA:0,_ZNK7testing14TestPartResult9file_nameEv
FNDA:0,_ZNK7testing14TestPartResult11line_numberEv
FNDA:0,_ZNK7testing14TestPartResult7summaryEv
FNDA:0,_ZNK7testing14TestPartResult7messageEv
FNDA:0,_ZNK7testing14TestPartResult7skippedEv
FNDA:0,_ZNK7testing14TestPartResult6passedEv
FNF:12
FNH:0
DA:68,0
DA:70,0
DA:71,0
DA:72,0
DA:73,0
DA:74,0
DA:77,0
DA:81,0
DA:82,0
DA:87,0
DA:90,0
DA:93,0
DA:96,0
DA:99,0
DA:102,0
DA:105,0
DA:108,0
DA:176,0
LF:18
LH:0
end_of_record
TN:
SF:/home/marabella/Desktop/C++/Projects/UniversalConverterToString/build/Coverage/_deps/gtest-src/googletest/include/gtest/gtest.h
FN:1002,1002,_ZN7testing22EmptyTestEventListener15OnTestCaseStartERKNS_9TestSuiteE
FN:1005,1005,_ZN7testing22EmptyTestEventListener11OnTestStartERKNS_8TestInfoE
FN:1006,1006,_ZN7testing22EmptyTestEventListener14OnTestDisabledERKNS_8TestInfoE
FN:1007,1007,_ZN7testing22EmptyTestEventListener16OnTestPartResultERKNS_14TestPartResultE
FN:1008,1008,_ZN7testing22EmptyTestEventListener9OnTestEndERKNS_8TestInfoE
FN:1009,1009,_ZN7testing22EmptyTestEventListener14OnTestSuiteEndERKNS_9TestSuiteE
FN:1011,1011,_ZN7testing22EmptyTestEventListener13OnTestCaseEndERKNS_9TestSuiteE
FN:1014,1014,_ZN7testing22EmptyTestEventListener27OnEnvironmentsTearDownStartERKNS_8UnitTestE
FN:1015,1015,_ZN7testing22EmptyTestEventListener25OnEnvironmentsTearDownEndERKNS_8UnitTestE
FN:1016,1017,_ZN7testing22EmptyTestEventListener18OnTestIterationEndERKNS_8UnitTestEi
FN:1018,1018,_ZN7testing22EmptyTestEventListener16OnTestProgramEndERKNS_8UnitTestE
FN:1042,1044,_ZNK7testing18TestEventListeners22default_result_printerEv
FN:1053,1055,_ZNK7testing18TestEventListeners21default_xml_generatorEv
FN:1280,1280,_ZN7testing8UnitTest4implEv
FN:1281,1281,_ZNK7testing8UnitTest4implEv
FN:1345,1347,_ZN7testing24AddGlobalTestEnvironmentEPNS_11EnvironmentE
FN:1374,1380,_ZN7testing8internal18CmpHelperEQFailureIxxEENS_15AssertionResultEPKcS4_RKT_RKT0_
FN:1386,1386,_ZN7testing8internaleqENS0_8faketypeES1_
FN:1387,1387,_ZN7testing8internalneENS0_8faketypeES1_
FN:1391,1399,_ZN7testing8internal11CmpHelperEQIxxEENS_15AssertionResultEPKcS4_RKT_RKT0_
FN:1422,1426,_ZN7testing8internal8EqHelper7CompareEPKcS3_xx
FN:1632,1634,_ZN7testing8internal12AssertHelper16AssertHelperDataC2ENS_14TestPartResult4TypeEPKciS6_
FN:2084,2086,_ZN7testing11ScopedTraceC2EPKciS2_
FN:2088,2090,_ZN7testing11ScopedTraceC2EPKciRKNSt7__cxx1112basic_stringIcSt11char_traitsIcESaIcEEE
FN:2334,2334,_Z13RUN_ALL_TESTSv
FN:255,255,_ZN7testing4Test14SetUpTestSuiteEv
FN:263,263,_ZN7testing4Test17TearDownTestSuiteEv
FN:268,268,_ZN7testing4Test16TearDownTestCaseEv
FN:269,269,_ZN7testing4Test13SetUpTestCaseEv
FN:283,283,_ZN7testing4Test10HasFailureEv
FN:335,335,_ZN7testing4Test11DeleteSelf_Ev
FN:356,356,_ZN7testing4Test5SetupEv
FN:374,375,_ZN7testing12TestPropertyC2ERKNSt7__cxx1112basic_stringIcSt11char_traitsIcESaIcEEES8_
FN:378,378,_ZNK7testing12TestProperty3keyEv
FN:381,381,_ZNK7testing12TestProperty5valueEv
FN:384,384,_ZN7testing12TestProperty8SetValueERKNSt7__cxx1112basic_stringIcSt11char_traitsIcESaIcEEE
FN:415,415,_ZNK7testing10TestResult6PassedEv
FN:430,430,_ZNK7testing10TestResult12elapsed_timeEv
FN:434,434,_ZNK7testing10TestResult15start_timestampEv
FN:457,459,_ZNK7testing10TestResult17test_part_resultsEv
FN:462,464,_ZNK7testing10TestResult15test_propertiesEv
FN:467,467,_ZN7testing10TestResult19set_start_timestampEl
FN:470,470,_ZN7testing10TestResult16set_elapsed_timeEl
FN:491,491,_ZNK7testing10TestResult16death_test_countEv
FN:494,494,_ZN7testing10TestResult26increment_death_test_countEv
FN:540,540,_ZNK7testing8TestInfo15test_suite_nameEv
FN:544,544,_ZNK7testing8TestInfo14test_case_nameEv
FN:548,548,_ZNK7testing8TestInfo4nameEv
FN:552,555,_ZNK7testing8TestInfo10type_paramEv
FN:559,562,_ZNK7testing8TestInfo11value_paramEv
FN:565,565,_ZNK7testing8TestInfo4fileEv
FN:568,568,_ZNK7testing8TestInfo4lineEv
FN:571,571,_ZNK7testing8TestInfo19is_in_another_shardEv
FN:589,589,_ZNK7testing8TestInfo10should_runEv
FN:592,596,_ZNK7testing8TestInfo13is_reportableEv
FN:599,599,_ZNK7testing8TestInfo6resultEv
FN:627,629,_ZN7testing8TestInfo26increment_death_test_countEv
FN:638,640,_ZN7testing8TestInfo15ClearTestResultEPS0_
FN:694,694,_ZNK7testing9TestSuite4nameEv
FN:698,701,_ZNK7testing9TestSuite10type_paramEv
FN:704,704,_ZNK7testing9TestSuite10should_runEv
FN:731,731,_ZNK7testing9TestSuite6PassedEv
FN:734,736,_ZNK7testing9TestSuite6FailedEv
FN:739,739,_ZNK7testing9TestSuite12elapsed_timeEv
FN:743,743,_ZNK7testing9TestSuite15start_timestampEv
FN:751,751,_ZNK7testing9TestSuite18ad_hoc_test_resultEv
FN:758,758,_ZN7testing9TestSuite14test_info_listEv
FN:761,763,_ZNK7testing9TestSuite14test_info_listEv
FN:770,770,_ZN7testing9TestSuite14set_should_runEb
FN:780,782,_ZN7testing9TestSuite20ClearTestSuiteResultEPS0_
FN:792,796,_ZN7testing9TestSuite17RunSetUpTestSuiteEv
FN:800,804,_ZN7testing9TestSuite20RunTearDownTestSuiteEv
FN:807,809,_ZN7testing9TestSuite10TestPassedEPKNS_8TestInfoE
FN:812,814,_ZN7testing9TestSuite11TestSkippedEPKNS_8TestInfoE
FN:817,819,_ZN7testing9TestSuite10TestFailedEPKNS_8TestInfoE
FN:823,825,_ZN7testing9TestSuite22TestReportableDisabledEPKNS_8TestInfoE
FN:828,830,_ZN7testing9TestSuite12TestDisabledEPKNS_8TestInfoE
FN:833,835,_ZN7testing9TestSuite14TestReportableEPKNS_8TestInfoE
FN:838,840,_ZN7testing9TestSuite13ShouldRunTestEPKNS_8TestInfoE
FN:899,899,_ZN7testing11Environment5SetUpEv
FN:902,902,_ZN7testing11Environment8TearDownEv
FN:908,908,_ZN7testing11Environment5SetupEv
FN:917,918,_ZN7testing18AssertionExceptionC2ERKNS_14TestPartResultE
FN:945,945,_ZN7testing17TestEventListener16OnTestSuiteStartERKNS_9TestSuiteE
FN:949,949,_ZN7testing17TestEventListener15OnTestCaseStartERKNS_9TestSuiteE
FN:956,956,_ZN7testing17TestEventListener14OnTestDisabledERKNS_8TestInfoE
FN:967,967,_ZN7testing17TestEventListener14OnTestSuiteEndERKNS_9TestSuiteE
FN:971,971,_ZN7testing17TestEventListener13OnTestCaseEndERKNS_9TestSuiteE
FN:994,994,_ZN7testing22EmptyTestEventListener18OnTestProgramStartERKNS_8UnitTestE
FN:995,996,_ZN7testing22EmptyTestEventListener20OnTestIterationStartERKNS_8UnitTestEi
FN:997,997,_ZN7testing22EmptyTestEventListener24OnEnvironmentsSetUpStartERKNS_8UnitTestE
FN:998,998,_ZN7testing22EmptyTestEventListener22OnEnvironmentsSetUpEndERKNS_8UnitTestE
FN:999,999,_ZN7testing22EmptyTestEventListener16OnTestSuiteStartERKNS_9TestSuiteE
FNDA:0,_ZN7testing22EmptyTestEventListener15OnTestCaseStartERKNS_9TestSuiteE
FNDA:0,_ZN7testing22EmptyTestEventListener11OnTestStartERKNS_8TestInfoE
FNDA:0,_ZN7testing22EmptyTestEventListener14OnTestDisabledERKNS_8TestInfoE
FNDA:0,_ZN7testing22EmptyTestEventListener16OnTestPartResultERKNS_14TestPartResultE
FNDA:0,_ZN7testing22EmptyTestEventListener9OnTestEndERKNS_8TestInfoE
FNDA:0,_ZN7testing22EmptyTestEventListener14OnTestSuiteEndERKNS_9TestSuiteE
FNDA:0,_ZN7testing22EmptyTestEventListener13OnTestCaseEndERKNS_9TestSuiteE
FNDA:0,_ZN7testing22EmptyTestEventListener27OnEnvironmentsTearDownStartERKNS_8UnitTestE
FNDA:0,_ZN7testing22EmptyTestEventListener25OnEnvironmentsTearDownEndERKNS_8UnitTestE
FNDA:0,_ZN7testing22EmptyTestEventListener18OnTestIterationEndERKNS_8UnitTestEi
FNDA:0,_ZN7testing22EmptyTestEventListener16OnTestProgramEndERKNS_8UnitTestE
FNDA:0,_ZNK7testing18TestEventListeners22default_result_printerEv
FNDA:0,_ZNK7testing18TestEventListeners21default_xml_generatorEv
FNDA:635,_ZN7testing8UnitTest4implEv
FNDA:18,_ZNK7testing8UnitTest4implEv
FNDA:0,_ZN7testing24AddGlobalTestEnvironmentEPNS_11EnvironmentE
FNDA:0,_ZN7testing8internal18CmpHelperEQFailureIxxEENS_15AssertionResultEPKcS4_RKT_RKT0_
FNDA:0,_ZN7testing8internaleqENS0_8faketypeES1_
FNDA:0,_ZN7testing8internalneENS0_8faketypeES1_
FNDA:0,_ZN7testing8internal11CmpHelperEQIxxEENS_15AssertionResultEPKcS4_RKT_RKT0_
FNDA:0,_ZN7testing8internal8EqHelper7CompareEPKcS3_xx
FNDA:0,_ZN7testing8internal12AssertHelper16AssertHelperDataC2ENS_14TestPartResult4TypeEPKciS6_
FNDA:0,_ZN7testing11ScopedTraceC2EPKciS2_
FNDA:0,_ZN7testing11ScopedTraceC2EPKciRKNSt7__cxx1112basic_stringIcSt11char_traitsIcESaIcEEE
FNDA:4,_Z13RUN_ALL_TESTSv
FNDA:0,_ZN7testing4Test14SetUpTestSuiteEv
FNDA:0,_ZN7testing4Test17TearDownTestSuiteEv
FNDA:0,_ZN7testing4Test16TearDownTestCaseEv
FNDA:0,_ZN7testing4Test13SetUpTestCaseEv
FNDA:0,_ZN7testing4Test10HasFailureEv
FNDA:36,_ZN7testing4Test11DeleteSelf_Ev
FNDA:0,_ZN7testing4Test5SetupEv
FNDA:0,_ZN7testing12TestPropertyC2ERKNSt7__cxx1112basic_stringIcSt11char_traitsIcESaIcEEES8_
FNDA:0,_ZNK7testing12TestProperty3keyEv
FNDA:0,_ZNK7testing12TestProperty5valueEv
FNDA:0,_ZN7testing12TestProperty8SetValueERKNSt7__cxx1112basic_stringIcSt11char_traitsIcESaIcEEE
FNDA:72,_ZNK7testing10TestResult6PassedEv
FNDA:36,_ZNK7testing10TestResult12elapsed_timeEv
FNDA:0,_ZNK7testing10TestResult15start_timestampEv
FNDA:0,_ZNK7testing10TestResult17test_part_resultsEv
FNDA:0,_ZNK7testing10TestResult15test_propertiesEv
FNDA:36,_ZN7testing10TestResult19set_start_timestampEl
FNDA:36,_ZN7testing10TestResult16set_elapsed_timeEl
FNDA:0,_ZNK7testing10TestResult16death_test_countEv
FNDA:0,_ZN7testing10TestResult26increment_death_test_countEv
FNDA:72,_ZNK7testing8TestInfo15test_suite_nameEv
FNDA:0,_ZNK7testing8TestInfo14test_case_nameEv
FNDA:180,_ZNK7testing8TestInfo4nameEv
FNDA:72,_ZNK7testing8TestInfo10type_paramEv
FNDA:36,_ZNK7testing8TestInfo11value_paramEv
FNDA:120,_ZNK7testing8TestInfo4fileEv
FNDA:120,_ZNK7testing8TestInfo4lineEv
FNDA:0,_ZNK7testing8TestInfo19is_in_another_shardEv
FNDA:288,_ZNK7testing8TestInfo10should_runEv
FNDA:36,_ZNK7testing8TestInfo13is_reportableEv
FNDA:252,_ZNK7testing8TestInfo6resultEv
FNDA:0,_ZN7testing8TestInfo26increment_death_test_countEv
FNDA:36,_ZN7testing8TestInfo15ClearTestResultEPS0_
FNDA:21,_ZNK7testing9TestSuite4nameEv
FNDA:14,_ZNK7testing9TestSuite10type_paramEv
FNDA:100,_ZNK7testing9TestSuite10should_runEv
FNDA:0,_ZNK7testing9TestSuite6PassedEv
FNDA:14,_ZNK7testing9TestSuite6FailedEv
FNDA:7,_ZNK7testing9TestSuite12elapsed_timeEv
FNDA:0,_ZNK7testing9TestSuite15start_timestampEv
FNDA:28,_ZNK7testing9TestSuite18ad_hoc_test_resultEv
FNDA:95,_ZN7testing9TestSuite14test_info_listEv
FNDA:36,_ZNK7testing9TestSuite14test_info_listEv
FNDA:86,_ZN7testing9TestSuite14set_should_runEb
FNDA:7,_ZN7testing9TestSuite20ClearTestSuiteResultEPS0_
FNDA:7,_ZN7testing9TestSuite17RunSetUpTestSuiteEv
FNDA:7,_ZN7testing9TestSuite20RunTearDownTestSuiteEv
FNDA:36,_ZN7testing9TestSuite10TestPassedEPKNS_8TestInfoE
FNDA:36,_ZN7testing9TestSuite11TestSkippedEPKNS_8TestInfoE
FNDA:72,_ZN7testing9TestSuite10TestFailedEPKNS_8TestInfoE
FNDA:36,_ZN7testing9TestSuite22TestReportableDisabledEPKNS_8TestInfoE
FNDA:0,_ZN7testing9TestSuite12TestDisabledEPKNS_8TestInfoE
FNDA:0,_ZN7testing9TestSuite14TestReportableEPKNS_8TestInfoE
FNDA:144,_ZN7testing9TestSuite13ShouldRunTestEPKNS_8TestInfoE
FNDA:0,_ZN7testing11Environment5SetUpEv
FNDA:0,_ZN7testing11Environment8TearDownEv
FNDA:0,_ZN7testing11Environment5SetupEv
FNDA:0,_ZN7testing18AssertionExceptionC2ERKNS_14TestPartResultE
FNDA:7,_ZN7testing17TestEventListener16OnTestSuiteStartERKNS_9TestSuiteE
FNDA:0,_ZN7testing17TestEventListener15OnTestCaseStartERKNS_9TestSuiteE
FNDA:0,_ZN7testing17TestEventListener14OnTestDisabledERKNS_8TestInfoE
FNDA:7,_ZN7testing17TestEventListener14OnTestSuiteEndERKNS_9TestSuiteE
FNDA:0,_ZN7testing17TestEventListener13OnTestCaseEndERKNS_9TestSuiteE
FNDA:0,_ZN7testing22EmptyTestEventListener18OnTestProgramStartERKNS_8UnitTestE
FNDA:0,_ZN7testing22EmptyTestEventListener20OnTestIterationStartERKNS_8UnitTestEi
FNDA:0,_ZN7testing22EmptyTestEventListener24OnEnvironmentsSetUpStartERKNS_8UnitTestE
FNDA:0,_ZN7testing22EmptyTestEventListener22OnEnvironmentsSetUpEndERKNS_8UnitTestE
FNDA:0,_ZN7testing22EmptyTestEventListener16OnTestSuiteStartERKNS_9TestSuiteE
FNF:93
FNH:37
DA:255,0
DA:263,0
DA:268,0
DA:269,0
DA:283,0
DA:335,36
DA:356,0
DA:374,0
DA:375,0
DA:378,0
DA:381,0
DA:384,0
DA:415,72
DA:430,36
DA:434,0
DA:457,0
DA:458,0
DA:462,0
DA:463,0
DA:467,36
DA:470,36
DA:491,0
DA:494,0
DA:540,72
DA:544,0
DA:548,180
DA:552,72
DA:553,72
DA:554,72
DA:559,36
DA:560,36
DA:561,36
DA:565,120
DA:568,120
DA:571,0
DA:589,288
DA:592,36
DA:595,36
DA:599,252
DA:627,0
DA:628,0
DA:638,36
DA:639,36
DA:640,36
DA:694,21
DA:698,14
DA:699,14
DA:700,14
DA:704,100
DA:731,0
DA:734,14
DA:735,14
DA:739,7
DA:743,0
DA:751,28
DA:758,95
DA:761,36
DA:762,36
DA:770,86
DA:780,7
DA:781,7
DA:782,7
DA:792,7
DA:793,7
DA:794,0
DA:796,7
DA:800,7
DA:801,7
DA:802,0
DA:804,7
DA:807,36
DA:808,36
DA:812,36
DA:813,36
DA:817,72
DA:818,72
DA:823,36
DA:824,36
DA:828,0
DA:829,0
DA:833,0
DA:834,0
DA:838,144
DA:839,144
DA:899,0
DA:902,0
DA:908,0
DA:917,0
DA:918,0
DA:945,7
DA:949,0
DA:956,0
DA:967,7
DA:971,0
DA:994,0
DA:995,0
DA:996,0
DA:997,0
DA:998,0
DA:999,0
DA:1002,0
DA:1005,0
DA:1006,0
DA:1007,0
DA:1008,0
DA:1009,0
DA:1011,0
DA:1014,0
DA:1015,0
DA:1016,0
DA:1017,0
DA:1018,0
DA:1042,0
DA:1043,0
DA:1053,0
DA:1054,0
DA:1280,635
DA:1281,18
DA:1345,0
DA:1346,0
DA:1374,0
DA:1379,0
DA:1386,0
DA:1387,0
DA:1391,0
DA:1394,0
DA:1395,0
DA:1398,0
DA:1422,0
DA:1425,0
DA:1632,0
DA:1634,0
DA:2084,0
DA:2085,0
DA:2086,0
DA:2088,0
DA:2089,0
DA:2090,0
DA:2334,4
LF:139
LH:59
end_of_record
TN:
SF:/home/marabella/Desktop/C++/Projects/UniversalConverterToString/build/Coverage/_deps/gtest-src/googletest/include/gtest/internal/gtest-death-test-internal.h
FN:117,117,_ZN7testing8internal9DeathTest14ReturnSentinelC2EPS1_
FN:118,118,_ZN7testing8internal9DeathTest14ReturnSentinelD2Ev
FN:273,275,_ZN7testing8internal24InternalRunDeathTestFlagC2ERKNSt7__cxx1112basic_stringIcSt11char_traitsIcESaIcEEEiii
FN:277,279,_ZN7testing8internal24InternalRunDeathTestFlagD2Ev
FN:281,281,_ZNK7testing8internal24InternalRunDeathTestFlag4fileB5cxx11Ev
FN:282,282,_ZNK7testing8internal24InternalRunDeathTestFlag4lineEv
FN:283,283,_ZNK7testing8internal24InternalRunDeathTestFlag5indexEv
FN:284,284,_ZNK7testing8internal24InternalRunDeathTestFlag8write_fdEv
FN:62,65,_ZN7testing8internal20MakeDeathTestMatcherB5cxx11ENS0_2REE
FN:66,68,_ZN7testing8internal20MakeDeathTestMatcherB5cxx11EPKc
FN:69,72,_ZN7testing8internal20MakeDeathTestMatcherERKNSt7__cxx1112basic_stringIcSt11char_traitsIcESaIcEEE
FN:76,79,_ZN7testing8internal20MakeDeathTestMatcherENS_7MatcherIRKNSt7__cxx1112basic_stringIcSt11char_traitsIcESaIcEEEEE
FNDA:0,_ZN7testing8internal9DeathTest14ReturnSentinelC2EPS1_
FNDA:0,_ZN7testing8internal9DeathTest14ReturnSentinelD2Ev
FNDA:0,_ZN7testing8internal24InternalRunDeathTestFlagC2ERKNSt7__cxx1112basic_stringIcSt11char_traitsIcESaIcEEEiii
FNDA:0,_ZN7testing8internal24InternalRunDeathTestFlagD2Ev
FNDA:0,_ZNK7testing8internal24InternalRunDeathTestFlag4fileB5cxx11Ev
FNDA:0,_ZNK7testing8internal24InternalRunDeathTestFlag4lineEv
FNDA:0,_ZNK7testing8internal24InternalRunDeathTestFlag5indexEv
FNDA:0,_ZNK7testing8internal24InternalRunDeathTestFlag8write_fdEv
FNDA:0,_ZN7testing8internal20MakeDeathTestMatcherB5cxx11ENS0_2REE
FNDA:0,_ZN7testing8internal20MakeDeathTestMatcherB5cxx11EPKc
FNDA:0,_ZN7testing8internal20MakeDeathTestMatcherERKNSt7__cxx1112basic_stringIcSt11char_traitsIcESaIcEEE
FNDA:0,_ZN7testing8internal20MakeDeathTestMatcherENS_7MatcherIRKNSt7__cxx1112basic_stringIcSt11char_traitsIcESaIcEEEEE
FNF:12
FNH:0
DA:62,0
DA:64,0
DA:66,0
DA:67,0
DA:69,0
DA:71,0
DA:76,0
DA:78,0
DA:117,0
DA:118,0
DA:273,0
DA:275,0
DA:277,0
DA:278,0
DA:279,0
DA:281,0
DA:282,0
DA:283,0
DA:284,0
LF:19
LH:0
end_of_record
TN:
SF:/home/marabella/Desktop/C++/Projects/UniversalConverterToString/build/Coverage/_deps/gtest-src/googletest/include/gtest/internal/gtest-filepath.h
FN:124,124,_ZNK7testing8internal8FilePath7IsEmptyEv
FN:72,72,_ZN7testing8internal8FilePathC2Ev
FN:73,73,_ZN7testing8internal8FilePathC2ERKS1_
FN:74,74,_ZN7testing8internal8FilePathC2EOS1_
FN:76,78,_ZN7testing8internal8FilePathC2ENSt7__cxx1112basic_stringIcSt11char_traitsIcESaIcEEE
FN:80,83,_ZN7testing8internal8FilePathaSERKS1_
FN:84,87,_ZN7testing8internal8FilePathaSEOS1_
FN:89,89,_ZN7testing8internal8FilePath3SetERKS1_
FN:91,91,_ZNK7testing8internal8FilePath6stringB5cxx11Ev
FN:92,92,_ZNK7testing8internal8FilePath5c_strEv
FNDA:76,_ZNK7testing8internal8FilePath7IsEmptyEv
FNDA:4,_ZN7testing8internal8FilePathC2Ev
FNDA:0,_ZN7testing8internal8FilePathC2ERKS1_
FNDA:0,_ZN7testing8internal8FilePathC2EOS1_
FNDA:4,_ZN7testing8internal8FilePathC2ENSt7__cxx1112basic_stringIcSt11char_traitsIcESaIcEEE
FNDA:0,_ZN7testing8internal8FilePathaSERKS1_
FNDA:4,_ZN7testing8internal8FilePathaSEOS1_
FNDA:0,_ZN7testing8internal8FilePath3SetERKS1_
FNDA:0,_ZNK7testing8internal8FilePath6stringB5cxx11Ev
FNDA:0,_ZNK7testing8internal8FilePath5c_strEv
FNF:10
FNH:4
DA:72,12
DA:73,0
DA:74,0
DA:76,4
DA:77,4
DA:78,4
DA:80,0
DA:81,0
DA:82,0
DA:84,4
DA:85,4
DA:86,4
DA:89,0
DA:91,0
DA:92,0
DA:124,76
LF:16
LH:8
end_of_record
TN:
SF:/home/marabella/Desktop/C++/Projects/UniversalConverterToString/build/Coverage/_deps/gtest-src/googletest/include/gtest/internal/gtest-internal.h
FN:1163,1164,_ZN7testing8internal17FlatTupleElemBaseINS0_9FlatTupleIJbbEEELm0EEC2IbEENS0_21FlatTupleConstructTagEOT_
FN:1163,1164,_ZN7testing8internal17FlatTupleElemBaseINS0_9FlatTupleIJbbEEELm1EEC2IbEENS0_21FlatTupleConstructTagEOT_
FN:1177,1179,_ZN7testing8internal13FlatTupleBaseINS0_9FlatTupleIJbbEEESt16integer_sequenceImJLm0ELm1EEEEC2IJbbEEENS0_21FlatTupleConstructTagEDpOT_
FN:1182,1184,_ZNK7testing8internal13FlatTupleBaseINS0_9FlatTupleIJbbEEESt16integer_sequenceImJLm0ELm1EEEE3GetILm0EEERKNS0_12ElemFromListIXT_EJbbEE4typeEv
FN:1182,1184,_ZNK7testing8internal13FlatTupleBaseINS0_9FlatTupleIJbbEEESt16integer_sequenceImJLm0ELm1EEEE3GetILm1EEERKNS0_12ElemFromListIXT_EJbbEE4typeEv
FN:1222,1223,_ZN7testing8internal9FlatTupleIJbbEEC2IJbbEEENS0_21FlatTupleConstructTagEDpOT_
FN:1234,1236,_ZN7testing8internal34InstantiateTestCase_P_IsDeprecatedEv
FN:1241,1243,_ZN7testing8internal28TypedTestCase_P_IsDeprecatedEv
FN:1248,1250,_ZN7testing8internal25TypedTestCaseIsDeprecatedEv
FN:1255,1257,_ZN7testing8internal36RegisterTypedTestCase_P_IsDeprecatedEv
FN:1262,1264,_ZN7testing8internal39InstantiateTypedTestCase_P_IsDeprecatedEv
FN:1322,1324,_ZNK7testing8internal11NeverThrown4whatEv
FN:429,429,_ZN7testing8internal15TestFactoryBaseD0Ev
FN:429,429,_ZN7testing8internal15TestFactoryBaseD2Ev
FN:436,436,_ZN7testing8internal15TestFactoryBaseC2Ev
FN:448,448,_ZN7testing8internal15TestFactoryImplI29IsConstructible_CStrings_TestE10CreateTestEv
FN:448,448,_ZN7testing8internal15TestFactoryImplI29IsConstructible_NullptrT_TestE10CreateTestEv
FN:448,448,_ZN7testing8internal15TestFactoryImplI35IsConstructible_StringWiewLike_TestE10CreateTestEv
FN:448,448,_ZN7testing8internal15TestFactoryImplI38IsConstructible_NotSupportedTypes_TestE10CreateTestEv
FN:448,448,_ZN7testing8internal15TestFactoryImplI39UniversalConverterTest_BooleanType_TestE10CreateTestEv
FN:448,448,_ZN7testing8internal15TestFactoryImplI40IsConstructible_InitializerListChar_TestE10CreateTestEv
FN:448,448,_ZN7testing8internal15TestFactoryImplI40UniversalConverterTest_IntegerTypes_TestE10CreateTestEv
FN:448,448,_ZN7testing8internal15TestFactoryImplI41HasOstreamOperator_NotSupportedTypes_TestE10CreateTestEv
FN:448,448,_ZN7testing8internal15TestFactoryImplI42IsConvertibleToBase_NotSupportedTypes_TestE10CreateTestEv
FN:448,448,_ZN7testing8internal15TestFactoryImplI42IsConvertibleToBase_PublicInheritance_TestE10CreateTestEv
FN:448,448,_ZN7testing8internal15TestFactoryImplI42UniversalConverterTest_DegenerateCase_TestE10CreateTestEv
FN:448,448,_ZN7testing8internal15TestFactoryImplI43IsConvertibleToBase_PrivateInheritance_TestE10CreateTestEv
FN:448,448,_ZN7testing8internal15TestFactoryImplI43IsToStringCompatible_DifferentRefTypes_TestE10CreateTestEv
FN:448,448,_ZN7testing8internal15TestFactoryImplI44IsConstructible_ImplicitlyConstructible_TestE10CreateTestEv
FN:448,448,_ZN7testing8internal15TestFactoryImplI44IsConvertibleToString_NotSupportedTypes_TestE10CreateTestEv
FN:448,448,_ZN7testing8internal15TestFactoryImplI45IsConvertibleToBase_ProtectedInheritance_TestE10CreateTestEv
FN:448,448,_ZN7testing8internal15TestFactoryImplI45UniversalConverterTest_NotSupportedTypes_TestE10CreateTestEv
FN:448,448,_ZN7testing8internal15TestFactoryImplI46IsConvertibleToString_SupportedTypesCheck_TestE10CreateTestEv
FN:448,448,_ZN7testing8internal15TestFactoryImplI46UniversalConverterTest_ConstructibleTypes_TestE10CreateTestEv
FN:448,448,_ZN7testing8internal15TestFactoryImplI48IsConvertibleToBase_RaisingCastIsNotAllowed_TestE10CreateTestEv
FN:448,448,_ZN7testing8internal15TestFactoryImplI49HasOstreamOperator_WithoutOutputOperatorCase_TestE10CreateTestEv
FN:448,448,_ZN7testing8internal15TestFactoryImplI50IsToStringCompatible_ExplicitlySupportedTypes_TestE10CreateTestEv
FN:448,448,_ZN7testing8internal15TestFactoryImplI50IsToStringCompatible_ImplicitlySupportedTypes_TestE10CreateTestEv
FN:448,448,_ZN7testing8internal15TestFactoryImplI51UniversalConverterTest_FloatingPointTypesBasic_TestE10CreateTestEv
FN:448,448,_ZN7testing8internal15TestFactoryImplI52HasToStringConversionOperator_NotSupportedTypes_TestE10CreateTestEv
FN:448,448,_ZN7testing8internal15TestFactoryImplI53HasOstreamOperator_WithDefaultOutputOperatorCase_TestE10CreateTestEv
FN:448,448,_ZN7testing8internal15TestFactoryImplI53UniversalConverterTest_SpecialConstructibleTypes_TestE10CreateTestEv
FN:448,448,_ZN7testing8internal15TestFactoryImplI54UniversalConverterTest_FloatingPointTypesExtremes_TestE10CreateTestEv
FN:448,448,_ZN7testing8internal15TestFactoryImplI55IsConvertibleToBase_InheritanceWithConvertOperator_TestE10CreateTestEv
FN:448,448,_ZN7testing8internal15TestFactoryImplI56HasOstreamOperator_WithOutputOperatorReturnVoidCase_TestE10CreateTestEv
FN:448,448,_ZN7testing8internal15TestFactoryImplI56IsConvertibleToString_AdditionalSupportedTypesCheck_TestE10CreateTestEv
FN:448,448,_ZN7testing8internal15TestFactoryImplI61HasToStringConversionOperator_WithoutConvertOperatorCase_TestE10CreateTestEv
FN:448,448,_ZN7testing8internal15TestFactoryImplI65HasToStringConversionOperator_WithDefaultConvertOperatorCase_TestE10CreateTestEv
FN:448,448,_ZN7testing8internal15TestFactoryImplI66HasOstreamOperator_WithOutputOperatorTakeValueByLvalueRefCase_TestE10CreateTestEv
FN:448,448,_ZN7testing8internal15TestFactoryImplI66HasToStringConversionOperator_WithExplicitConvertOperatorCase_TestE10CreateTestEv
FN:448,448,_ZN7testing8internal15TestFactoryImplI70HasToStringConversionOperator_WithRefQualifiedConvertOperatorCase_TestE10CreateTestEv
FN:469,470,_ZN7testing8internal12CodeLocationC2ENSt7__cxx1112basic_stringIcSt11char_traitsIcESaIcEEEi
FN:482,485,_ZN7testing8internal19GetNotDefaultOrNullEPFvvES2_
FN:497,516,_ZN7testing8internal16SuiteApiResolverINS_4TestEE19GetSetUpCaseOrSuiteEPKci
FN:518,537,_ZN7testing8internal16SuiteApiResolverINS_4TestEE22GetTearDownCaseOrSuiteEPKci
FN:575,575,_ZN7testing8internal20TypedTestSuitePStateC2Ev
FN:580,592,_ZN7testing8internal20TypedTestSuitePState11AddTestNameEPKciS3_S3_
FN:594,596,_ZNK7testing8internal20TypedTestSuitePState10TestExistsERKNSt7__cxx1112basic_stringIcSt11char_traitsIcESaIcEEE
FN:598,602,_ZNK7testing8internal20TypedTestSuitePState15GetCodeLocationERKNSt7__cxx1112basic_stringIcSt11char_traitsIcESaIcEEE
FN:627,635,_ZN7testing8internal9SkipCommaEPKc
FN:639,642,_ZN7testing8internal19GetPrefixUntilCommaB5cxx11EPKc
FN:815,815,_ZN7testing8internal11AlwaysFalseEv
FN:821,821,_ZN7testing8internal12ConstCharPtrC2EPKc
FN:822,822,_ZNK7testing8internal12ConstCharPtrcvbEv
FN:830,830,_ZN7testing8internal14TrueWithStringC2EPKc
FN:831,831,_ZN7testing8internal14TrueWithStringC2ERKNSt7__cxx1112basic_stringIcSt11char_traitsIcESaIcEEE
FN:832,832,_ZNK7testing8internal14TrueWithStringcvbEv
FN:845,845,_ZN7testing8internal6RandomC2Ej
FN:847,847,_ZN7testing8internal6Random6ReseedEj
FNDA:0,_ZN7testing8internal17FlatTupleElemBaseINS0_9FlatTupleIJbbEEELm0EEC2IbEENS0_21FlatTupleConstructTagEOT_
FNDA:0,_ZN7testing8internal17FlatTupleElemBaseINS0_9FlatTupleIJbbEEELm1EEC2IbEENS0_21FlatTupleConstructTagEOT_
FNDA:0,_ZN7testing8internal13FlatTupleBaseINS0_9FlatTupleIJbbEEESt16integer_sequenceImJLm0ELm1EEEEC2IJbbEEENS0_21FlatTupleConstructTagEDpOT_
FNDA:0,_ZNK7testing8internal13FlatTupleBaseINS0_9FlatTupleIJbbEEESt16integer_sequenceImJLm0ELm1EEEE3GetILm0EEERKNS0_12ElemFromListIXT_EJbbEE4typeEv
FNDA:0,_ZNK7testing8internal13FlatTupleBaseINS0_9FlatTupleIJbbEEESt16integer_sequenceImJLm0ELm1EEEE3GetILm1EEERKNS0_12ElemFromListIXT_EJbbEE4typeEv
FNDA:0,_ZN7testing8internal9FlatTupleIJbbEEC2IJbbEEENS0_21FlatTupleConstructTagEDpOT_
FNDA:0,_ZN7testing8internal34InstantiateTestCase_P_IsDeprecatedEv
FNDA:0,_ZN7testing8internal28TypedTestCase_P_IsDeprecatedEv
FNDA:0,_ZN7testing8internal25TypedTestCaseIsDeprecatedEv
FNDA:0,_ZN7testing8internal36RegisterTypedTestCase_P_IsDeprecatedEv
FNDA:0,_ZN7testing8internal39InstantiateTypedTestCase_P_IsDeprecatedEv
FNDA:0,_ZNK7testing8internal11NeverThrown4whatEv
FNDA:0,_ZN7testing8internal15TestFactoryBaseD0Ev
FNDA:72,_ZN7testing8internal15TestFactoryBaseD2Ev
FNDA:72,_ZN7testing8internal15TestFactoryBaseC2Ev
FNDA:1,_ZN7testing8internal15TestFactoryImplI29IsConstructible_CStrings_TestE10CreateTestEv
FNDA:1,_ZN7testing8internal15TestFactoryImplI29IsConstructible_NullptrT_TestE10CreateTestEv
FNDA:1,_ZN7testing8internal15TestFactoryImplI35IsConstructible_StringWiewLike_TestE10CreateTestEv
FNDA:1,_ZN7testing8internal15TestFactoryImplI38IsConstructible_NotSupportedTypes_TestE10CreateTestEv
FNDA:1,_ZN7testing8internal15TestFactoryImplI39UniversalConverterTest_BooleanType_TestE10CreateTestEv
FNDA:1,_ZN7testing8internal15TestFactoryImplI40IsConstructible_InitializerListChar_TestE10CreateTestEv
FNDA:1,_ZN7testing8internal15TestFactoryImplI40UniversalConverterTest_IntegerTypes_TestE10CreateTestEv
FNDA:1,_ZN7testing8internal15TestFactoryImplI41HasOstreamOperator_NotSupportedTypes_TestE10CreateTestEv
FNDA:1,_ZN7testing8internal15TestFactoryImplI42IsConvertibleToBase_NotSupportedTypes_TestE10CreateTestEv
FNDA:1,_ZN7testing8internal15TestFactoryImplI42IsConvertibleToBase_PublicInheritance_TestE10CreateTestEv
FNDA:1,_ZN7testing8internal15TestFactoryImplI42UniversalConverterTest_DegenerateCase_TestE10CreateTestEv
FNDA:1,_ZN7testing8internal15TestFactoryImplI43IsConvertibleToBase_PrivateInheritance_TestE10CreateTestEv
FNDA:1,_ZN7testing8internal15TestFactoryImplI43IsToStringCompatible_DifferentRefTypes_TestE10CreateTestEv
FNDA:1,_ZN7testing8internal15TestFactoryImplI44IsConstructible_ImplicitlyConstructible_TestE10CreateTestEv
FNDA:1,_ZN7testing8internal15TestFactoryImplI44IsConvertibleToString_NotSupportedTypes_TestE10CreateTestEv
FNDA:1,_ZN7testing8internal15TestFactoryImplI45IsConvertibleToBase_ProtectedInheritance_TestE10CreateTestEv
FNDA:1,_ZN7testing8internal15TestFactoryImplI45UniversalConverterTest_NotSupportedTypes_TestE10CreateTestEv
FNDA:1,_ZN7testing8internal15TestFactoryImplI46IsConvertibleToString_SupportedTypesCheck_TestE10CreateTestEv
FNDA:1,_ZN7testing8internal15TestFactoryImplI46UniversalConverterTest_ConstructibleTypes_TestE10CreateTestEv
FNDA:1,_ZN7testing8internal15TestFactoryImplI48IsConvertibleToBase_RaisingCastIsNotAllowed_TestE10CreateTestEv
FNDA:1,_ZN7testing8internal15TestFactoryImplI49HasOstreamOperator_WithoutOutputOperatorCase_TestE10CreateTestEv
FNDA:1,_ZN7testing8internal15TestFactoryImplI50IsToStringCompatible_ExplicitlySupportedTypes_TestE10CreateTestEv
FNDA:1,_ZN7testing8internal15TestFactoryImplI50IsToStringCompatible_ImplicitlySupportedTypes_TestE10CreateTestEv
FNDA:1,_ZN7testing8internal15TestFactoryImplI51UniversalConverterTest_FloatingPointTypesBasic_TestE10CreateTestEv
FNDA:1,_ZN7testing8internal15TestFactoryImplI52HasToStringConversionOperator_NotSupportedTypes_TestE10CreateTestEv
FNDA:1,_ZN7testing8internal15TestFactoryImplI53HasOstreamOperator_WithDefaultOutputOperatorCase_TestE10CreateTestEv
FNDA:1,_ZN7testing8internal15TestFactoryImplI53UniversalConverterTest_SpecialConstructibleTypes_TestE10CreateTestEv
FNDA:1,_ZN7testing8internal15TestFactoryImplI54UniversalConverterTest_FloatingPointTypesExtremes_TestE10CreateTestEv
FNDA:1,_ZN7testing8internal15TestFactoryImplI55IsConvertibleToBase_InheritanceWithConvertOperator_TestE10CreateTestEv
FNDA:1,_ZN7testing8internal15TestFactoryImplI56HasOstreamOperator_WithOutputOperatorReturnVoidCase_TestE10CreateTestEv
FNDA:1,_ZN7testing8internal15TestFactoryImplI56IsConvertibleToString_AdditionalSupportedTypesCheck_TestE10CreateTestEv
FNDA:1,_ZN7testing8internal15TestFactoryImplI61HasToStringConversionOperator_WithoutConvertOperatorCase_TestE10CreateTestEv
FNDA:1,_ZN7testing8internal15TestFactoryImplI65HasToStringConversionOperator_WithDefaultConvertOperatorCase_TestE10CreateTestEv
FNDA:1,_ZN7testing8internal15TestFactoryImplI66HasOstreamOperator_WithOutputOperatorTakeValueByLvalueRefCase_TestE10CreateTestEv
FNDA:1,_ZN7testing8internal15TestFactoryImplI66HasToStringConversionOperator_WithExplicitConvertOperatorCase_TestE10CreateTestEv
FNDA:1,_ZN7testing8internal15TestFactoryImplI70HasToStringConversionOperator_WithRefQualifiedConvertOperatorCase_TestE10CreateTestEv
FNDA:72,_ZN7testing8internal12CodeLocationC2ENSt7__cxx1112basic_stringIcSt11char_traitsIcESaIcEEEi
FNDA:288,_ZN7testing8internal19GetNotDefaultOrNullEPFvvES2_
FNDA:72,_ZN7testing8internal16SuiteApiResolverINS_4TestEE19GetSetUpCaseOrSuiteEPKci
FNDA:72,_ZN7testing8internal16SuiteApiResolverINS_4TestEE22GetTearDownCaseOrSuiteEPKci
FNDA:0,_ZN7testing8internal20TypedTestSuitePStateC2Ev
FNDA:0,_ZN7testing8internal20TypedTestSuitePState11AddTestNameEPKciS3_S3_
FNDA:0,_ZNK7testing8internal20TypedTestSuitePState10TestExistsERKNSt7__cxx1112basic_stringIcSt11char_traitsIcESaIcEEE
FNDA:0,_ZNK7testing8internal20TypedTestSuitePState15GetCodeLocationERKNSt7__cxx1112basic_stringIcSt11char_traitsIcESaIcEEE
FNDA:0,_ZN7testing8internal9SkipCommaEPKc
FNDA:0,_ZN7testing8internal19GetPrefixUntilCommaB5cxx11EPKc
FNDA:0,_ZN7testing8internal11AlwaysFalseEv
FNDA:0,_ZN7testing8internal12ConstCharPtrC2EPKc
FNDA:0,_ZNK7testing8internal12ConstCharPtrcvbEv
FNDA:0,_ZN7testing8internal14TrueWithStringC2EPKc
FNDA:0,_ZN7testing8internal14TrueWithStringC2ERKNSt7__cxx1112basic_stringIcSt11char_traitsIcESaIcEEE
FNDA:0,_ZNK7testing8internal14TrueWithStringcvbEv
FNDA:4,_ZN7testing8internal6RandomC2Ej
FNDA:0,_ZN7testing8internal6Random6ReseedEj
FNF:69
FNH:43
DA:429,72
DA:436,72
DA:448,36
DA:469,72
DA:470,72
DA:482,288
DA:484,288
DA:497,72
DA:501,72
DA:503,72
DA:505,72
DA:508,0
DA:510,72
DA:518,72
DA:522,72
DA:524,72
DA:526,72
DA:529,0
DA:531,72
DA:575,0
DA:580,0
DA:582,0
DA:583,0
DA:586,0
DA:587,0
DA:588,0
DA:590,0
DA:591,0
DA:594,0
DA:595,0
DA:598,0
DA:599,0
DA:600,0
DA:601,0
DA:627,0
DA:628,0
DA:629,0
DA:630,0
DA:632,0
DA:634,0
DA:639,0
DA:640,0
DA:641,0
DA:815,0
DA:821,0
DA:822,0
DA:830,0
DA:831,0
DA:832,0
DA:845,4
DA:847,0
DA:1163,0
DA:1164,0
DA:1177,0
DA:1179,0
DA:1182,0
DA:1183,0
DA:1222,0
DA:1223,0
DA:1234,0
DA:1235,0
DA:1241,0
DA:1242,0
DA:1248,0
DA:1249,0
DA:1255,0
DA:1256,0
DA:1262,0
DA:1263,0
DA:1322,0
DA:1323,0
LF:71
LH:18
end_of_record
TN:
SF:/home/marabella/Desktop/C++/Projects/UniversalConverterToString/build/Coverage/_deps/gtest-src/googletest/include/gtest/internal/gtest-param-util.h
FN:102,102,_ZN7testing8internal22ParamIteratorInterfaceIbED0Ev
FN:102,102,_ZN7testing8internal22ParamIteratorInterfaceIbED2Ev
FN:176,176,_ZN7testing8internal23ParamGeneratorInterfaceIbED0Ev
FN:176,176,_ZN7testing8internal23ParamGeneratorInterfaceIbED2Ev
FN:193,193,_ZN7testing8internal14ParamGeneratorIbEC2EPNS0_23ParamGeneratorInterfaceIbEE
FN:302,303,_ZN7testing8internal30ValuesInIteratorRangeGeneratorIbEC2ISt19_Bit_const_iteratorEET_S5_
FN:304,304,_ZN7testing8internal30ValuesInIteratorRangeGeneratorIbED0Ev
FN:304,304,_ZN7testing8internal30ValuesInIteratorRangeGeneratorIbED2Ev
FN:306,308,_ZNK7testing8internal30ValuesInIteratorRangeGeneratorIbE5BeginEv
FN:309,311,_ZNK7testing8internal30ValuesInIteratorRangeGeneratorIbE3EndEv
FN:318,320,_ZN7testing8internal30ValuesInIteratorRangeGeneratorIbE8IteratorC2EPKNS0_23ParamGeneratorInterfaceIbEESt19_Bit_const_iterator
FN:321,321,_ZN7testing8internal30ValuesInIteratorRangeGeneratorIbE8IteratorD0Ev
FN:321,321,_ZN7testing8internal30ValuesInIteratorRangeGeneratorIbE8IteratorD2Ev
FN:323,325,_ZNK7testing8internal30ValuesInIteratorRangeGeneratorIbE8Iterator13BaseGeneratorEv
FN:326,329,_ZN7testing8internal30ValuesInIteratorRangeGeneratorIbE8Iterator7AdvanceEv
FN:330,332,_ZNK7testing8internal30ValuesInIteratorRangeGeneratorIbE8Iterator5CloneEv
FN:340,343,_ZNK7testing8internal30ValuesInIteratorRangeGeneratorIbE8Iterator7CurrentEv
FN:344,352,_ZNK7testing8internal30ValuesInIteratorRangeGeneratorIbE8Iterator6EqualsERKNS0_22ParamIteratorInterfaceIbEE
FN:355,360,_ZN7testing8internal30ValuesInIteratorRangeGeneratorIbE8IteratorC2ERKS3_
FN:465,465,_ZN7testing8internal30ParameterizedTestSuiteInfoBaseD0Ev
FN:465,465,_ZN7testing8internal30ParameterizedTestSuiteInfoBaseD2Ev
FN:478,478,_ZN7testing8internal30ParameterizedTestSuiteInfoBaseC2Ev
FN:694,698,_ZN7testing8internal30ParameterizedTestSuiteRegistryD2Ev
FN:734,738,_ZN7testing8internal30ParameterizedTestSuiteRegistry13RegisterTestsEv
FN:780,781,_ZN7testing8internal34TypeParameterizedTestSuiteRegistry30TypeParameterizedTestSuiteInfoC2ENS0_12CodeLocationE
FN:806,806,_ZN7testing8internal10ValueArrayIJbbEEC2Ebb
FN:809,811,_ZNK7testing8internal10ValueArrayIJbbEEcvNS0_14ParamGeneratorIT_EEIbEEv
FN:815,817,_ZNK7testing8internal10ValueArrayIJbbEE10MakeVectorIbJLm0ELm1EEEESt6vectorIT_SaIS5_EESt16integer_sequenceImJXspT0_EEE
FNDA:0,_ZN7testing8internal22ParamIteratorInterfaceIbED0Ev
FNDA:0,_ZN7testing8internal22ParamIteratorInterfaceIbED2Ev
FNDA:0,_ZN7testing8internal23ParamGeneratorInterfaceIbED0Ev
FNDA:0,_ZN7testing8internal23ParamGeneratorInterfaceIbED2Ev
FNDA:0,_ZN7testing8internal14ParamGeneratorIbEC2EPNS0_23ParamGeneratorInterfaceIbEE
FNDA:0,_ZN7testing8internal30ValuesInIteratorRangeGeneratorIbEC2ISt19_Bit_const_iteratorEET_S5_
FNDA:0,_ZN7testing8internal30ValuesInIteratorRangeGeneratorIbED0Ev
FNDA:0,_ZN7testing8internal30ValuesInIteratorRangeGeneratorIbED2Ev
FNDA:0,_ZNK7testing8internal30ValuesInIteratorRangeGeneratorIbE5BeginEv
FNDA:0,_ZNK7testing8internal30ValuesInIteratorRangeGeneratorIbE3EndEv
FNDA:0,_ZN7testing8internal30ValuesInIteratorRangeGeneratorIbE8IteratorC2EPKNS0_23ParamGeneratorInterfaceIbEESt19_Bit_const_iterator
FNDA:0,_ZN7testing8internal30ValuesInIteratorRangeGeneratorIbE8IteratorD0Ev
FNDA:0,_ZN7testing8internal30ValuesInIteratorRangeGeneratorIbE8IteratorD2Ev
FNDA:0,_ZNK7testing8internal30ValuesInIteratorRangeGeneratorIbE8Iterator13BaseGeneratorEv
FNDA:0,_ZN7testing8internal30ValuesInIteratorRangeGeneratorIbE8Iterator7AdvanceEv
FNDA:0,_ZNK7testing8internal30ValuesInIteratorRangeGeneratorIbE8Iterator5CloneEv
FNDA:0,_ZNK7testing8internal30ValuesInIteratorRangeGeneratorIbE8Iterator7CurrentEv
FNDA:0,_ZNK7testing8internal30ValuesInIteratorRangeGeneratorIbE8Iterator6EqualsERKNS0_22ParamIteratorInterfaceIbEE
FNDA:0,_ZN7testing8internal30ValuesInIteratorRangeGeneratorIbE8IteratorC2ERKS3_
FNDA:0,_ZN7testing8internal30ParameterizedTestSuiteInfoBaseD0Ev
FNDA:0,_ZN7testing8internal30ParameterizedTestSuiteInfoBaseD2Ev
FNDA:0,_ZN7testing8internal30ParameterizedTestSuiteInfoBaseC2Ev
FNDA:4,_ZN7testing8internal30ParameterizedTestSuiteRegistryD2Ev
FNDA:4,_ZN7testing8internal30ParameterizedTestSuiteRegistry13RegisterTestsEv
FNDA:0,_ZN7testing8internal34TypeParameterizedTestSuiteRegistry30TypeParameterizedTestSuiteInfoC2ENS0_12CodeLocationE
FNDA:0,_ZN7testing8internal10ValueArrayIJbbEEC2Ebb
FNDA:0,_ZNK7testing8internal10ValueArrayIJbbEEcvNS0_14ParamGeneratorIT_EEIbEEv
FNDA:0,_ZNK7testing8internal10ValueArrayIJbbEE10MakeVectorIbJLm0ELm1EEEESt6vectorIT_SaIS5_EESt16integer_sequenceImJXspT0_EEE
FNF:28
FNH:2
DA:102,0
DA:176,0
DA:193,0
DA:302,0
DA:303,0
DA:304,0
DA:306,0
DA:307,0
DA:309,0
DA:310,0
DA:318,0
DA:320,0
DA:321,0
DA:323,0
DA:324,0
DA:326,0
DA:327,0
DA:328,0
DA:329,0
DA:330,0
DA:331,0
DA:340,0
DA:341,0
DA:342,0
DA:344,0
DA:347,0
DA:349,0
DA:350,0
DA:351,0
DA:355,0
DA:359,0
DA:360,0
DA:465,0
DA:478,0
DA:694,4
DA:695,4
DA:696,0
DA:698,4
DA:734,4
DA:735,4
DA:736,0
DA:738,4
DA:780,0
DA:781,0
DA:806,0
DA:809,0
DA:810,0
DA:815,0
DA:816,0
LF:49
LH:6
end_of_record
TN:
SF:/home/marabella/Desktop/C++/Projects/UniversalConverterToString/build/Coverage/_deps/gtest-src/googletest/include/gtest/internal/gtest-port.h
FN:1050,1050,_ZN7testing8internal8GTestLog9GetStreamEv
FN:1066,1066,_ZN7testing8internal11LogToStderrEv
FN:1067,1067,_ZN7testing8internal12FlushInfoLogEv
FN:1148,1150,_ZN7testing8internal13ImplicitCast_IDiEET_S2_
FN:1148,1150,_ZN7testing8internal13ImplicitCast_IPKDiEET_S4_
FN:1148,1150,_ZN7testing8internal13ImplicitCast_IPKDsEET_S4_
FN:1148,1150,_ZN7testing8internal13ImplicitCast_IPKcEET_S4_
FN:1148,1150,_ZN7testing8internal13ImplicitCast_IPKvEET_S4_
FN:1148,1150,_ZN7testing8internal13ImplicitCast_IPKwEET_S4_
FN:1158,1165,_ZN7testing8internal27CheckedDowncastToActualTypeIKNS0_30ValuesInIteratorRangeGeneratorIbE8IteratorEKNS0_22ParamIteratorInterfaceIbEEEEPT_PT0_
FN:1252,1252,_ZN7testing8internal12NotificationC2Ev
FN:1258,1262,_ZN7testing8internal12Notification6NotifyEv
FN:1266,1269,_ZN7testing8internal12Notification19WaitForNotificationEv
FN:1268,1268,_ZZN7testing8internal12Notification19WaitForNotificationEvENKUlvE_clEv
FN:1301,1304,ThreadFuncWithCLinkage
FN:1657,1661,_ZN7testing8internal9MutexBase4LockEv
FN:1664,1671,_ZN7testing8internal9MutexBase6UnlockEv
FN:1675,1678,_ZNK7testing8internal9MutexBase10AssertHeldEv
FN:1714,1717,_ZN7testing8internal5MutexC2Ev
FN:1718,1718,_ZN7testing8internal5MutexD2Ev
FN:1732,1732,_ZN7testing8internal14GTestMutexLockC2EPNS0_9MutexBaseE
FN:1734,1734,_ZN7testing8internal14GTestMutexLockD2Ev
FN:1753,1753,_ZN7testing8internal26ThreadLocalValueHolderBaseD0Ev
FN:1753,1753,_ZN7testing8internal26ThreadLocalValueHolderBaseD2Ev
FN:1758,1760,DeleteThreadLocalValue
FN:1937,1939,_ZN7testing8internal7IsAlphaEc
FN:1940,1942,_ZN7testing8internal7IsAlNumEc
FN:1943,1945,_ZN7testing8internal7IsDigitEc
FN:1946,1948,_ZN7testing8internal7IsLowerEc
FN:1949,1951,_ZN7testing8internal7IsSpaceEc
FN:1952,1954,_ZN7testing8internal7IsUpperEc
FN:1955,1957,_ZN7testing8internal8IsXDigitEc
FN:1963,1966,_ZN7testing8internal8IsXDigitEDs
FN:1967,1970,_ZN7testing8internal8IsXDigitEDi
FN:1971,1974,_ZN7testing8internal8IsXDigitEw
FN:1976,1978,_ZN7testing8internal7ToLowerEc
FN:1979,1981,_ZN7testing8internal7ToUpperEc
FN:1983,1987,_ZN7testing8internal19StripTrailingSpacesENSt7__cxx1112basic_stringIcSt11char_traitsIcESaIcEEE
FN:2035,2035,_ZN7testing8internal5posix6FileNoEP8_IO_FILE
FN:2037,2037,_ZN7testing8internal5posix4StatEPKcP4stat
FN:2042,2042,_ZN7testing8internal5posix5RmDirEPKc
FN:2044,2044,_ZN7testing8internal5posix5IsDirERK4stat
FN:2073,2073,_ZN7testing8internal5posix8DoIsATTYEi
FN:2074,2076,_ZN7testing8internal5posix10StrCaseCmpEPKcS3_
FN:2080,2089,_ZN7testing8internal5posix6IsATTYEi
FN:2103,2103,_ZN7testing8internal5posix5ChDirEPKc
FN:2105,2115,_ZN7testing8internal5posix5FOpenEPKcS3_
FN:2117,2119,_ZN7testing8internal5posix7FReopenEPKcS3_P8_IO_FILE
FN:2120,2120,_ZN7testing8internal5posix6FDOpenEiPKc
FN:2122,2122,_ZN7testing8internal5posix6FCloseEP8_IO_FILE
FN:2124,2126,_ZN7testing8internal5posix4ReadEiPvj
FN:2127,2129,_ZN7testing8internal5posix5WriteEiPKvj
FN:2130,2130,_ZN7testing8internal5posix5CloseEi
FN:2135,2135,_ZN7testing8internal5posix8StrErrorEi
FN:2138,2153,_ZN7testing8internal5posix6GetEnvEPKc
FN:2163,2163,_ZN7testing8internal5posix5AbortEv
FN:2393,2393,_ZN7testing8internal7NulloptEv
FN:978,978,_ZN7testing8internal2REC2ERKS1_
FN:981,981,_ZN7testing8internal2REC2ERKNSt7__cxx1112basic_stringIcSt11char_traitsIcESaIcEEE
FN:983,983,_ZN7testing8internal2REC2EPKc
FN:987,987,_ZNK7testing8internal2RE7patternEv
FN:993,995,_ZN7testing8internal2RE9FullMatchERKNSt7__cxx1112basic_stringIcSt11char_traitsIcESaIcEEERKS1_
FN:996,998,_ZN7testing8internal2RE12PartialMatchERKNSt7__cxx1112basic_stringIcSt11char_traitsIcESaIcEEERKS1_
FNDA:0,_ZN7testing8internal8GTestLog9GetStreamEv
FNDA:0,_ZN7testing8internal11LogToStderrEv
FNDA:0,_ZN7testing8internal12FlushInfoLogEv
FNDA:0,_ZN7testing8internal13ImplicitCast_IDiEET_S2_
FNDA:0,_ZN7testing8internal13ImplicitCast_IPKDiEET_S4_
FNDA:0,_ZN7testing8internal13ImplicitCast_IPKDsEET_S4_
FNDA:0,_ZN7testing8internal13ImplicitCast_IPKcEET_S4_
FNDA:0,_ZN7testing8internal13ImplicitCast_IPKvEET_S4_
FNDA:0,_ZN7testing8internal13ImplicitCast_IPKwEET_S4_
FNDA:0,_ZN7testing8internal27CheckedDowncastToActualTypeIKNS0_30ValuesInIteratorRangeGeneratorIbE8IteratorEKNS0_22ParamIteratorInterfaceIbEEEEPT_PT0_
FNDA:0,_ZN7testing8internal12NotificationC2Ev
FNDA:0,_ZN7testing8internal12Notification6NotifyEv
FNDA:0,_ZN7testing8internal12Notification19WaitForNotificationEv
FNDA:0,_ZZN7testing8internal12Notification19WaitForNotificationEvENKUlvE_clEv
FNDA:0,ThreadFuncWithCLinkage
FNDA:86,_ZN7testing8internal9MutexBase4LockEv
FNDA:86,_ZN7testing8internal9MutexBase6UnlockEv
FNDA:0,_ZNK7testing8internal9MutexBase10AssertHeldEv
FNDA:98,_ZN7testing8internal5MutexC2Ev
FNDA:98,_ZN7testing8internal5MutexD2Ev
FNDA:86,_ZN7testing8internal14GTestMutexLockC2EPNS0_9MutexBaseE
FNDA:86,_ZN7testing8internal14GTestMutexLockD2Ev
FNDA:0,_ZN7testing8internal26ThreadLocalValueHolderBaseD0Ev
FNDA:0,_ZN7testing8internal26ThreadLocalValueHolderBaseD2Ev
FNDA:8,DeleteThreadLocalValue
FNDA:0,_ZN7testing8internal7IsAlphaEc
FNDA:0,_ZN7testing8internal7IsAlNumEc
FNDA:0,_ZN7testing8internal7IsDigitEc
FNDA:0,_ZN7testing8internal7IsLowerEc
FNDA:0,_ZN7testing8internal7IsSpaceEc
FNDA:0,_ZN7testing8internal7IsUpperEc
FNDA:0,_ZN7testing8internal8IsXDigitEc
FNDA:0,_ZN7testing8internal8IsXDigitEDs
FNDA:0,_ZN7testing8internal8IsXDigitEDi
FNDA:0,_ZN7testing8internal8IsXDigitEw
FNDA:0,_ZN7testing8internal7ToLowerEc
FNDA:1768,_ZN7testing8internal7ToUpperEc
FNDA:0,_ZN7testing8internal19StripTrailingSpacesENSt7__cxx1112basic_stringIcSt11char_traitsIcESaIcEEE
FNDA:2,_ZN7testing8internal5posix6FileNoEP8_IO_FILE
FNDA:0,_ZN7testing8internal5posix4StatEPKcP4stat
FNDA:0,_ZN7testing8internal5posix5RmDirEPKc
FNDA:0,_ZN7testing8internal5posix5IsDirERK4stat
FNDA:2,_ZN7testing8internal5posix8DoIsATTYEi
FNDA:4,_ZN7testing8internal5posix10StrCaseCmpEPKcS3_
FNDA:2,_ZN7testing8internal5posix6IsATTYEi
FNDA:0,_ZN7testing8internal5posix5ChDirEPKc
FNDA:0,_ZN7testing8internal5posix5FOpenEPKcS3_
FNDA:0,_ZN7testing8internal5posix7FReopenEPKcS3_P8_IO_FILE
FNDA:0,_ZN7testing8internal5posix6FDOpenEiPKc
FNDA:0,_ZN7testing8internal5posix6FCloseEP8_IO_FILE
FNDA:0,_ZN7testing8internal5posix4ReadEiPvj
FNDA:0,_ZN7testing8internal5posix5WriteEiPKvj
FNDA:0,_ZN7testing8internal5posix5CloseEi
FNDA:0,_ZN7testing8internal5posix8StrErrorEi
FNDA:122,_ZN7testing8internal5posix6GetEnvEPKc
FNDA:0,_ZN7testing8internal5posix5AbortEv
FNDA:0,_ZN7testing8internal7NulloptEv
FNDA:0,_ZN7testing8internal2REC2ERKS1_
FNDA:0,_ZN7testing8internal2REC2ERKNSt7__cxx1112basic_stringIcSt11char_traitsIcESaIcEEE
FNDA:0,_ZN7testing8internal2REC2EPKc
FNDA:0,_ZNK7testing8internal2RE7patternEv
FNDA:0,_ZN7testing8internal2RE9FullMatchERKNSt7__cxx1112basic_stringIcSt11char_traitsIcESaIcEEERKS1_
FNDA:0,_ZN7testing8internal2RE12PartialMatchERKNSt7__cxx1112basic_stringIcSt11char_traitsIcESaIcEEERKS1_
FNF:63
FNH:13
DA:978,0
DA:981,0
DA:983,0
DA:987,0
DA:993,0
DA:994,0
DA:996,0
DA:997,0
DA:1050,0
DA:1066,0
DA:1067,0
DA:1148,0
DA:1149,0
DA:1158,0
DA:1162,0
DA:1164,0
DA:1252,0
DA:1258,0
DA:1259,0
DA:1260,0
DA:1261,0
DA:1262,0
DA:1266,0
DA:1267,0
DA:1268,0
DA:1269,0
DA:1301,0
DA:1302,0
DA:1303,0
DA:1657,86
DA:1658,86
DA:1659,86
DA:1660,86
DA:1661,86
DA:1664,86
DA:1669,86
DA:1670,86
DA:1671,86
DA:1675,0
DA:1676,0
DA:1677,0
DA:1678,0
DA:1714,98
DA:1715,98
DA:1716,98
DA:1717,98
DA:1718,98
DA:1732,86
DA:1734,86
DA:1753,0
DA:1758,8
DA:1759,8
DA:1760,8
DA:1937,0
DA:1938,0
DA:1940,0
DA:1941,0
DA:1943,0
DA:1944,0
DA:1946,0
DA:1947,0
DA:1949,0
DA:1950,0
DA:1952,0
DA:1953,0
DA:1955,0
DA:1956,0
DA:1963,0
DA:1964,0
DA:1965,0
DA:1967,0
DA:1968,0
DA:1969,0
DA:1971,0
DA:1972,0
DA:1973,0
DA:1976,0
DA:1977,0
DA:1979,1768
DA:1980,1768
DA:1983,0
DA:1984,0
DA:1985,0
DA:1986,0
DA:2035,2
DA:2037,0
DA:2042,0
DA:2044,0
DA:2073,2
DA:2074,4
DA:2075,4
DA:2080,2
DA:2084,2
DA:2085,2
DA:2086,2
DA:2088,2
DA:2103,0
DA:2105,0
DA:2113,0
DA:2117,0
DA:2118,0
DA:2120,0
DA:2122,0
DA:2124,0
DA:2125,0
DA:2127,0
DA:2128,0
DA:2130,0
DA:2135,0
DA:2138,122
DA:2151,122
DA:2163,0
DA:2393,0
LF:113
LH:32
end_of_record
TN:
SF:/home/marabella/Desktop/C++/Projects/UniversalConverterToString/build/Coverage/_deps/gtest-src/googletest/include/gtest/internal/gtest-type-util.h
FN:61,87,_ZN7testing8internal31CanonicalizeForStdLibVersioningENSt7__cxx1112basic_stringIcSt11char_traitsIcESaIcEEE
FN:91,121,_ZN7testing8internal11GetTypeNameB5cxx11ERKSt9type_info
FNDA:0,_ZN7testing8internal31CanonicalizeForStdLibVersioningENSt7__cxx1112basic_stringIcSt11char_traitsIcESaIcEEE
FNDA:0,_ZN7testing8internal11GetTypeNameB5cxx11ERKSt9type_info
FNF:2
FNH:0
DA:61,0
DA:63,0
DA:64,0
DA:65,0
DA:67,0
DA:74,0
DA:75,0
DA:78,0
DA:79,0
DA:80,0
DA:83,0
DA:84,0
DA:86,0
DA:91,0
DA:92,0
DA:94,0
DA:100,0
DA:101,0
DA:102,0
DA:103,0
DA:121,0
LF:21
LH:0
end_of_record
TN:
SF:/home/marabella/Desktop/C++/Projects/UniversalConverterToString/src/UniversalConverterToString/universal_converter_to_string.cpp
FN:5,7,_ZNK11dev_toolkit4ucts30InvalidTypeConversionException4whatEv
FNDA:4,_ZNK11dev_toolkit4ucts30InvalidTypeConversionException4whatEv
FNF:1
FNH:1
DA:5,4
DA:6,4
LF:2
LH:2
end_of_record
TN:
SF:/home/marabella/Desktop/C++/Projects/UniversalConverterToString/src/UniversalConverterToString/universal_converter_to_string.h
FN:30,58,_ZN11dev_toolkit4ucts29universal_converter_to_stringI17DerivedFromStringEENSt7__cxx1112basic_stringIcSt11char_traitsIcESaIcEEEOT_
FN:30,58,_ZN11dev_toolkit4ucts29universal_converter_to_stringI18WithOutputOperatorEENSt7__cxx1112basic_stringIcSt11char_traitsIcESaIcEEEOT_
FN:30,58,_ZN11dev_toolkit4ucts29universal_converter_to_stringI19WithConvertOperatorEENSt7__cxx1112basic_stringIcSt11char_traitsIcESaIcEEEOT_
FN:30,58,_ZN11dev_toolkit4ucts29universal_converter_to_stringI27WithExplicitConvertOperatorEENSt7__cxx1112basic_stringIcSt11char_traitsIcESaIcEEEOT_
FN:30,58,_ZN11dev_toolkit4ucts29universal_converter_to_stringI36DerivedFromStringWithConvertOperatorEENSt7__cxx1112basic_stringIcSt11char_traitsIcESaIcEEEOT_
FN:30,58,_ZN11dev_toolkit4ucts29universal_converter_to_stringIDnEENSt7__cxx1112basic_stringIcSt11char_traitsIcESaIcEEEOT_
FN:30,58,_ZN11dev_toolkit4ucts29universal_converter_to_stringINSt7__cxx1112basic_stringIcSt11char_traitsIcESaIcEEEEES7_OT_
FN:30,58,_ZN11dev_toolkit4ucts29universal_converter_to_stringIPKcEENSt7__cxx1112basic_stringIcSt11char_traitsIcESaIcEEEOT_
FN:30,58,_ZN11dev_toolkit4ucts29universal_converter_to_stringIPvEENSt7__cxx1112basic_stringIcSt11char_traitsIcESaIcEEEOT_
FN:30,58,_ZN11dev_toolkit4ucts29universal_converter_to_stringIRSt16initializer_listIcEEENSt7__cxx1112basic_stringIcSt11char_traitsIcESaIcEEEOT_
FN:30,58,_ZN11dev_toolkit4ucts29universal_converter_to_stringISt17basic_string_viewIcSt11char_traitsIcEEEENSt7__cxx1112basic_stringIcS4_SaIcEEEOT_
FN:30,58,_ZN11dev_toolkit4ucts29universal_converter_to_stringISt5dequeINSt7__cxx1112basic_stringIcSt11char_traitsIcESaIcEEESaIS8_EEEES8_OT_
FN:30,58,_ZN11dev_toolkit4ucts29universal_converter_to_stringISt6vectorIiSaIiEEEENSt7__cxx1112basic_stringIcSt11char_traitsIcESaIcEEEOT_
FN:30,58,_ZN11dev_toolkit4ucts29universal_converter_to_stringIaEENSt7__cxx1112basic_stringIcSt11char_traitsIcESaIcEEEOT_
FN:30,58,_ZN11dev_toolkit4ucts29universal_converter_to_stringIbEENSt7__cxx1112basic_stringIcSt11char_traitsIcESaIcEEEOT_
FN:30,58,_ZN11dev_toolkit4ucts29universal_converter_to_stringIcEENSt7__cxx1112basic_stringIcSt11char_traitsIcESaIcEEEOT_
FN:30,58,_ZN11dev_toolkit4ucts29universal_converter_to_stringIdEENSt7__cxx1112basic_stringIcSt11char_traitsIcESaIcEEEOT_
FN:30,58,_ZN11dev_toolkit4ucts29universal_converter_to_stringIeEENSt7__cxx1112basic_stringIcSt11char_traitsIcESaIcEEEOT_
FN:30,58,_ZN11dev_toolkit4ucts29universal_converter_to_stringIfEENSt7__cxx1112basic_stringIcSt11char_traitsIcESaIcEEEOT_
FN:30,58,_ZN11dev_toolkit4ucts29universal_converter_to_stringIhEENSt7__cxx1112basic_stringIcSt11char_traitsIcESaIcEEEOT_
FN:30,58,_ZN11dev_toolkit4ucts29universal_converter_to_stringIiEENSt7__cxx1112basic_stringIcSt11char_traitsIcESaIcEEEOT_
FN:30,58,_ZN11dev_toolkit4ucts29universal_converter_to_stringIjEENSt7__cxx1112basic_stringIcSt11char_traitsIcESaIcEEEOT_
FN:30,58,_ZN11dev_toolkit4ucts29universal_converter_to_stringIlEENSt7__cxx1112basic_stringIcSt11char_traitsIcESaIcEEEOT_
FN:30,58,_ZN11dev_toolkit4ucts29universal_converter_to_stringImEENSt7__cxx1112basic_stringIcSt11char_traitsIcESaIcEEEOT_
FN:30,58,_ZN11dev_toolkit4ucts29universal_converter_to_stringIsEENSt7__cxx1112basic_stringIcSt11char_traitsIcESaIcEEEOT_
FN:30,58,_ZN11dev_toolkit4ucts29universal_converter_to_stringItEENSt7__cxx1112basic_stringIcSt11char_traitsIcESaIcEEEOT_
FN:30,58,_ZN11dev_toolkit4ucts29universal_converter_to_stringIxEENSt7__cxx1112basic_stringIcSt11char_traitsIcESaIcEEEOT_
FN:30,58,_ZN11dev_toolkit4ucts29universal_converter_to_stringIyEENSt7__cxx1112basic_stringIcSt11char_traitsIcESaIcEEEOT_
FNDA:1,_ZN11dev_toolkit4ucts29universal_converter_to_stringI17DerivedFromStringEENSt7__cxx1112basic_stringIcSt11char_traitsIcESaIcEEEOT_
FNDA:1,_ZN11dev_toolkit4ucts29universal_converter_to_stringI18WithOutputOperatorEENSt7__cxx1112basic_stringIcSt11char_traitsIcESaIcEEEOT_
FNDA:1,_ZN11dev_toolkit4ucts29universal_converter_to_stringI19WithConvertOperatorEENSt7__cxx1112basic_stringIcSt11char_traitsIcESaIcEEEOT_
FNDA:1,_ZN11dev_toolkit4ucts29universal_converter_to_stringI27WithExplicitConvertOperatorEENSt7__cxx1112basic_stringIcSt11char_traitsIcESaIcEEEOT_
FNDA:1,_ZN11dev_toolkit4ucts29universal_converter_to_stringI36DerivedFromStringWithConvertOperatorEENSt7__cxx1112basic_stringIcSt11char_traitsIcESaIcEEEOT_
FNDA:1,_ZN11dev_toolkit4ucts29universal_converter_to_stringIDnEENSt7__cxx1112basic_stringIcSt11char_traitsIcESaIcEEEOT_
FNDA:1,_ZN11dev_toolkit4ucts29universal_converter_to_stringINSt7__cxx1112basic_stringIcSt11char_traitsIcESaIcEEEEES7_OT_
FNDA:1,_ZN11dev_toolkit4ucts29universal_converter_to_stringIPKcEENSt7__cxx1112basic_stringIcSt11char_traitsIcESaIcEEEOT_
FNDA:1,_ZN11dev_toolkit4ucts29universal_converter_to_stringIPvEENSt7__cxx1112basic_stringIcSt11char_traitsIcESaIcEEEOT_
FNDA:1,_ZN11dev_toolkit4ucts29universal_converter_to_stringIRSt16initializer_listIcEEENSt7__cxx1112basic_stringIcSt11char_traitsIcESaIcEEEOT_
FNDA:1,_ZN11dev_toolkit4ucts29universal_converter_to_stringISt17basic_string_viewIcSt11char_traitsIcEEEENSt7__cxx1112basic_stringIcS4_SaIcEEEOT_
FNDA:1,_ZN11dev_toolkit4ucts29universal_converter_to_stringISt5dequeINSt7__cxx1112basic_stringIcSt11char_traitsIcESaIcEEESaIS8_EEEES8_OT_
FNDA:1,_ZN11dev_toolkit4ucts29universal_converter_to_stringISt6vectorIiSaIiEEEENSt7__cxx1112basic_stringIcSt11char_traitsIcESaIcEEEOT_
FNDA:1,_ZN11dev_toolkit4ucts29universal_converter_to_stringIaEENSt7__cxx1112basic_stringIcSt11char_traitsIcESaIcEEEOT_
FNDA:2,_ZN11dev_toolkit4ucts29universal_converter_to_stringIbEENSt7__cxx1112basic_stringIcSt11char_traitsIcESaIcEEEOT_
FNDA:1,_ZN11dev_toolkit4ucts29universal_converter_to_stringIcEENSt7__cxx1112basic_stringIcSt11char_traitsIcESaIcEEEOT_
FNDA:9,_ZN11dev_toolkit4ucts29universal_converter_to_stringIdEENSt7__cxx1112basic_stringIcSt11char_traitsIcESaIcEEEOT_
FNDA:1,_ZN11dev_toolkit4ucts29universal_converter_to_stringIeEENSt7__cxx1112basic_stringIcSt11char_traitsIcESaIcEEEOT_
FNDA:1,_ZN11dev_toolkit4ucts29universal_converter_to_stringIfEENSt7__cxx1112basic_stringIcSt11char_traitsIcESaIcEEEOT_
FNDA:1,_ZN11dev_toolkit4ucts29universal_converter_to_stringIhEENSt7__cxx1112basic_stringIcSt11char_traitsIcESaIcEEEOT_
FNDA:1,_ZN11dev_toolkit4ucts29universal_converter_to_stringIiEENSt7__cxx1112basic_stringIcSt11char_traitsIcESaIcEEEOT_
FNDA:1,_ZN11dev_toolkit4ucts29universal_converter_to_stringIjEENSt7__cxx1112basic_stringIcSt11char_traitsIcESaIcEEEOT_
FNDA:1,_ZN11dev_toolkit4ucts29universal_converter_to_stringIlEENSt7__cxx1112basic_stringIcSt11char_traitsIcESaIcEEEOT_
FNDA:1,_ZN11dev_toolkit4ucts29universal_converter_to_stringImEENSt7__cxx1112basic_stringIcSt11char_traitsIcESaIcEEEOT_
FNDA:1,_ZN11dev_toolkit4ucts29universal_converter_to_stringIsEENSt7__cxx1112basic_stringIcSt11char_traitsIcESaIcEEEOT_
FNDA:1,_ZN11dev_toolkit4ucts29universal_converter_to_stringItEENSt7__cxx1112basic_stringIcSt11char_traitsIcESaIcEEEOT_
FNDA:1,_ZN11dev_toolkit4ucts29universal_converter_to_stringIxEENSt7__cxx1112basic_stringIcSt11char_traitsIcESaIcEEEOT_
FNDA:1,_ZN11dev_toolkit4ucts29universal_converter_to_stringIyEENSt7__cxx1112basic_stringIcSt11char_traitsIcESaIcEEEOT_
FNF:28
FNH:28
DA:30,37
DA:32,1
DA:37,4
DA:40,4
DA:44,20
DA:48,10
DA:51,1
DA:52,1
DA:53,1
DA:54,1
DA:56,4
LF:11
LH:11
end_of_record
TN:
SF:/home/marabella/Desktop/C++/Projects/UniversalConverterToString/tests/UniversalConverterToStringTests/universal_converter_to_string_tests.cpp
FN:106,106,_ZN53UniversalConverterTest_SpecialConstructibleTypes_Test8TestBodyEv
FN:106,106,_ZN53UniversalConverterTest_SpecialConstructibleTypes_TestC2Ev
FN:106,106,_ZN53UniversalConverterTest_SpecialConstructibleTypes_TestD0Ev
FN:106,106,_ZN53UniversalConverterTest_SpecialConstructibleTypes_TestD2Ev
FN:114,114,_ZN45UniversalConverterTest_NotSupportedTypes_Test8TestBodyEv
FN:114,114,_ZN45UniversalConverterTest_NotSupportedTypes_TestC2Ev
FN:114,114,_ZN45UniversalConverterTest_NotSupportedTypes_TestD0Ev
FN:114,114,_ZN45UniversalConverterTest_NotSupportedTypes_TestD2Ev
FN:17,17,_ZNK19WithConvertOperatorcvNSt7__cxx1112basic_stringIcSt11char_traitsIcESaIcEEEEv
FN:21,21,_ZNK27WithExplicitConvertOperatorcvNSt7__cxx1112basic_stringIcSt11char_traitsIcESaIcEEEEv
FN:25,25,_ZNK36DerivedFromStringWithConvertOperatorcvNSt7__cxx1112basic_stringIcSt11char_traitsIcESaIcEEEEv
FN:29,32,_ZlsRSoRK18WithOutputOperator
FN:38,48,_Z15test_conversionI17DerivedFromStringEbOT_RKNSt7__cxx1112basic_stringIcSt11char_traitsIcESaIcEEE
FN:38,48,_Z15test_conversionI18WithOutputOperatorEbOT_RKNSt7__cxx1112basic_stringIcSt11char_traitsIcESaIcEEE
FN:38,48,_Z15test_conversionI19WithConvertOperatorEbOT_RKNSt7__cxx1112basic_stringIcSt11char_traitsIcESaIcEEE
FN:38,48,_Z15test_conversionI27WithExplicitConvertOperatorEbOT_RKNSt7__cxx1112basic_stringIcSt11char_traitsIcESaIcEEE
FN:38,48,_Z15test_conversionI36DerivedFromStringWithConvertOperatorEbOT_RKNSt7__cxx1112basic_stringIcSt11char_traitsIcESaIcEEE
FN:38,48,_Z15test_conversionIDnEbOT_RKNSt7__cxx1112basic_stringIcSt11char_traitsIcESaIcEEE
FN:38,48,_Z15test_conversionINSt7__cxx1112basic_stringIcSt11char_traitsIcESaIcEEEEbOT_RKS5_
FN:38,48,_Z15test_conversionIPKcEbOT_RKNSt7__cxx1112basic_stringIcSt11char_traitsIcESaIcEEE
FN:38,48,_Z15test_conversionIPvEbOT_RKNSt7__cxx1112basic_stringIcSt11char_traitsIcESaIcEEE
FN:38,48,_Z15test_conversionIRSt16initializer_listIcEEbOT_RKNSt7__cxx1112basic_stringIcSt11char_traitsIcESaIcEEE
FN:38,48,_Z15test_conversionISt17basic_string_viewIcSt11char_traitsIcEEEbOT_RKNSt7__cxx1112basic_stringIcS2_SaIcEEE
FN:38,48,_Z15test_conversionISt5dequeINSt7__cxx1112basic_stringIcSt11char_traitsIcESaIcEEESaIS6_EEEbOT_RKS6_
FN:38,48,_Z15test_conversionISt6vectorIiSaIiEEEbOT_RKNSt7__cxx1112basic_stringIcSt11char_traitsIcESaIcEEE
FN:38,48,_Z15test_conversionIaEbOT_RKNSt7__cxx1112basic_stringIcSt11char_traitsIcESaIcEEE
FN:38,48,_Z15test_conversionIbEbOT_RKNSt7__cxx1112basic_stringIcSt11char_traitsIcESaIcEEE
FN:38,48,_Z15test_conversionIcEbOT_RKNSt7__cxx1112basic_stringIcSt11char_traitsIcESaIcEEE
FN:38,48,_Z15test_conversionIdEbOT_RKNSt7__cxx1112basic_stringIcSt11char_traitsIcESaIcEEE
FN:38,48,_Z15test_conversionIeEbOT_RKNSt7__cxx1112basic_stringIcSt11char_traitsIcESaIcEEE
FN:38,48,_Z15test_conversionIfEbOT_RKNSt7__cxx1112basic_stringIcSt11char_traitsIcESaIcEEE
FN:38,48,_Z15test_conversionIhEbOT_RKNSt7__cxx1112basic_stringIcSt11char_traitsIcESaIcEEE
FN:38,48,_Z15test_conversionIiEbOT_RKNSt7__cxx1112basic_stringIcSt11char_traitsIcESaIcEEE
FN:38,48,_Z15test_conversionIjEbOT_RKNSt7__cxx1112basic_stringIcSt11char_traitsIcESaIcEEE
FN:38,48,_Z15test_conversionIlEbOT_RKNSt7__cxx1112basic_stringIcSt11char_traitsIcESaIcEEE
FN:38,48,_Z15test_conversionImEbOT_RKNSt7__cxx1112basic_stringIcSt11char_traitsIcESaIcEEE
FN:38,48,_Z15test_conversionIsEbOT_RKNSt7__cxx1112basic_stringIcSt11char_traitsIcESaIcEEE
FN:38,48,_Z15test_conversionItEbOT_RKNSt7__cxx1112basic_stringIcSt11char_traitsIcESaIcEEE
FN:38,48,_Z15test_conversionIxEbOT_RKNSt7__cxx1112basic_stringIcSt11char_traitsIcESaIcEEE
FN:38,48,_Z15test_conversionIyEbOT_RKNSt7__cxx1112basic_stringIcSt11char_traitsIcESaIcEEE
FN:50,50,_ZN42UniversalConverterTest_DegenerateCase_Test8TestBodyEv
FN:50,50,_ZN42UniversalConverterTest_DegenerateCase_TestC2Ev
FN:50,50,_ZN42UniversalConverterTest_DegenerateCase_TestD0Ev
FN:50,50,_ZN42UniversalConverterTest_DegenerateCase_TestD2Ev
FN:54,54,_ZN40UniversalConverterTest_IntegerTypes_Test8TestBodyEv
FN:54,54,_ZN40UniversalConverterTest_IntegerTypes_TestC2Ev
FN:54,54,_ZN40UniversalConverterTest_IntegerTypes_TestD0Ev
FN:54,54,_ZN40UniversalConverterTest_IntegerTypes_TestD2Ev
FN:71,71,_ZN51UniversalConverterTest_FloatingPointTypesBasic_Test8TestBodyEv
FN:71,71,_ZN51UniversalConverterTest_FloatingPointTypesBasic_TestC2Ev
FN:71,71,_ZN51UniversalConverterTest_FloatingPointTypesBasic_TestD0Ev
FN:71,71,_ZN51UniversalConverterTest_FloatingPointTypesBasic_TestD2Ev
FN:77,77,_ZN54UniversalConverterTest_FloatingPointTypesExtremes_Test8TestBodyEv
FN:77,77,_ZN54UniversalConverterTest_FloatingPointTypesExtremes_TestC2Ev
FN:77,77,_ZN54UniversalConverterTest_FloatingPointTypesExtremes_TestD0Ev
FN:77,77,_ZN54UniversalConverterTest_FloatingPointTypesExtremes_TestD2Ev
FN:91,91,_ZN39UniversalConverterTest_BooleanType_Test8TestBodyEv
FN:91,91,_ZN39UniversalConverterTest_BooleanType_TestC2Ev
FN:91,91,_ZN39UniversalConverterTest_BooleanType_TestD0Ev
FN:91,91,_ZN39UniversalConverterTest_BooleanType_TestD2Ev
FN:97,97,_ZN46UniversalConverterTest_ConstructibleTypes_Test8TestBodyEv
FN:97,97,_ZN46UniversalConverterTest_ConstructibleTypes_TestC2Ev
FN:97,97,_ZN46UniversalConverterTest_ConstructibleTypes_TestD0Ev
FN:97,97,_ZN46UniversalConverterTest_ConstructibleTypes_TestD2Ev
FNDA:1,_ZN53UniversalConverterTest_SpecialConstructibleTypes_Test8TestBodyEv
FNDA:1,_ZN53UniversalConverterTest_SpecialConstructibleTypes_TestC2Ev
FNDA:1,_ZN53UniversalConverterTest_SpecialConstructibleTypes_TestD0Ev
FNDA:1,_ZN53UniversalConverterTest_SpecialConstructibleTypes_TestD2Ev
FNDA:1,_ZN45UniversalConverterTest_NotSupportedTypes_Test8TestBodyEv
FNDA:1,_ZN45UniversalConverterTest_NotSupportedTypes_TestC2Ev
FNDA:1,_ZN45UniversalConverterTest_NotSupportedTypes_TestD0Ev
FNDA:1,_ZN45UniversalConverterTest_NotSupportedTypes_TestD2Ev
FNDA:1,_ZNK19WithConvertOperatorcvNSt7__cxx1112basic_stringIcSt11char_traitsIcESaIcEEEEv
FNDA:1,_ZNK27WithExplicitConvertOperatorcvNSt7__cxx1112basic_stringIcSt11char_traitsIcESaIcEEEEv
FNDA:0,_ZNK36DerivedFromStringWithConvertOperatorcvNSt7__cxx1112basic_stringIcSt11char_traitsIcESaIcEEEEv
FNDA:1,_ZlsRSoRK18WithOutputOperator
FNDA:1,_Z15test_conversionI17DerivedFromStringEbOT_RKNSt7__cxx1112basic_stringIcSt11char_traitsIcESaIcEEE
FNDA:1,_Z15test_conversionI18WithOutputOperatorEbOT_RKNSt7__cxx1112basic_stringIcSt11char_traitsIcESaIcEEE
FNDA:1,_Z15test_conversionI19WithConvertOperatorEbOT_RKNSt7__cxx1112basic_stringIcSt11char_traitsIcESaIcEEE
FNDA:1,_Z15test_conversionI27WithExplicitConvertOperatorEbOT_RKNSt7__cxx1112basic_stringIcSt11char_traitsIcESaIcEEE
FNDA:1,_Z15test_conversionI36DerivedFromStringWithConvertOperatorEbOT_RKNSt7__cxx1112basic_stringIcSt11char_traitsIcESaIcEEE
FNDA:1,_Z15test_conversionIDnEbOT_RKNSt7__cxx1112basic_stringIcSt11char_traitsIcESaIcEEE
FNDA:1,_Z15test_conversionINSt7__cxx1112basic_stringIcSt11char_traitsIcESaIcEEEEbOT_RKS5_
FNDA:1,_Z15test_conversionIPKcEbOT_RKNSt7__cxx1112basic_stringIcSt11char_traitsIcESaIcEEE
FNDA:1,_Z15test_conversionIPvEbOT_RKNSt7__cxx1112basic_stringIcSt11char_traitsIcESaIcEEE
FNDA:1,_Z15test_conversionIRSt16initializer_listIcEEbOT_RKNSt7__cxx1112basic_stringIcSt11char_traitsIcESaIcEEE
FNDA:1,_Z15test_conversionISt17basic_string_viewIcSt11char_traitsIcEEEbOT_RKNSt7__cxx1112basic_stringIcS2_SaIcEEE
FNDA:1,_Z15test_conversionISt5dequeINSt7__cxx1112basic_stringIcSt11char_traitsIcESaIcEEESaIS6_EEEbOT_RKS6_
FNDA:1,_Z15test_conversionISt6vectorIiSaIiEEEbOT_RKNSt7__cxx1112basic_stringIcSt11char_traitsIcESaIcEEE
FNDA:1,_Z15test_conversionIaEbOT_RKNSt7__cxx1112basic_stringIcSt11char_traitsIcESaIcEEE
FNDA:2,_Z15test_conversionIbEbOT_RKNSt7__cxx1112basic_stringIcSt11char_traitsIcESaIcEEE
FNDA:1,_Z15test_conversionIcEbOT_RKNSt7__cxx1112basic_stringIcSt11char_traitsIcESaIcEEE
FNDA:9,_Z15test_conversionIdEbOT_RKNSt7__cxx1112basic_stringIcSt11char_traitsIcESaIcEEE
FNDA:1,_Z15test_conversionIeEbOT_RKNSt7__cxx1112basic_stringIcSt11char_traitsIcESaIcEEE
FNDA:1,_Z15test_conversionIfEbOT_RKNSt7__cxx1112basic_stringIcSt11char_traitsIcESaIcEEE
FNDA:1,_Z15test_conversionIhEbOT_RKNSt7__cxx1112basic_stringIcSt11char_traitsIcESaIcEEE
FNDA:1,_Z15test_conversionIiEbOT_RKNSt7__cxx1112basic_stringIcSt11char_traitsIcESaIcEEE
FNDA:1,_Z15test_conversionIjEbOT_RKNSt7__cxx1112basic_stringIcSt11char_traitsIcESaIcEEE
FNDA:1,_Z15test_conversionIlEbOT_RKNSt7__cxx1112basic_stringIcSt11char_traitsIcESaIcEEE
FNDA:1,_Z15test_conversionImEbOT_RKNSt7__cxx1112basic_stringIcSt11char_traitsIcESaIcEEE
FNDA:1,_Z15test_conversionIsEbOT_RKNSt7__cxx1112basic_stringIcSt11char_traitsIcESaIcEEE
FNDA:1,_Z15test_conversionItEbOT_RKNSt7__cxx1112basic_stringIcSt11char_traitsIcESaIcEEE
FNDA:1,_Z15test_conversionIxEbOT_RKNSt7__cxx1112basic_stringIcSt11char_traitsIcESaIcEEE
FNDA:1,_Z15test_conversionIyEbOT_RKNSt7__cxx1112basic_stringIcSt11char_traitsIcESaIcEEE
FNDA:1,_ZN42UniversalConverterTest_DegenerateCase_Test8TestBodyEv
FNDA:1,_ZN42UniversalConverterTest_DegenerateCase_TestC2Ev
FNDA:1,_ZN42UniversalConverterTest_DegenerateCase_TestD0Ev
FNDA:1,_ZN42UniversalConverterTest_DegenerateCase_TestD2Ev
FNDA:1,_ZN40UniversalConverterTest_IntegerTypes_Test8TestBodyEv
FNDA:1,_ZN40UniversalConverterTest_IntegerTypes_TestC2Ev
FNDA:1,_ZN40UniversalConverterTest_IntegerTypes_TestD0Ev
FNDA:1,_ZN40UniversalConverterTest_IntegerTypes_TestD2Ev
FNDA:1,_ZN51UniversalConverterTest_FloatingPointTypesBasic_Test8TestBodyEv
FNDA:1,_ZN51UniversalConverterTest_FloatingPointTypesBasic_TestC2Ev
FNDA:1,_ZN51UniversalConverterTest_FloatingPointTypesBasic_TestD0Ev
FNDA:1,_ZN51UniversalConverterTest_FloatingPointTypesBasic_TestD2Ev
FNDA:1,_ZN54UniversalConverterTest_FloatingPointTypesExtremes_Test8TestBodyEv
FNDA:1,_ZN54UniversalConverterTest_FloatingPointTypesExtremes_TestC2Ev
FNDA:1,_ZN54UniversalConverterTest_FloatingPointTypesExtremes_TestD0Ev
FNDA:1,_ZN54UniversalConverterTest_FloatingPointTypesExtremes_TestD2Ev
FNDA:1,_ZN39UniversalConverterTest_BooleanType_Test8TestBodyEv
FNDA:1,_ZN39UniversalConverterTest_BooleanType_TestC2Ev
FNDA:1,_ZN39UniversalConverterTest_BooleanType_TestD0Ev
FNDA:1,_ZN39UniversalConverterTest_BooleanType_TestD2Ev
FNDA:1,_ZN46UniversalConverterTest_ConstructibleTypes_Test8TestBodyEv
FNDA:1,_ZN46UniversalConverterTest_ConstructibleTypes_TestC2Ev
FNDA:1,_ZN46UniversalConverterTest_ConstructibleTypes_TestD0Ev
FNDA:1,_ZN46UniversalConverterTest_ConstructibleTypes_TestD2Ev
FNF:64
FNH:63
DA:17,3
DA:21,3
DA:25,0
DA:29,1
DA:30,1
DA:31,1
DA:38,37
DA:39,37
DA:41,37
DA:43,4
DA:44,4
DA:45,4
DA:47,33
DA:48,37
DA:50,4
DA:51,4
DA:52,1
DA:54,4
DA:55,2
DA:56,2
DA:57,2
DA:58,2
DA:59,2
DA:60,2
DA:62,2
DA:63,1
DA:64,2
DA:65,2
DA:66,2
DA:67,2
DA:68,1
DA:69,1
DA:71,4
DA:72,2
DA:73,2
DA:74,2
DA:75,1
DA:77,4
DA:78,2
DA:79,2
DA:80,2
DA:81,1
DA:82,2
DA:83,2
DA:84,1
DA:85,2
DA:86,2
DA:87,1
DA:88,2
DA:89,1
DA:91,4
DA:93,2
DA:94,2
DA:95,1
DA:97,4
DA:98,2
DA:99,2
DA:101,1
DA:102,1
DA:103,2
DA:104,1
DA:106,4
DA:107,2
DA:108,2
DA:109,2
DA:110,2
DA:111,2
DA:112,1
DA:114,4
DA:115,2
DA:116,2
DA:117,2
DA:118,2
DA:119,1
LF:74
LH:73
end_of_record
TN:
SF:/home/marabella/Desktop/C++/Projects/UniversalConverterToString/tests/UniversalConverterToStringTraitsTests/has_ostream_operator_tests.cpp
FN:16,16,_ZlsRSoRK25WithDefaultOutputOperator
FN:21,21,_ZlsRSoR38WithOutputOperatorTakeValueByLvalueRef
FN:26,26,_ZlsRSoRK28WithOutputOperatorReturnVoid
FN:31,31,_ZN49HasOstreamOperator_WithoutOutputOperatorCase_Test8TestBodyEv
FN:31,31,_ZN49HasOstreamOperator_WithoutOutputOperatorCase_TestC2Ev
FN:31,31,_ZN49HasOstreamOperator_WithoutOutputOperatorCase_TestD0Ev
FN:31,31,_ZN49HasOstreamOperator_WithoutOutputOperatorCase_TestD2Ev
FN:33,33,_ZN53HasOstreamOperator_WithDefaultOutputOperatorCase_Test8TestBodyEv
FN:33,33,_ZN53HasOstreamOperator_WithDefaultOutputOperatorCase_TestC2Ev
FN:33,33,_ZN53HasOstreamOperator_WithDefaultOutputOperatorCase_TestD0Ev
FN:33,33,_ZN53HasOstreamOperator_WithDefaultOutputOperatorCase_TestD2Ev
FN:40,40,_ZN66HasOstreamOperator_WithOutputOperatorTakeValueByLvalueRefCase_Test8TestBodyEv
FN:40,40,_ZN66HasOstreamOperator_WithOutputOperatorTakeValueByLvalueRefCase_TestC2Ev
FN:40,40,_ZN66HasOstreamOperator_WithOutputOperatorTakeValueByLvalueRefCase_TestD0Ev
FN:40,40,_ZN66HasOstreamOperator_WithOutputOperatorTakeValueByLvalueRefCase_TestD2Ev
FN:51,51,_ZN56HasOstreamOperator_WithOutputOperatorReturnVoidCase_Test8TestBodyEv
FN:51,51,_ZN56HasOstreamOperator_WithOutputOperatorReturnVoidCase_TestC2Ev
FN:51,51,_ZN56HasOstreamOperator_WithOutputOperatorReturnVoidCase_TestD0Ev
FN:51,51,_ZN56HasOstreamOperator_WithOutputOperatorReturnVoidCase_TestD2Ev
FN:62,62,_ZN41HasOstreamOperator_NotSupportedTypes_Test8TestBodyEv
FN:62,62,_ZN41HasOstreamOperator_NotSupportedTypes_TestC2Ev
FN:62,62,_ZN41HasOstreamOperator_NotSupportedTypes_TestD0Ev
FN:62,62,_ZN41HasOstreamOperator_NotSupportedTypes_TestD2Ev
FNDA:0,_ZlsRSoRK25WithDefaultOutputOperator
FNDA:0,_ZlsRSoR38WithOutputOperatorTakeValueByLvalueRef
FNDA:1,_ZlsRSoRK28WithOutputOperatorReturnVoid
FNDA:1,_ZN49HasOstreamOperator_WithoutOutputOperatorCase_Test8TestBodyEv
FNDA:1,_ZN49HasOstreamOperator_WithoutOutputOperatorCase_TestC2Ev
FNDA:1,_ZN49HasOstreamOperator_WithoutOutputOperatorCase_TestD0Ev
FNDA:1,_ZN49HasOstreamOperator_WithoutOutputOperatorCase_TestD2Ev
FNDA:1,_ZN53HasOstreamOperator_WithDefaultOutputOperatorCase_Test8TestBodyEv
FNDA:1,_ZN53HasOstreamOperator_WithDefaultOutputOperatorCase_TestC2Ev
FNDA:1,_ZN53HasOstreamOperator_WithDefaultOutputOperatorCase_TestD0Ev
FNDA:1,_ZN53HasOstreamOperator_WithDefaultOutputOperatorCase_TestD2Ev
FNDA:1,_ZN66HasOstreamOperator_WithOutputOperatorTakeValueByLvalueRefCase_Test8TestBodyEv
FNDA:1,_ZN66HasOstreamOperator_WithOutputOperatorTakeValueByLvalueRefCase_TestC2Ev
FNDA:1,_ZN66HasOstreamOperator_WithOutputOperatorTakeValueByLvalueRefCase_TestD0Ev
FNDA:1,_ZN66HasOstreamOperator_WithOutputOperatorTakeValueByLvalueRefCase_TestD2Ev
FNDA:1,_ZN56HasOstreamOperator_WithOutputOperatorReturnVoidCase_Test8TestBodyEv
FNDA:1,_ZN56HasOstreamOperator_WithOutputOperatorReturnVoidCase_TestC2Ev
FNDA:1,_ZN56HasOstreamOperator_WithOutputOperatorReturnVoidCase_TestD0Ev
FNDA:1,_ZN56HasOstreamOperator_WithOutputOperatorReturnVoidCase_TestD2Ev
FNDA:1,_ZN41HasOstreamOperator_NotSupportedTypes_Test8TestBodyEv
FNDA:1,_ZN41HasOstreamOperator_NotSupportedTypes_TestC2Ev
FNDA:1,_ZN41HasOstreamOperator_NotSupportedTypes_TestD0Ev
FNDA:1,_ZN41HasOstreamOperator_NotSupportedTypes_TestD2Ev
FNF:23
FNH:21
DA:16,0
DA:21,0
DA:26,1
DA:31,4
DA:33,4
DA:35,1
DA:36,1
DA:37,1
DA:38,1
DA:40,4
DA:42,1
DA:43,1
DA:44,1
DA:48,1
DA:49,1
DA:51,4
DA:53,1
DA:54,1
DA:55,1
DA:58,1
DA:60,1
DA:62,4
DA:63,1
DA:64,1
DA:65,1
DA:66,1
DA:67,1
LF:27
LH:25
end_of_record
TN:
SF:/home/marabella/Desktop/C++/Projects/UniversalConverterToString/tests/UniversalConverterToStringTraitsTests/has_to_string_conversion_operator_tests.cpp
FN:17,17,_ZNK26WithDefaultConvertOperatorcvNSt7__cxx1112basic_stringIcSt11char_traitsIcESaIcEEEEv
FN:21,21,_ZNK27WithExplicitConvertOperatorcvNSt7__cxx1112basic_stringIcSt11char_traitsIcESaIcEEEEv
FN:25,25,_ZNR31WithRefQualifiedConvertOperatorcvNSt7__cxx1112basic_stringIcSt11char_traitsIcESaIcEEEEv
FN:27,27,_ZNO31WithRefQualifiedConvertOperatorcvNSt7__cxx1112basic_stringIcSt11char_traitsIcESaIcEEEEv
FN:32,32,_ZN61HasToStringConversionOperator_WithoutConvertOperatorCase_Test8TestBodyEv
FN:32,32,_ZN61HasToStringConversionOperator_WithoutConvertOperatorCase_TestC2Ev
FN:32,32,_ZN61HasToStringConversionOperator_WithoutConvertOperatorCase_TestD0Ev
FN:32,32,_ZN61HasToStringConversionOperator_WithoutConvertOperatorCase_TestD2Ev
FN:39,39,_ZN65HasToStringConversionOperator_WithDefaultConvertOperatorCase_Test8TestBodyEv
FN:39,39,_ZN65HasToStringConversionOperator_WithDefaultConvertOperatorCase_TestC2Ev
FN:39,39,_ZN65HasToStringConversionOperator_WithDefaultConvertOperatorCase_TestD0Ev
FN:39,39,_ZN65HasToStringConversionOperator_WithDefaultConvertOperatorCase_TestD2Ev
FN:46,46,_ZN66HasToStringConversionOperator_WithExplicitConvertOperatorCase_Test8TestBodyEv
FN:46,46,_ZN66HasToStringConversionOperator_WithExplicitConvertOperatorCase_TestC2Ev
FN:46,46,_ZN66HasToStringConversionOperator_WithExplicitConvertOperatorCase_TestD0Ev
FN:46,46,_ZN66HasToStringConversionOperator_WithExplicitConvertOperatorCase_TestD2Ev
FN:53,53,_ZN70HasToStringConversionOperator_WithRefQualifiedConvertOperatorCase_Test8TestBodyEv
FN:53,53,_ZN70HasToStringConversionOperator_WithRefQualifiedConvertOperatorCase_TestC2Ev
FN:53,53,_ZN70HasToStringConversionOperator_WithRefQualifiedConvertOperatorCase_TestD0Ev
FN:53,53,_ZN70HasToStringConversionOperator_WithRefQualifiedConvertOperatorCase_TestD2Ev
FN:73,73,_ZN52HasToStringConversionOperator_NotSupportedTypes_Test8TestBodyEv
FN:73,73,_ZN52HasToStringConversionOperator_NotSupportedTypes_TestC2Ev
FN:73,73,_ZN52HasToStringConversionOperator_NotSupportedTypes_TestD0Ev
FN:73,73,_ZN52HasToStringConversionOperator_NotSupportedTypes_TestD2Ev
FNDA:0,_ZNK26WithDefaultConvertOperatorcvNSt7__cxx1112basic_stringIcSt11char_traitsIcESaIcEEEEv
FNDA:0,_ZNK27WithExplicitConvertOperatorcvNSt7__cxx1112basic_stringIcSt11char_traitsIcESaIcEEEEv
FNDA:1,_ZNR31WithRefQualifiedConvertOperatorcvNSt7__cxx1112basic_stringIcSt11char_traitsIcESaIcEEEEv
FNDA:1,_ZNO31WithRefQualifiedConvertOperatorcvNSt7__cxx1112basic_stringIcSt11char_traitsIcESaIcEEEEv
FNDA:1,_ZN61HasToStringConversionOperator_WithoutConvertOperatorCase_Test8TestBodyEv
FNDA:1,_ZN61HasToStringConversionOperator_WithoutConvertOperatorCase_TestC2Ev
FNDA:1,_ZN61HasToStringConversionOperator_WithoutConvertOperatorCase_TestD0Ev
FNDA:1,_ZN61HasToStringConversionOperator_WithoutConvertOperatorCase_TestD2Ev
FNDA:1,_ZN65HasToStringConversionOperator_WithDefaultConvertOperatorCase_Test8TestBodyEv
FNDA:1,_ZN65HasToStringConversionOperator_WithDefaultConvertOperatorCase_TestC2Ev
FNDA:1,_ZN65HasToStringConversionOperator_WithDefaultConvertOperatorCase_TestD0Ev
FNDA:1,_ZN65HasToStringConversionOperator_WithDefaultConvertOperatorCase_TestD2Ev
FNDA:1,_ZN66HasToStringConversionOperator_WithExplicitConvertOperatorCase_Test8TestBodyEv
FNDA:1,_ZN66HasToStringConversionOperator_WithExplicitConvertOperatorCase_TestC2Ev
FNDA:1,_ZN66HasToStringConversionOperator_WithExplicitConvertOperatorCase_TestD0Ev
FNDA:1,_ZN66HasToStringConversionOperator_WithExplicitConvertOperatorCase_TestD2Ev
FNDA:1,_ZN70HasToStringConversionOperator_WithRefQualifiedConvertOperatorCase_Test8TestBodyEv
FNDA:1,_ZN70HasToStringConversionOperator_WithRefQualifiedConvertOperatorCase_TestC2Ev
FNDA:1,_ZN70HasToStringConversionOperator_WithRefQualifiedConvertOperatorCase_TestD0Ev
FNDA:1,_ZN70HasToStringConversionOperator_WithRefQualifiedConvertOperatorCase_TestD2Ev
FNDA:1,_ZN52HasToStringConversionOperator_NotSupportedTypes_Test8TestBodyEv
FNDA:1,_ZN52HasToStringConversionOperator_NotSupportedTypes_TestC2Ev
FNDA:1,_ZN52HasToStringConversionOperator_NotSupportedTypes_TestD0Ev
FNDA:1,_ZN52HasToStringConversionOperator_NotSupportedTypes_TestD2Ev
FNF:24
FNH:22
DA:17,0
DA:21,0
DA:25,3
DA:27,3
DA:32,4
DA:34,1
DA:35,1
DA:36,1
DA:37,1
DA:39,4
DA:41,1
DA:42,1
DA:43,1
DA:44,1
DA:46,4
DA:48,1
DA:49,1
DA:50,1
DA:51,1
DA:53,4
DA:60,1
DA:61,2
DA:62,1
DA:67,1
DA:68,2
DA:69,1
DA:71,1
DA:73,4
DA:74,1
DA:75,1
DA:76,1
DA:77,1
DA:78,1
LF:33
LH:31
end_of_record
TN:
SF:/home/marabella/Desktop/C++/Projects/UniversalConverterToString/tests/UniversalConverterToStringTraitsTests/is_constructible_tests.cpp
FN:16,16,_ZNK19WithConvertOperatorcvNSt7__cxx1112basic_stringIcSt11char_traitsIcESaIcEEEEv
FN:20,20,_ZNK27WithExplicitConvertOperatorcvNSt7__cxx1112basic_stringIcSt11char_traitsIcESaIcEEEEv
FN:24,24,_ZNK36DerivedFromStringWithConvertOperatorcvNSt7__cxx1112basic_stringIcSt11char_traitsIcESaIcEEEEv
FN:28,31,_ZlsRSoRK18WithOutputOperator
FN:36,36,_ZN29IsConstructible_CStrings_Test8TestBodyEv
FN:36,36,_ZN29IsConstructible_CStrings_TestC2Ev
FN:36,36,_ZN29IsConstructible_CStrings_TestD0Ev
FN:36,36,_ZN29IsConstructible_CStrings_TestD2Ev
FN:49,49,_ZN35IsConstructible_StringWiewLike_Test8TestBodyEv
FN:49,49,_ZN35IsConstructible_StringWiewLike_TestC2Ev
FN:49,49,_ZN35IsConstructible_StringWiewLike_TestD0Ev
FN:49,49,_ZN35IsConstructible_StringWiewLike_TestD2Ev
FN:58,58,_ZN40IsConstructible_InitializerListChar_Test8TestBodyEv
FN:58,58,_ZN40IsConstructible_InitializerListChar_TestC2Ev
FN:58,58,_ZN40IsConstructible_InitializerListChar_TestD0Ev
FN:58,58,_ZN40IsConstructible_InitializerListChar_TestD2Ev
FN:67,74,_ZN29IsConstructible_NullptrT_Test8TestBodyEv
FN:67,74,_ZN29IsConstructible_NullptrT_TestC2Ev
FN:67,74,_ZN29IsConstructible_NullptrT_TestD0Ev
FN:67,74,_ZN29IsConstructible_NullptrT_TestD2Ev
FN:76,76,_ZN44IsConstructible_ImplicitlyConstructible_Test8TestBodyEv
FN:76,76,_ZN44IsConstructible_ImplicitlyConstructible_TestC2Ev
FN:76,76,_ZN44IsConstructible_ImplicitlyConstructible_TestD0Ev
FN:76,76,_ZN44IsConstructible_ImplicitlyConstructible_TestD2Ev
FN:83,83,_ZN38IsConstructible_NotSupportedTypes_Test8TestBodyEv
FN:83,83,_ZN38IsConstructible_NotSupportedTypes_TestC2Ev
FN:83,83,_ZN38IsConstructible_NotSupportedTypes_TestD0Ev
FN:83,83,_ZN38IsConstructible_NotSupportedTypes_TestD2Ev
FNDA:0,_ZNK19WithConvertOperatorcvNSt7__cxx1112basic_stringIcSt11char_traitsIcESaIcEEEEv
FNDA:0,_ZNK27WithExplicitConvertOperatorcvNSt7__cxx1112basic_stringIcSt11char_traitsIcESaIcEEEEv
FNDA:0,_ZNK36DerivedFromStringWithConvertOperatorcvNSt7__cxx1112basic_stringIcSt11char_traitsIcESaIcEEEEv
FNDA:0,_ZlsRSoRK18WithOutputOperator
FNDA:1,_ZN29IsConstructible_CStrings_Test8TestBodyEv
FNDA:1,_ZN29IsConstructible_CStrings_TestC2Ev
FNDA:1,_ZN29IsConstructible_CStrings_TestD0Ev
FNDA:1,_ZN29IsConstructible_CStrings_TestD2Ev
FNDA:1,_ZN35IsConstructible_StringWiewLike_Test8TestBodyEv
FNDA:1,_ZN35IsConstructible_StringWiewLike_TestC2Ev
FNDA:1,_ZN35IsConstructible_StringWiewLike_TestD0Ev
FNDA:1,_ZN35IsConstructible_StringWiewLike_TestD2Ev
FNDA:1,_ZN40IsConstructible_InitializerListChar_Test8TestBodyEv
FNDA:1,_ZN40IsConstructible_InitializerListChar_TestC2Ev
FNDA:1,_ZN40IsConstructible_InitializerListChar_TestD0Ev
FNDA:1,_ZN40IsConstructible_InitializerListChar_TestD2Ev
FNDA:1,_ZN29IsConstructible_NullptrT_Test8TestBodyEv
FNDA:1,_ZN29IsConstructible_NullptrT_TestC2Ev
FNDA:1,_ZN29IsConstructible_NullptrT_TestD0Ev
FNDA:1,_ZN29IsConstructible_NullptrT_TestD2Ev
FNDA:1,_ZN44IsConstructible_ImplicitlyConstructible_Test8TestBodyEv
FNDA:1,_ZN44IsConstructible_ImplicitlyConstructible_TestC2Ev
FNDA:1,_ZN44IsConstructible_ImplicitlyConstructible_TestD0Ev
FNDA:1,_ZN44IsConstructible_ImplicitlyConstructible_TestD2Ev
FNDA:1,_ZN38IsConstructible_NotSupportedTypes_Test8TestBodyEv
FNDA:1,_ZN38IsConstructible_NotSupportedTypes_TestC2Ev
FNDA:1,_ZN38IsConstructible_NotSupportedTypes_TestD0Ev
FNDA:1,_ZN38IsConstructible_NotSupportedTypes_TestD2Ev
FNF:28
FNH:24
DA:16,0
DA:20,0
DA:24,0
DA:28,0
DA:29,0
DA:30,0
DA:36,4
DA:37,1
DA:40,1
DA:41,2
DA:42,1
DA:44,1
DA:45,2
DA:46,1
DA:47,1
DA:49,4
DA:50,1
DA:53,1
DA:54,2
DA:55,1
DA:56,1
DA:58,4
DA:59,1
DA:62,1
DA:63,2
DA:64,1
DA:65,1
DA:67,4
DA:68,1
DA:74,1
DA:76,4
DA:77,1
DA:78,1
DA:79,1
DA:80,1
DA:81,1
DA:83,4
DA:84,1
DA:85,1
DA:86,1
DA:87,1
DA:88,1
LF:42
LH:36
end_of_record
TN:
SF:/home/marabella/Desktop/C++/Projects/UniversalConverterToString/tests/UniversalConverterToStringTraitsTests/is_convertible_to_base_tests.cpp
FN:22,22,_ZNK36DerivedFromStringWithConvertOperatorcvNSt7__cxx1112basic_stringIcSt11char_traitsIcESaIcEEEEv
FN:34,34,_ZN42IsConvertibleToBase_PublicInheritance_Test8TestBodyEv
FN:34,34,_ZN42IsConvertibleToBase_PublicInheritance_TestC2Ev
FN:34,34,_ZN42IsConvertibleToBase_PublicInheritance_TestD0Ev
FN:34,34,_ZN42IsConvertibleToBase_PublicInheritance_TestD2Ev
FN:43,43,_ZN43IsConvertibleToBase_PrivateInheritance_Test8TestBodyEv
FN:43,43,_ZN43IsConvertibleToBase_PrivateInheritance_TestC2Ev
FN:43,43,_ZN43IsConvertibleToBase_PrivateInheritance_TestD0Ev
FN:43,43,_ZN43IsConvertibleToBase_PrivateInheritance_TestD2Ev
FN:52,52,_ZN45IsConvertibleToBase_ProtectedInheritance_Test8TestBodyEv
FN:52,52,_ZN45IsConvertibleToBase_ProtectedInheritance_TestC2Ev
FN:52,52,_ZN45IsConvertibleToBase_ProtectedInheritance_TestD0Ev
FN:52,52,_ZN45IsConvertibleToBase_ProtectedInheritance_TestD2Ev
FN:61,61,_ZN48IsConvertibleToBase_RaisingCastIsNotAllowed_Test8TestBodyEv
FN:61,61,_ZN48IsConvertibleToBase_RaisingCastIsNotAllowed_TestC2Ev
FN:61,61,_ZN48IsConvertibleToBase_RaisingCastIsNotAllowed_TestD0Ev
FN:61,61,_ZN48IsConvertibleToBase_RaisingCastIsNotAllowed_TestD2Ev
FN:66,66,_ZN55IsConvertibleToBase_InheritanceWithConvertOperator_Test8TestBodyEv
FN:66,66,_ZN55IsConvertibleToBase_InheritanceWithConvertOperator_TestC2Ev
FN:66,66,_ZN55IsConvertibleToBase_InheritanceWithConvertOperator_TestD0Ev
FN:66,66,_ZN55IsConvertibleToBase_InheritanceWithConvertOperator_TestD2Ev
FN:73,73,_ZN42IsConvertibleToBase_NotSupportedTypes_Test8TestBodyEv
FN:73,73,_ZN42IsConvertibleToBase_NotSupportedTypes_TestC2Ev
FN:73,73,_ZN42IsConvertibleToBase_NotSupportedTypes_TestD0Ev
FN:73,73,_ZN42IsConvertibleToBase_NotSupportedTypes_TestD2Ev
FNDA:0,_ZNK36DerivedFromStringWithConvertOperatorcvNSt7__cxx1112basic_stringIcSt11char_traitsIcESaIcEEEEv
FNDA:1,_ZN42IsConvertibleToBase_PublicInheritance_Test8TestBodyEv
FNDA:1,_ZN42IsConvertibleToBase_PublicInheritance_TestC2Ev
FNDA:1,_ZN42IsConvertibleToBase_PublicInheritance_TestD0Ev
FNDA:1,_ZN42IsConvertibleToBase_PublicInheritance_TestD2Ev
FNDA:1,_ZN43IsConvertibleToBase_PrivateInheritance_Test8TestBodyEv
FNDA:1,_ZN43IsConvertibleToBase_PrivateInheritance_TestC2Ev
FNDA:1,_ZN43IsConvertibleToBase_PrivateInheritance_TestD0Ev
FNDA:1,_ZN43IsConvertibleToBase_PrivateInheritance_TestD2Ev
FNDA:1,_ZN45IsConvertibleToBase_ProtectedInheritance_Test8TestBodyEv
FNDA:1,_ZN45IsConvertibleToBase_ProtectedInheritance_TestC2Ev
FNDA:1,_ZN45IsConvertibleToBase_ProtectedInheritance_TestD0Ev
FNDA:1,_ZN45IsConvertibleToBase_ProtectedInheritance_TestD2Ev
FNDA:1,_ZN48IsConvertibleToBase_RaisingCastIsNotAllowed_Test8TestBodyEv
FNDA:1,_ZN48IsConvertibleToBase_RaisingCastIsNotAllowed_TestC2Ev
FNDA:1,_ZN48IsConvertibleToBase_RaisingCastIsNotAllowed_TestD0Ev
FNDA:1,_ZN48IsConvertibleToBase_RaisingCastIsNotAllowed_TestD2Ev
FNDA:1,_ZN55IsConvertibleToBase_InheritanceWithConvertOperator_Test8TestBodyEv
FNDA:1,_ZN55IsConvertibleToBase_InheritanceWithConvertOperator_TestC2Ev
FNDA:1,_ZN55IsConvertibleToBase_InheritanceWithConvertOperator_TestD0Ev
FNDA:1,_ZN55IsConvertibleToBase_InheritanceWithConvertOperator_TestD2Ev
FNDA:1,_ZN42IsConvertibleToBase_NotSupportedTypes_Test8TestBodyEv
FNDA:1,_ZN42IsConvertibleToBase_NotSupportedTypes_TestC2Ev
FNDA:1,_ZN42IsConvertibleToBase_NotSupportedTypes_TestD0Ev
FNDA:1,_ZN42IsConvertibleToBase_NotSupportedTypes_TestD2Ev
FNF:25
FNH:24
DA:22,0
DA:34,4
DA:36,1
DA:37,1
DA:39,2
DA:40,1
DA:41,1
DA:43,4
DA:45,1
DA:46,1
DA:48,1
DA:50,1
DA:52,4
DA:54,1
DA:55,1
DA:57,1
DA:59,1
DA:61,4
DA:62,1
DA:63,1
DA:64,1
DA:66,4
DA:67,1
DA:68,1
DA:69,1
DA:70,1
DA:71,1
DA:73,4
DA:74,1
DA:75,1
DA:76,1
DA:77,1
DA:78,1
LF:33
LH:32
end_of_record
TN:
SF:/home/marabella/Desktop/C++/Projects/UniversalConverterToString/tests/UniversalConverterToStringTraitsTests/is_convertible_to_string_tests.cpp
FN:21,21,_ZNK19WithConvertOperatorcvNSt7__cxx1112basic_stringIcSt11char_traitsIcESaIcEEEEv
FN:25,25,_ZNK27WithExplicitConvertOperatorcvNSt7__cxx1112basic_stringIcSt11char_traitsIcESaIcEEEEv
FN:29,29,_ZNK36DerivedFromStringWithConvertOperatorcvNSt7__cxx1112basic_stringIcSt11char_traitsIcESaIcEEEEv
FN:33,36,_ZlsRSoRK18WithOutputOperator
FN:41,41,_ZN46IsConvertibleToString_SupportedTypesCheck_Test8TestBodyEv
FN:41,41,_ZN46IsConvertibleToString_SupportedTypesCheck_TestC2Ev
FN:41,41,_ZN46IsConvertibleToString_SupportedTypesCheck_TestD0Ev
FN:41,41,_ZN46IsConvertibleToString_SupportedTypesCheck_TestD2Ev
FN:62,62,_ZN56IsConvertibleToString_AdditionalSupportedTypesCheck_Test8TestBodyEv
FN:62,62,_ZN56IsConvertibleToString_AdditionalSupportedTypesCheck_TestC2Ev
FN:62,62,_ZN56IsConvertibleToString_AdditionalSupportedTypesCheck_TestD0Ev
FN:62,62,_ZN56IsConvertibleToString_AdditionalSupportedTypesCheck_TestD2Ev
FN:73,73,_ZN44IsConvertibleToString_NotSupportedTypes_Test8TestBodyEv
FN:73,73,_ZN44IsConvertibleToString_NotSupportedTypes_TestC2Ev
FN:73,73,_ZN44IsConvertibleToString_NotSupportedTypes_TestD0Ev
FN:73,73,_ZN44IsConvertibleToString_NotSupportedTypes_TestD2Ev
FNDA:0,_ZNK19WithConvertOperatorcvNSt7__cxx1112basic_stringIcSt11char_traitsIcESaIcEEEEv
FNDA:0,_ZNK27WithExplicitConvertOperatorcvNSt7__cxx1112basic_stringIcSt11char_traitsIcESaIcEEEEv
FNDA:0,_ZNK36DerivedFromStringWithConvertOperatorcvNSt7__cxx1112basic_stringIcSt11char_traitsIcESaIcEEEEv
FNDA:0,_ZlsRSoRK18WithOutputOperator
FNDA:1,_ZN46IsConvertibleToString_SupportedTypesCheck_Test8TestBodyEv
FNDA:1,_ZN46IsConvertibleToString_SupportedTypesCheck_TestC2Ev
FNDA:1,_ZN46IsConvertibleToString_SupportedTypesCheck_TestD0Ev
FNDA:1,_ZN46IsConvertibleToString_SupportedTypesCheck_TestD2Ev
FNDA:1,_ZN56IsConvertibleToString_AdditionalSupportedTypesCheck_Test8TestBodyEv
FNDA:1,_ZN56IsConvertibleToString_AdditionalSupportedTypesCheck_TestC2Ev
FNDA:1,_ZN56IsConvertibleToString_AdditionalSupportedTypesCheck_TestD0Ev
FNDA:1,_ZN56IsConvertibleToString_AdditionalSupportedTypesCheck_TestD2Ev
FNDA:1,_ZN44IsConvertibleToString_NotSupportedTypes_Test8TestBodyEv
FNDA:1,_ZN44IsConvertibleToString_NotSupportedTypes_TestC2Ev
FNDA:1,_ZN44IsConvertibleToString_NotSupportedTypes_TestD0Ev
FNDA:1,_ZN44IsConvertibleToString_NotSupportedTypes_TestD2Ev
FNF:16
FNH:12
DA:21,0
DA:25,0
DA:29,0
DA:33,0
DA:34,0
DA:35,0
DA:41,4
DA:42,1
DA:43,1
DA:44,1
DA:45,1
DA:46,1
DA:47,1
DA:48,1
DA:49,1
DA:50,1
DA:51,1
DA:52,1
DA:53,1
DA:54,1
DA:55,1
DA:56,1
DA:57,1
DA:58,1
DA:59,1
DA:60,1
DA:62,4
DA:65,1
DA:66,1
DA:67,1
DA:68,1
DA:69,1
DA:70,1
DA:71,1
DA:73,4
DA:74,1
DA:75,1
DA:76,1
DA:77,1
DA:78,1
LF:40
LH:34
end_of_record
TN:
SF:/home/marabella/Desktop/C++/Projects/UniversalConverterToString/tests/UniversalConverterToStringTraitsTests/is_to_string_compatible_tests.cpp
FN:10,10,_ZN43IsToStringCompatible_DifferentRefTypes_Test8TestBodyEv
FN:10,10,_ZN43IsToStringCompatible_DifferentRefTypes_TestC2Ev
FN:10,10,_ZN43IsToStringCompatible_DifferentRefTypes_TestD0Ev
FN:10,10,_ZN43IsToStringCompatible_DifferentRefTypes_TestD2Ev
FN:18,18,_ZN50IsToStringCompatible_ExplicitlySupportedTypes_Test8TestBodyEv
FN:18,18,_ZN50IsToStringCompatible_ExplicitlySupportedTypes_TestC2Ev
FN:18,18,_ZN50IsToStringCompatible_ExplicitlySupportedTypes_TestD0Ev
FN:18,18,_ZN50IsToStringCompatible_ExplicitlySupportedTypes_TestD2Ev
FN:30,30,_ZN50IsToStringCompatible_ImplicitlySupportedTypes_Test8TestBodyEv
FN:30,30,_ZN50IsToStringCompatible_ImplicitlySupportedTypes_TestC2Ev
FN:30,30,_ZN50IsToStringCompatible_ImplicitlySupportedTypes_TestD0Ev
FN:30,30,_ZN50IsToStringCompatible_ImplicitlySupportedTypes_TestD2Ev
FNDA:1,_ZN43IsToStringCompatible_DifferentRefTypes_Test8TestBodyEv
FNDA:1,_ZN43IsToStringCompatible_DifferentRefTypes_TestC2Ev
FNDA:1,_ZN43IsToStringCompatible_DifferentRefTypes_TestD0Ev
FNDA:1,_ZN43IsToStringCompatible_DifferentRefTypes_TestD2Ev
FNDA:1,_ZN50IsToStringCompatible_ExplicitlySupportedTypes_Test8TestBodyEv
FNDA:1,_ZN50IsToStringCompatible_ExplicitlySupportedTypes_TestC2Ev
FNDA:1,_ZN50IsToStringCompatible_ExplicitlySupportedTypes_TestD0Ev
FNDA:1,_ZN50IsToStringCompatible_ExplicitlySupportedTypes_TestD2Ev
FNDA:1,_ZN50IsToStringCompatible_ImplicitlySupportedTypes_Test8TestBodyEv
FNDA:1,_ZN50IsToStringCompatible_ImplicitlySupportedTypes_TestC2Ev
FNDA:1,_ZN50IsToStringCompatible_ImplicitlySupportedTypes_TestD0Ev
FNDA:1,_ZN50IsToStringCompatible_ImplicitlySupportedTypes_TestD2Ev
FNF:12
FNH:12
DA:10,4
DA:12,1
DA:13,1
DA:14,1
DA:15,1
DA:16,1
DA:18,4
DA:19,1
DA:20,1
DA:21,1
DA:22,1
DA:23,1
DA:24,1
DA:25,1
DA:26,1
DA:27,1
DA:28,1
DA:30,4
DA:31,1
DA:32,1
DA:33,1
DA:34,1
DA:35,1
DA:36,1
DA:37,1
LF:25
LH:25
end_of_record
TN:
SF:/usr/include/c++/13/any
FN:153,153,_ZNSt3anyC2Ev
FN:156,166,_ZNSt3anyC2ERKS_
FN:173,183,_ZNSt3anyC2EOS_
FN:221,221,_ZNSt3anyD2Ev
FN:227,231,_ZNSt3anyaSERKS_
FN:239,251,_ZNSt3anyaSEOS_
FN:286,293,_ZNSt3any5resetEv
FN:296,323,_ZNSt3any4swapERS_
FN:328,328,_ZNKSt3any9has_valueEv
FN:332,339,_ZNKSt3any4typeEv
FN:429,429,_ZSt4swapRSt3anyS0_
FN:58,58,_ZNKSt12bad_any_cast4whatEv
FN:61,68,_ZSt20__throw_bad_any_castv
FN:85,85,_ZNSt3any8_StorageC2Ev
FNDA:0,_ZNSt3anyC2Ev
FNDA:0,_ZNSt3anyC2ERKS_
FNDA:0,_ZNSt3anyC2EOS_
FNDA:0,_ZNSt3anyD2Ev
FNDA:0,_ZNSt3anyaSERKS_
FNDA:0,_ZNSt3anyaSEOS_
FNDA:0,_ZNSt3any5resetEv
FNDA:0,_ZNSt3any4swapERS_
FNDA:0,_ZNKSt3any9has_valueEv
FNDA:0,_ZNKSt3any4typeEv
FNDA:0,_ZSt4swapRSt3anyS0_
FNDA:0,_ZNKSt12bad_any_cast4whatEv
FNDA:0,_ZSt20__throw_bad_any_castv
FNDA:0,_ZNSt3any8_StorageC2Ev
FNF:14
FNH:0
DA:58,0
DA:61,0
DA:64,0
DA:85,0
DA:153,0
DA:156,0
DA:157,0
DA:158,0
DA:159,0
DA:163,0
DA:164,0
DA:166,0
DA:173,0
DA:174,0
DA:175,0
DA:176,0
DA:180,0
DA:181,0
DA:183,0
DA:221,0
DA:227,0
DA:229,0
DA:230,0
DA:239,0
DA:241,0
DA:242,0
DA:243,0
DA:245,0
DA:247,0
DA:248,0
DA:250,0
DA:286,0
DA:288,0
DA:290,0
DA:291,0
DA:293,0
DA:296,0
DA:298,0
DA:299,0
DA:301,0
DA:303,0
DA:304,0
DA:306,0
DA:308,0
DA:309,0
DA:310,0
DA:311,0
DA:312,0
DA:313,0
DA:314,0
DA:317,0
DA:318,0
DA:320,0
DA:321,0
DA:328,0
DA:332,0
DA:334,0
DA:335,0
DA:337,0
DA:338,0
DA:429,0
LF:61
LH:0
end_of_record
TN:
SF:/usr/include/c++/13/atomic
FN:1020,1020,_ZNSt6atomicIDsEC2EDs
FN:103,104,_ZNSt6atomicIbE5storeEbSt12memory_order
FN:1044,1044,_ZNSt6atomicIDiEC2EDi
FN:107,108,_ZNVSt6atomicIbE5storeEbSt12memory_order
FN:111,112,_ZNKSt6atomicIbE4loadESt12memory_order
FN:115,116,_ZNVKSt6atomicIbE4loadESt12memory_order
FN:119,120,_ZNSt6atomicIbE8exchangeEbSt12memory_order
FN:1208,1210,_ZSt33atomic_flag_test_and_set_explicitPSt11atomic_flagSt12memory_order
FN:1213,1215,_ZSt33atomic_flag_test_and_set_explicitPVSt11atomic_flagSt12memory_order
FN:123,125,_ZNVSt6atomicIbE8exchangeEbSt12memory_order
FN:1238,1239,_ZSt26atomic_flag_clear_explicitPSt11atomic_flagSt12memory_order
FN:1242,1244,_ZSt26atomic_flag_clear_explicitPVSt11atomic_flagSt12memory_order
FN:1247,1248,_ZSt24atomic_flag_test_and_setPSt11atomic_flag
FN:1251,1252,_ZSt24atomic_flag_test_and_setPVSt11atomic_flag
FN:1255,1256,_ZSt17atomic_flag_clearPSt11atomic_flag
FN:1259,1260,_ZSt17atomic_flag_clearPVSt11atomic_flag
FN:128,130,_ZNSt6atomicIbE21compare_exchange_weakERbbSt12memory_orderS2_
FN:133,135,_ZNVSt6atomicIbE21compare_exchange_weakERbbSt12memory_orderS2_
FN:138,140,_ZNSt6atomicIbE21compare_exchange_weakERbbSt12memory_order
FN:143,145,_ZNVSt6atomicIbE21compare_exchange_weakERbbSt12memory_order
FN:148,150,_ZNSt6atomicIbE23compare_exchange_strongERbbSt12memory_orderS2_
FN:153,155,_ZNVSt6atomicIbE23compare_exchange_strongERbbSt12memory_orderS2_
FN:158,160,_ZNSt6atomicIbE23compare_exchange_strongERbbSt12memory_order
FN:163,165,_ZNVSt6atomicIbE23compare_exchange_strongERbbSt12memory_order
FN:718,718,_ZNSt6atomicIcEC2Ec
FN:741,741,_ZNSt6atomicIaEC2Ea
FN:76,76,_ZNSt6atomicIbEC2Eb
FN:764,764,_ZNSt6atomicIhEC2Eh
FN:787,787,_ZNSt6atomicIsEC2Es
FN:79,80,_ZNSt6atomicIbEaSEb
FN:810,810,_ZNSt6atomicItEC2Et
FN:83,84,_ZNVSt6atomicIbEaSEb
FN:833,833,_ZNSt6atomicIiEC2Ei
FN:856,856,_ZNSt6atomicIjEC2Ej
FN:86,87,_ZNKSt6atomicIbEcvbEv
FN:879,879,_ZNSt6atomicIlEC2El
FN:89,90,_ZNVKSt6atomicIbEcvbEv
FN:902,902,_ZNSt6atomicImEC2Em
FN:925,925,_ZNSt6atomicIxEC2Ex
FN:93,93,_ZNKSt6atomicIbE12is_lock_freeEv
FN:948,948,_ZNSt6atomicIyEC2Ey
FN:96,96,_ZNVKSt6atomicIbE12is_lock_freeEv
FN:971,971,_ZNSt6atomicIwEC2Ew
FNDA:0,_ZNSt6atomicIDsEC2EDs
FNDA:0,_ZNSt6atomicIbE5storeEbSt12memory_order
FNDA:0,_ZNSt6atomicIDiEC2EDi
FNDA:0,_ZNVSt6atomicIbE5storeEbSt12memory_order
FNDA:0,_ZNKSt6atomicIbE4loadESt12memory_order
FNDA:0,_ZNVKSt6atomicIbE4loadESt12memory_order
FNDA:0,_ZNSt6atomicIbE8exchangeEbSt12memory_order
FNDA:0,_ZSt33atomic_flag_test_and_set_explicitPSt11atomic_flagSt12memory_order
FNDA:0,_ZSt33atomic_flag_test_and_set_explicitPVSt11atomic_flagSt12memory_order
FNDA:0,_ZNVSt6atomicIbE8exchangeEbSt12memory_order
FNDA:0,_ZSt26atomic_flag_clear_explicitPSt11atomic_flagSt12memory_order
FNDA:0,_ZSt26atomic_flag_clear_explicitPVSt11atomic_flagSt12memory_order
FNDA:0,_ZSt24atomic_flag_test_and_setPSt11atomic_flag
FNDA:0,_ZSt24atomic_flag_test_and_setPVSt11atomic_flag
FNDA:0,_ZSt17atomic_flag_clearPSt11atomic_flag
FNDA:0,_ZSt17atomic_flag_clearPVSt11atomic_flag
FNDA:0,_ZNSt6atomicIbE21compare_exchange_weakERbbSt12memory_orderS2_
FNDA:0,_ZNVSt6atomicIbE21compare_exchange_weakERbbSt12memory_orderS2_
FNDA:0,_ZNSt6atomicIbE21compare_exchange_weakERbbSt12memory_order
FNDA:0,_ZNVSt6atomicIbE21compare_exchange_weakERbbSt12memory_order
FNDA:0,_ZNSt6atomicIbE23compare_exchange_strongERbbSt12memory_orderS2_
FNDA:0,_ZNVSt6atomicIbE23compare_exchange_strongERbbSt12memory_orderS2_
FNDA:0,_ZNSt6atomicIbE23compare_exchange_strongERbbSt12memory_order
FNDA:0,_ZNVSt6atomicIbE23compare_exchange_strongERbbSt12memory_order
FNDA:0,_ZNSt6atomicIcEC2Ec
FNDA:0,_ZNSt6atomicIaEC2Ea
FNDA:0,_ZNSt6atomicIbEC2Eb
FNDA:0,_ZNSt6atomicIhEC2Eh
FNDA:0,_ZNSt6atomicIsEC2Es
FNDA:0,_ZNSt6atomicIbEaSEb
FNDA:0,_ZNSt6atomicItEC2Et
FNDA:0,_ZNVSt6atomicIbEaSEb
FNDA:0,_ZNSt6atomicIiEC2Ei
FNDA:0,_ZNSt6atomicIjEC2Ej
FNDA:0,_ZNKSt6atomicIbEcvbEv
FNDA:0,_ZNSt6atomicIlEC2El
FNDA:0,_ZNVKSt6atomicIbEcvbEv
FNDA:0,_ZNSt6atomicImEC2Em
FNDA:0,_ZNSt6atomicIxEC2Ex
FNDA:0,_ZNKSt6atomicIbE12is_lock_freeEv
FNDA:0,_ZNSt6atomicIyEC2Ey
FNDA:0,_ZNVKSt6atomicIbE12is_lock_freeEv
FNDA:0,_ZNSt6atomicIwEC2Ew
FNF:43
FNH:0
DA:76,0
DA:79,0
DA:80,0
DA:83,0
DA:84,0
DA:86,0
DA:87,0
DA:89,0
DA:90,0
DA:93,0
DA:96,0
DA:103,0
DA:104,0
DA:107,0
DA:108,0
DA:111,0
DA:112,0
DA:115,0
DA:116,0
DA:119,0
DA:120,0
DA:123,0
DA:125,0
DA:128,0
DA:130,0
DA:133,0
DA:135,0
DA:138,0
DA:140,0
DA:143,0
DA:145,0
DA:148,0
DA:150,0
DA:153,0
DA:155,0
DA:158,0
DA:160,0
DA:163,0
DA:165,0
DA:718,0
DA:741,0
DA:764,0
DA:787,0
DA:810,0
DA:833,0
DA:856,0
DA:879,0
DA:902,0
DA:925,0
DA:948,0
DA:971,0
DA:1020,0
DA:1044,0
DA:1208,0
DA:1210,0
DA:1213,0
DA:1215,0
DA:1238,0
DA:1239,0
DA:1242,0
DA:1244,0
DA:1247,0
DA:1248,0
DA:1251,0
DA:1252,0
DA:1255,0
DA:1256,0
DA:1259,0
DA:1260,0
LF:69
LH:0
end_of_record
TN:
SF:/usr/include/c++/13/bits/align.h
FN:62,76,_ZSt5alignmmRPvRm
FNDA:0,_ZSt5alignmmRPvRm
FNF:1
FNH:0
DA:62,0
DA:64,0
DA:65,0
DA:66,0
DA:67,0
DA:68,0
DA:69,0
DA:70,0
DA:73,0
DA:74,0
LF:10
LH:0
end_of_record
TN:
SF:/usr/include/c++/13/bits/alloc_traits.h
FN:481,482,_ZNSt16allocator_traitsISaIDiEE8allocateERS0_m
FN:481,482,_ZNSt16allocator_traitsISaIDsEE8allocateERS0_m
FN:481,482,_ZNSt16allocator_traitsISaINSt7__cxx1112basic_stringIcSt11char_traitsIcESaIcEEEEE8allocateERS6_m
FN:481,482,_ZNSt16allocator_traitsISaIPNSt7__cxx1112basic_stringIcSt11char_traitsIcESaIcEEEEE8allocateERS7_m
FN:481,482,_ZNSt16allocator_traitsISaISt13_Rb_tree_nodeISt4pairIKNSt7__cxx1112basic_stringIcSt11char_traitsIcESaIcEEEN7testing8internal12CodeLocationEEEEE8allocateERSE_m
FN:481,482,_ZNSt16allocator_traitsISaISt23_Sp_counted_ptr_inplaceISt5mutexSaIvELN9__gnu_cxx12_Lock_policyE2EEEE8allocateERS6_m
FN:481,482,_ZNSt16allocator_traitsISaIcEE8allocateERS0_m
FN:481,482,_ZNSt16allocator_traitsISaImEE8allocateERS0_m
FN:516,517,_ZNSt16allocator_traitsISaIDiEE10deallocateERS0_PDim
FN:516,517,_ZNSt16allocator_traitsISaIDsEE10deallocateERS0_PDsm
FN:516,517,_ZNSt16allocator_traitsISaINSt7__cxx1112basic_stringIcSt11char_traitsIcESaIcEEEEE10deallocateERS6_PS5_m
FN:516,517,_ZNSt16allocator_traitsISaINSt8__detail10_Hash_nodeISt4pairIKNSt7__cxx1112basic_stringIcSt11char_traitsIcESaIcEEEmELb1EEEEE10deallocateERSC_PSB_m
FN:516,517,_ZNSt16allocator_traitsISaIPN7testing8internal30ParameterizedTestSuiteInfoBaseEEE10deallocateERS4_PS3_m
FN:516,517,_ZNSt16allocator_traitsISaIPNSt7__cxx1112basic_stringIcSt11char_traitsIcESaIcEEEEE10deallocateERS7_PS6_m
FN:516,517,_ZNSt16allocator_traitsISaIPNSt8__detail15_Hash_node_baseEEE10deallocateERS3_PS2_m
FN:516,517,_ZNSt16allocator_traitsISaISt13_Rb_tree_nodeISt4pairIKNSt7__cxx1112basic_stringIcSt11char_traitsIcESaIcEEEN7testing8internal12CodeLocationEEEEE10deallocateERSE_PSD_m
FN:516,517,_ZNSt16allocator_traitsISaISt23_Sp_counted_ptr_inplaceISt5mutexSaIvELN9__gnu_cxx12_Lock_policyE2EEEE10deallocateERS6_PS5_m
FN:516,517,_ZNSt16allocator_traitsISaIcEE10deallocateERS0_Pcm
FN:516,517,_ZNSt16allocator_traitsISaIiEE10deallocateERS0_Pim
FN:516,517,_ZNSt16allocator_traitsISaImEE10deallocateERS0_Pmm
FN:516,517,_ZNSt16allocator_traitsISaIwEE10deallocateERS0_Pwm
FN:533,542,_ZNSt16allocator_traitsISaISt13_Rb_tree_nodeISt4pairIKNSt7__cxx1112basic_stringIcSt11char_traitsIcESaIcEEEN7testing8internal12CodeLocationEEEEE9constructISC_JRPKcSB_EEEvRSE_PT_DpOT0_
FN:554,562,_ZNSt16allocator_traitsISaINSt8__detail10_Hash_nodeISt4pairIKNSt7__cxx1112basic_stringIcSt11char_traitsIcESaIcEEEmELb1EEEEE7destroyISA_EEvRSC_PT_
FN:554,562,_ZNSt16allocator_traitsISaISt13_Rb_tree_nodeISt4pairIKNSt7__cxx1112basic_stringIcSt11char_traitsIcESaIcEEEN7testing8internal12CodeLocationEEEEE7destroyISC_EEvRSE_PT_
FN:571,578,_ZNSt16allocator_traitsISaIDiEE8max_sizeERKS0_
FN:571,578,_ZNSt16allocator_traitsISaIDsEE8max_sizeERKS0_
FN:571,578,_ZNSt16allocator_traitsISaIcEE8max_sizeERKS0_
FN:587,588,_ZNSt16allocator_traitsISaIcEE37select_on_container_copy_constructionERKS0_
FN:659,661,_ZNSt16allocator_traitsISaIvEE9constructISt5mutexJEEEvRS0_PT_DpOT0_
FN:673,675,_ZNSt16allocator_traitsISaIvEE7destroyISt5mutexEEvRS0_PT_
FN:688,689,_ZNSt16allocator_traitsISaIvEE37select_on_container_copy_constructionERKS0_
FN:711,722,_ZSt15__alloc_on_copyISaIcEEvRT_RKS1_
FN:748,759,_ZSt15__alloc_on_moveISaIcEEvRT_S2_
FN:945,949,_ZSt8_DestroyIPNSt7__cxx1112basic_stringIcSt11char_traitsIcESaIcEEES5_EvT_S7_RSaIT0_E
FN:945,949,_ZSt8_DestroyIPPN7testing8internal30ParameterizedTestSuiteInfoBaseES3_EvT_S5_RSaIT0_E
FN:945,949,_ZSt8_DestroyIPiiEvT_S1_RSaIT0_E
FNDA:0,_ZNSt16allocator_traitsISaIDiEE8allocateERS0_m
FNDA:0,_ZNSt16allocator_traitsISaIDsEE8allocateERS0_m
FNDA:0,_ZNSt16allocator_traitsISaINSt7__cxx1112basic_stringIcSt11char_traitsIcESaIcEEEEE8allocateERS6_m
FNDA:0,_ZNSt16allocator_traitsISaIPNSt7__cxx1112basic_stringIcSt11char_traitsIcESaIcEEEEE8allocateERS7_m
FNDA:0,_ZNSt16allocator_traitsISaISt13_Rb_tree_nodeISt4pairIKNSt7__cxx1112basic_stringIcSt11char_traitsIcESaIcEEEN7testing8internal12CodeLocationEEEEE8allocateERSE_m
FNDA:0,_ZNSt16allocator_traitsISaISt23_Sp_counted_ptr_inplaceISt5mutexSaIvELN9__gnu_cxx12_Lock_policyE2EEEE8allocateERS6_m
FNDA:0,_ZNSt16allocator_traitsISaIcEE8allocateERS0_m
FNDA:0,_ZNSt16allocator_traitsISaImEE8allocateERS0_m
FNDA:0,_ZNSt16allocator_traitsISaIDiEE10deallocateERS0_PDim
FNDA:0,_ZNSt16allocator_traitsISaIDsEE10deallocateERS0_PDsm
FNDA:0,_ZNSt16allocator_traitsISaINSt7__cxx1112basic_stringIcSt11char_traitsIcESaIcEEEEE10deallocateERS6_PS5_m
FNDA:0,_ZNSt16allocator_traitsISaINSt8__detail10_Hash_nodeISt4pairIKNSt7__cxx1112basic_stringIcSt11char_traitsIcESaIcEEEmELb1EEEEE10deallocateERSC_PSB_m
FNDA:0,_ZNSt16allocator_traitsISaIPN7testing8internal30ParameterizedTestSuiteInfoBaseEEE10deallocateERS4_PS3_m
FNDA:0,_ZNSt16allocator_traitsISaIPNSt7__cxx1112basic_stringIcSt11char_traitsIcESaIcEEEEE10deallocateERS7_PS6_m
FNDA:0,_ZNSt16allocator_traitsISaIPNSt8__detail15_Hash_node_baseEEE10deallocateERS3_PS2_m
FNDA:0,_ZNSt16allocator_traitsISaISt13_Rb_tree_nodeISt4pairIKNSt7__cxx1112basic_stringIcSt11char_traitsIcESaIcEEEN7testing8internal12CodeLocationEEEEE10deallocateERSE_PSD_m
FNDA:0,_ZNSt16allocator_traitsISaISt23_Sp_counted_ptr_inplaceISt5mutexSaIvELN9__gnu_cxx12_Lock_policyE2EEEE10deallocateERS6_PS5_m
FNDA:0,_ZNSt16allocator_traitsISaIcEE10deallocateERS0_Pcm
FNDA:0,_ZNSt16allocator_traitsISaIiEE10deallocateERS0_Pim
FNDA:0,_ZNSt16allocator_traitsISaImEE10deallocateERS0_Pmm
FNDA:0,_ZNSt16allocator_traitsISaIwEE10deallocateERS0_Pwm
FNDA:0,_ZNSt16allocator_traitsISaISt13_Rb_tree_nodeISt4pairIKNSt7__cxx1112basic_stringIcSt11char_traitsIcESaIcEEEN7testing8internal12CodeLocationEEEEE9constructISC_JRPKcSB_EEEvRSE_PT_DpOT0_
FNDA:0,_ZNSt16allocator_traitsISaINSt8__detail10_Hash_nodeISt4pairIKNSt7__cxx1112basic_stringIcSt11char_traitsIcESaIcEEEmELb1EEEEE7destroyISA_EEvRSC_PT_
FNDA:0,_ZNSt16allocator_traitsISaISt13_Rb_tree_nodeISt4pairIKNSt7__cxx1112basic_stringIcSt11char_traitsIcESaIcEEEN7testing8internal12CodeLocationEEEEE7destroyISC_EEvRSE_PT_
FNDA:0,_ZNSt16allocator_traitsISaIDiEE8max_sizeERKS0_
FNDA:0,_ZNSt16allocator_traitsISaIDsEE8max_sizeERKS0_
FNDA:0,_ZNSt16allocator_traitsISaIcEE8max_sizeERKS0_
FNDA:0,_ZNSt16allocator_traitsISaIcEE37select_on_container_copy_constructionERKS0_
FNDA:0,_ZNSt16allocator_traitsISaIvEE9constructISt5mutexJEEEvRS0_PT_DpOT0_
FNDA:0,_ZNSt16allocator_traitsISaIvEE7destroyISt5mutexEEvRS0_PT_
FNDA:0,_ZNSt16allocator_traitsISaIvEE37select_on_container_copy_constructionERKS0_
FNDA:0,_ZSt15__alloc_on_copyISaIcEEvRT_RKS1_
FNDA:0,_ZSt15__alloc_on_moveISaIcEEvRT_S2_
FNDA:0,_ZSt8_DestroyIPNSt7__cxx1112basic_stringIcSt11char_traitsIcESaIcEEES5_EvT_S7_RSaIT0_E
FNDA:0,_ZSt8_DestroyIPPN7testing8internal30ParameterizedTestSuiteInfoBaseES3_EvT_S5_RSaIT0_E
FNDA:0,_ZSt8_DestroyIPiiEvT_S1_RSaIT0_E
FNF:36
FNH:0
DA:481,0
DA:482,2
DA:516,0
DA:517,12
DA:533,0
DA:538,0
DA:542,0
DA:554,0
DA:562,0
DA:571,0
DA:574,0
DA:587,0
DA:588,0
DA:659,0
DA:661,0
DA:673,0
DA:675,0
DA:688,0
DA:689,0
DA:711,0
DA:722,0
DA:748,0
DA:755,0
DA:759,0
DA:945,0
DA:948,10
DA:949,10
LF:27
LH:4
end_of_record
TN:
SF:/usr/include/c++/13/bits/allocated_ptr.h
FN:53,55,_ZNSt15__allocated_ptrISaISt23_Sp_counted_ptr_inplaceISt5mutexSaIvELN9__gnu_cxx12_Lock_policyE2EEEEC2ERS6_PS5_
FN:71,75,_ZNSt15__allocated_ptrISaISt23_Sp_counted_ptr_inplaceISt5mutexSaIvELN9__gnu_cxx12_Lock_policyE2EEEED2Ev
FN:79,83,_ZNSt15__allocated_ptrISaISt23_Sp_counted_ptr_inplaceISt5mutexSaIvELN9__gnu_cxx12_Lock_policyE2EEEEaSEDn
FN:86,86,_ZNSt15__allocated_ptrISaISt23_Sp_counted_ptr_inplaceISt5mutexSaIvELN9__gnu_cxx12_Lock_policyE2EEEE3getEv
FN:96,99,_ZSt18__allocate_guardedISaISt23_Sp_counted_ptr_inplaceISt5mutexSaIvELN9__gnu_cxx12_Lock_policyE2EEEESt15__allocated_ptrIT_ERS8_
FNDA:0,_ZNSt15__allocated_ptrISaISt23_Sp_counted_ptr_inplaceISt5mutexSaIvELN9__gnu_cxx12_Lock_policyE2EEEEC2ERS6_PS5_
FNDA:0,_ZNSt15__allocated_ptrISaISt23_Sp_counted_ptr_inplaceISt5mutexSaIvELN9__gnu_cxx12_Lock_policyE2EEEED2Ev
FNDA:0,_ZNSt15__allocated_ptrISaISt23_Sp_counted_ptr_inplaceISt5mutexSaIvELN9__gnu_cxx12_Lock_policyE2EEEEaSEDn
FNDA:0,_ZNSt15__allocated_ptrISaISt23_Sp_counted_ptr_inplaceISt5mutexSaIvELN9__gnu_cxx12_Lock_policyE2EEEE3getEv
FNDA:0,_ZSt18__allocate_guardedISaISt23_Sp_counted_ptr_inplaceISt5mutexSaIvELN9__gnu_cxx12_Lock_policyE2EEEESt15__allocated_ptrIT_ERS8_
FNF:5
FNH:0
DA:53,0
DA:54,0
DA:55,0
DA:71,0
DA:73,0
DA:74,0
DA:75,0
DA:79,0
DA:81,0
DA:82,0
DA:86,0
DA:96,0
DA:98,0
LF:13
LH:0
end_of_record
TN:
SF:/usr/include/c++/13/bits/allocator.h
FN:163,163,_ZNSaIDiEC2Ev
FN:163,163,_ZNSaIDsEC2Ev
FN:163,163,_ZNSaINSt7__cxx1112basic_stringIcSt11char_traitsIcESaIcEEEEC2Ev
FN:163,163,_ZNSaISt13_Rb_tree_nodeISt4pairIKNSt7__cxx1112basic_stringIcSt11char_traitsIcESaIcEEEN7testing8internal12CodeLocationEEEEC2Ev
FN:163,163,_ZNSaIbEC2Ev
FN:163,163,_ZNSaIiEC2Ev
FN:167,168,_ZNSaIDiEC2ERKS_
FN:167,168,_ZNSaIDsEC2ERKS_
FN:167,168,_ZNSaImEC2ERKS_
FN:178,178,_ZNSaIPNSt7__cxx1112basic_stringIcSt11char_traitsIcESaIcEEEEC2IS4_EERKSaIT_E
FN:178,178,_ZNSaIPNSt8__detail15_Hash_node_baseEEC2INS_10_Hash_nodeISt4pairIKNSt7__cxx1112basic_stringIcSt11char_traitsIcESaIcEEEmELb1EEEEERKSaIT_E
FN:178,178,_ZNSaISt23_Sp_counted_ptr_inplaceISt5mutexSaIvELN9__gnu_cxx12_Lock_policyE2EEEC2IvEERKSaIT_E
FN:178,178,_ZNSaImEC2IbEERKSaIT_E
FN:184,184,_ZNSaIDiED2Ev
FN:184,184,_ZNSaIDsED2Ev
FN:184,184,_ZNSaINSt7__cxx1112basic_stringIcSt11char_traitsIcESaIcEEEED2Ev
FN:184,184,_ZNSaINSt8__detail10_Hash_nodeISt4pairIKNSt7__cxx1112basic_stringIcSt11char_traitsIcESaIcEEEmELb1EEEED2Ev
FN:184,184,_ZNSaIPN7testing8internal30ParameterizedTestSuiteInfoBaseEED2Ev
FN:184,184,_ZNSaIPNSt7__cxx1112basic_stringIcSt11char_traitsIcESaIcEEEED2Ev
FN:184,184,_ZNSaIPNSt8__detail15_Hash_node_baseEED2Ev
FN:184,184,_ZNSaISt13_Rb_tree_nodeISt4pairIKNSt7__cxx1112basic_stringIcSt11char_traitsIcESaIcEEEN7testing8internal12CodeLocationEEEED2Ev
FN:184,184,_ZNSaISt23_Sp_counted_ptr_inplaceISt5mutexSaIvELN9__gnu_cxx12_Lock_policyE2EEED2Ev
FN:184,184,_ZNSaIbED2Ev
FN:184,184,_ZNSaIiED2Ev
FN:184,184,_ZNSaImED2Ev
FN:216,217,_ZSteqRKSaIcES1_
FN:222,223,_ZStneRKSaIcES1_
FNDA:0,_ZNSaIDiEC2Ev
FNDA:0,_ZNSaIDsEC2Ev
FNDA:0,_ZNSaINSt7__cxx1112basic_stringIcSt11char_traitsIcESaIcEEEEC2Ev
FNDA:0,_ZNSaISt13_Rb_tree_nodeISt4pairIKNSt7__cxx1112basic_stringIcSt11char_traitsIcESaIcEEEN7testing8internal12CodeLocationEEEEC2Ev
FNDA:0,_ZNSaIbEC2Ev
FNDA:0,_ZNSaIiEC2Ev
FNDA:0,_ZNSaIDiEC2ERKS_
FNDA:0,_ZNSaIDsEC2ERKS_
FNDA:0,_ZNSaImEC2ERKS_
FNDA:0,_ZNSaIPNSt7__cxx1112basic_stringIcSt11char_traitsIcESaIcEEEEC2IS4_EERKSaIT_E
FNDA:0,_ZNSaIPNSt8__detail15_Hash_node_baseEEC2INS_10_Hash_nodeISt4pairIKNSt7__cxx1112basic_stringIcSt11char_traitsIcESaIcEEEmELb1EEEEERKSaIT_E
FNDA:0,_ZNSaISt23_Sp_counted_ptr_inplaceISt5mutexSaIvELN9__gnu_cxx12_Lock_policyE2EEEC2IvEERKSaIT_E
FNDA:0,_ZNSaImEC2IbEERKSaIT_E
FNDA:0,_ZNSaIDiED2Ev
FNDA:0,_ZNSaIDsED2Ev
FNDA:0,_ZNSaINSt7__cxx1112basic_stringIcSt11char_traitsIcESaIcEEEED2Ev
FNDA:0,_ZNSaINSt8__detail10_Hash_nodeISt4pairIKNSt7__cxx1112basic_stringIcSt11char_traitsIcESaIcEEEmELb1EEEED2Ev
FNDA:0,_ZNSaIPN7testing8internal30ParameterizedTestSuiteInfoBaseEED2Ev
FNDA:0,_ZNSaIPNSt7__cxx1112basic_stringIcSt11char_traitsIcESaIcEEEED2Ev
FNDA:0,_ZNSaIPNSt8__detail15_Hash_node_baseEED2Ev
FNDA:0,_ZNSaISt13_Rb_tree_nodeISt4pairIKNSt7__cxx1112basic_stringIcSt11char_traitsIcESaIcEEEN7testing8internal12CodeLocationEEEED2Ev
FNDA:0,_ZNSaISt23_Sp_counted_ptr_inplaceISt5mutexSaIvELN9__gnu_cxx12_Lock_policyE2EEED2Ev
FNDA:0,_ZNSaIbED2Ev
FNDA:0,_ZNSaIiED2Ev
FNDA:0,_ZNSaImED2Ev
FNDA:0,_ZSteqRKSaIcES1_
FNDA:0,_ZStneRKSaIcES1_
FNF:27
FNH:0
DA:163,83
DA:167,0
DA:168,0
DA:178,2
DA:184,79
DA:216,0
DA:217,0
DA:222,0
DA:223,0
LF:9
LH:3
end_of_record
TN:
SF:/usr/include/c++/13/bits/atomic_base.h
FN:101,104,_ZStorSt12memory_orderSt23__memory_order_modifier
FN:107,110,_ZStanSt12memory_orderSt23__memory_order_modifier
FN:116,120,_ZSt24__cmpexch_failure_order2St12memory_order
FN:123,127,_ZSt23__cmpexch_failure_orderSt12memory_order
FN:130,134,_ZSt32__is_valid_cmpexch_failure_orderSt12memory_order
FN:143,144,_ZSt19atomic_thread_fenceSt12memory_order
FN:147,148,_ZSt19atomic_signal_fenceSt12memory_order
FN:221,223,_ZNSt11atomic_flagC2Eb
FN:226,229,_ZNSt11atomic_flag12test_and_setESt12memory_order
FN:232,235,_ZNVSt11atomic_flag12test_and_setESt12memory_order
FN:285,294,_ZNSt11atomic_flag5clearESt12memory_order
FN:297,306,_ZNVSt11atomic_flag5clearESt12memory_order
FN:310,311,_ZNSt11atomic_flag7_S_initEb
FN:362,362,_ZNSt13__atomic_baseIDiEC2EDi
FN:362,362,_ZNSt13__atomic_baseIDsEC2EDs
FN:362,362,_ZNSt13__atomic_baseIaEC2Ea
FN:362,362,_ZNSt13__atomic_baseIbEC2Eb
FN:362,362,_ZNSt13__atomic_baseIcEC2Ec
FN:362,362,_ZNSt13__atomic_baseIhEC2Eh
FN:362,362,_ZNSt13__atomic_baseIiEC2Ei
FN:362,362,_ZNSt13__atomic_baseIjEC2Ej
FN:362,362,_ZNSt13__atomic_baseIlEC2El
FN:362,362,_ZNSt13__atomic_baseImEC2Em
FN:362,362,_ZNSt13__atomic_baseIsEC2Es
FN:362,362,_ZNSt13__atomic_baseItEC2Et
FN:362,362,_ZNSt13__atomic_baseIwEC2Ew
FN:362,362,_ZNSt13__atomic_baseIxEC2Ex
FN:362,362,_ZNSt13__atomic_baseIyEC2Ey
FN:371,375,_ZNSt13__atomic_baseIbEaSEb
FN:378,382,_ZNVSt13__atomic_baseIbEaSEb
FN:457,462,_ZNKSt13__atomic_baseIbE12is_lock_freeEv
FN:465,470,_ZNVKSt13__atomic_baseIbE12is_lock_freeEv
FN:473,482,_ZNSt13__atomic_baseIbE5storeEbSt12memory_order
FN:485,495,_ZNVSt13__atomic_baseIbE5storeEbSt12memory_order
FN:498,506,_ZNKSt13__atomic_baseIbE4loadESt12memory_order
FN:509,517,_ZNVKSt13__atomic_baseIbE4loadESt12memory_order
FN:520,524,_ZNSt13__atomic_baseIbE8exchangeEbSt12memory_order
FN:528,532,_ZNVSt13__atomic_baseIbE8exchangeEbSt12memory_order
FN:535,542,_ZNSt13__atomic_baseIbE21compare_exchange_weakERbbSt12memory_orderS2_
FN:545,553,_ZNVSt13__atomic_baseIbE21compare_exchange_weakERbbSt12memory_orderS2_
FN:556,561,_ZNSt13__atomic_baseIbE21compare_exchange_weakERbbSt12memory_order
FN:564,569,_ZNVSt13__atomic_baseIbE21compare_exchange_weakERbbSt12memory_order
FN:572,579,_ZNSt13__atomic_baseIbE23compare_exchange_strongERbbSt12memory_orderS2_
FN:582,590,_ZNVSt13__atomic_baseIbE23compare_exchange_strongERbbSt12memory_orderS2_
FN:593,598,_ZNSt13__atomic_baseIbE23compare_exchange_strongERbbSt12memory_order
FN:601,606,_ZNVSt13__atomic_baseIbE23compare_exchange_strongERbbSt12memory_order
FN:633,635,_ZNSt13__atomic_baseIiE9fetch_addEiSt12memory_order
FN:643,645,_ZNSt13__atomic_baseIiE9fetch_subEiSt12memory_order
FNDA:0,_ZStorSt12memory_orderSt23__memory_order_modifier
FNDA:0,_ZStanSt12memory_orderSt23__memory_order_modifier
FNDA:0,_ZSt24__cmpexch_failure_order2St12memory_order
FNDA:0,_ZSt23__cmpexch_failure_orderSt12memory_order
FNDA:0,_ZSt32__is_valid_cmpexch_failure_orderSt12memory_order
FNDA:0,_ZSt19atomic_thread_fenceSt12memory_order
FNDA:0,_ZSt19atomic_signal_fenceSt12memory_order
FNDA:0,_ZNSt11atomic_flagC2Eb
FNDA:0,_ZNSt11atomic_flag12test_and_setESt12memory_order
FNDA:0,_ZNVSt11atomic_flag12test_and_setESt12memory_order
FNDA:0,_ZNSt11atomic_flag5clearESt12memory_order
FNDA:0,_ZNVSt11atomic_flag5clearESt12memory_order
FNDA:0,_ZNSt11atomic_flag7_S_initEb
FNDA:0,_ZNSt13__atomic_baseIDiEC2EDi
FNDA:0,_ZNSt13__atomic_baseIDsEC2EDs
FNDA:0,_ZNSt13__atomic_baseIaEC2Ea
FNDA:0,_ZNSt13__atomic_baseIbEC2Eb
FNDA:0,_ZNSt13__atomic_baseIcEC2Ec
FNDA:0,_ZNSt13__atomic_baseIhEC2Eh
FNDA:0,_ZNSt13__atomic_baseIiEC2Ei
FNDA:0,_ZNSt13__atomic_baseIjEC2Ej
FNDA:0,_ZNSt13__atomic_baseIlEC2El
FNDA:0,_ZNSt13__atomic_baseImEC2Em
FNDA:0,_ZNSt13__atomic_baseIsEC2Es
FNDA:0,_ZNSt13__atomic_baseItEC2Et
FNDA:0,_ZNSt13__atomic_baseIwEC2Ew
FNDA:0,_ZNSt13__atomic_baseIxEC2Ex
FNDA:0,_ZNSt13__atomic_baseIyEC2Ey
FNDA:0,_ZNSt13__atomic_baseIbEaSEb
FNDA:0,_ZNVSt13__atomic_baseIbEaSEb
FNDA:0,_ZNKSt13__atomic_baseIbE12is_lock_freeEv
FNDA:0,_ZNVKSt13__atomic_baseIbE12is_lock_freeEv
FNDA:0,_ZNSt13__atomic_baseIbE5storeEbSt12memory_order
FNDA:0,_ZNVSt13__atomic_baseIbE5storeEbSt12memory_order
FNDA:0,_ZNKSt13__atomic_baseIbE4loadESt12memory_order
FNDA:0,_ZNVKSt13__atomic_baseIbE4loadESt12memory_order
FNDA:0,_ZNSt13__atomic_baseIbE8exchangeEbSt12memory_order
FNDA:0,_ZNVSt13__atomic_baseIbE8exchangeEbSt12memory_order
FNDA:0,_ZNSt13__atomic_baseIbE21compare_exchange_weakERbbSt12memory_orderS2_
FNDA:0,_ZNVSt13__atomic_baseIbE21compare_exchange_weakERbbSt12memory_orderS2_
FNDA:0,_ZNSt13__atomic_baseIbE21compare_exchange_weakERbbSt12memory_order
FNDA:0,_ZNVSt13__atomic_baseIbE21compare_exchange_weakERbbSt12memory_order
FNDA:0,_ZNSt13__atomic_baseIbE23compare_exchange_strongERbbSt12memory_orderS2_
FNDA:0,_ZNVSt13__atomic_baseIbE23compare_exchange_strongERbbSt12memory_orderS2_
FNDA:0,_ZNSt13__atomic_baseIbE23compare_exchange_strongERbbSt12memory_order
FNDA:0,_ZNVSt13__atomic_baseIbE23compare_exchange_strongERbbSt12memory_order
FNDA:0,_ZNSt13__atomic_baseIiE9fetch_addEiSt12memory_order
FNDA:0,_ZNSt13__atomic_baseIiE9fetch_subEiSt12memory_order
FNF:48
FNH:0
DA:101,0
DA:103,0
DA:107,0
DA:109,0
DA:116,0
DA:118,0
DA:119,0
DA:123,0
DA:126,0
DA:130,0
DA:132,0
DA:133,0
DA:143,0
DA:144,0
DA:147,0
DA:148,0
DA:221,0
DA:222,0
DA:223,0
DA:226,0
DA:228,0
DA:232,0
DA:234,0
DA:285,0
DA:288,0
DA:289,0
DA:290,0
DA:291,0
DA:293,0
DA:294,0
DA:297,0
DA:300,0
DA:301,0
DA:302,0
DA:303,0
DA:305,0
DA:306,0
DA:310,0
DA:311,0
DA:362,0
DA:371,0
DA:373,0
DA:374,0
DA:378,0
DA:380,0
DA:381,0
DA:457,0
DA:461,0
DA:465,0
DA:469,0
DA:473,0
DA:476,0
DA:477,0
DA:478,0
DA:479,0
DA:481,0
DA:482,0
DA:485,0
DA:489,0
DA:490,0
DA:491,0
DA:492,0
DA:494,0
DA:495,0
DA:498,0
DA:501,0
DA:502,0
DA:503,0
DA:505,0
DA:509,0
DA:512,0
DA:513,0
DA:514,0
DA:516,0
DA:520,0
DA:523,0
DA:528,0
DA:531,0
DA:535,0
DA:538,0
DA:540,0
DA:541,0
DA:545,0
DA:549,0
DA:551,0
DA:552,0
DA:556,0
DA:559,0
DA:560,0
DA:564,0
DA:567,0
DA:568,0
DA:572,0
DA:575,0
DA:577,0
DA:578,0
DA:582,0
DA:586,0
DA:588,0
DA:589,0
DA:593,0
DA:596,0
DA:597,0
DA:601,0
DA:604,0
DA:605,0
DA:633,0
DA:635,0
DA:643,0
DA:645,0
LF:110
LH:0
end_of_record
TN:
SF:/usr/include/c++/13/bits/basic_ios.h
FN:47,52,_ZSt13__check_facetISt5ctypeIcEERKT_PS3_
FNDA:0,_ZSt13__check_facetISt5ctypeIcEERKT_PS3_
FNF:1
FNH:0
DA:47,0
DA:49,0
DA:50,0
DA:51,0
LF:4
LH:0
end_of_record
TN:
SF:/usr/include/c++/13/bits/basic_string.h
FN:1084,1085,_ZNKSt7__cxx1112basic_stringIDiSt11char_traitsIDiESaIDiEE8max_sizeEv
FN:1084,1085,_ZNKSt7__cxx1112basic_stringIDsSt11char_traitsIDsESaIDsEE8max_sizeEv
FN:124,137,_ZNSt7__cxx1112basic_stringIDiSt11char_traitsIDiESaIDiEE11_S_allocateERS3_m
FN:124,137,_ZNSt7__cxx1112basic_stringIDsSt11char_traitsIDsESaIDsEE11_S_allocateERS3_m
FN:1718,1719,_ZNSt7__cxx1112basic_stringIcSt11char_traitsIcESaIcEE6assignIPcvEERS4_T_S8_
FN:188,189,_ZNSt7__cxx1112basic_stringIDiSt11char_traitsIDiESaIDiEE12_Alloc_hiderC2EPDiRKS3_
FN:188,189,_ZNSt7__cxx1112basic_stringIDsSt11char_traitsIDsESaIDsEE12_Alloc_hiderC2EPDsRKS3_
FN:212,213,_ZNSt7__cxx1112basic_stringIDiSt11char_traitsIDiESaIDiEE7_M_dataEPDi
FN:212,213,_ZNSt7__cxx1112basic_stringIDsSt11char_traitsIDsESaIDsEE7_M_dataEPDs
FN:217,218,_ZNSt7__cxx1112basic_stringIDiSt11char_traitsIDiESaIDiEE9_M_lengthEm
FN:217,218,_ZNSt7__cxx1112basic_stringIDsSt11char_traitsIDsESaIDsEE9_M_lengthEm
FN:222,223,_ZNKSt7__cxx1112basic_stringIDiSt11char_traitsIDiESaIDiEE7_M_dataEv
FN:222,223,_ZNKSt7__cxx1112basic_stringIDsSt11char_traitsIDsESaIDsEE7_M_dataEv
FN:227,234,_ZNSt7__cxx1112basic_stringIDiSt11char_traitsIDiESaIDiEE13_M_local_dataEv
FN:227,234,_ZNSt7__cxx1112basic_stringIDsSt11char_traitsIDsESaIDsEE13_M_local_dataEv
FN:238,245,_ZNKSt7__cxx1112basic_stringIDiSt11char_traitsIDiESaIDiEE13_M_local_dataEv
FN:238,245,_ZNKSt7__cxx1112basic_stringIDsSt11char_traitsIDsESaIDsEE13_M_local_dataEv
FN:249,250,_ZNSt7__cxx1112basic_stringIDiSt11char_traitsIDiESaIDiEE11_M_capacityEm
FN:249,250,_ZNSt7__cxx1112basic_stringIDsSt11char_traitsIDsESaIDsEE11_M_capacityEm
FN:254,258,_ZNSt7__cxx1112basic_stringIDiSt11char_traitsIDiESaIDiEE13_M_set_lengthEm
FN:254,258,_ZNSt7__cxx1112basic_stringIDsSt11char_traitsIDsESaIDsEE13_M_set_lengthEm
FN:262,271,_ZNKSt7__cxx1112basic_stringIDiSt11char_traitsIDiESaIDiEE11_M_is_localEv
FN:262,271,_ZNKSt7__cxx1112basic_stringIDsSt11char_traitsIDsESaIDsEE11_M_is_localEv
FN:280,284,_ZNSt7__cxx1112basic_stringIDiSt11char_traitsIDiESaIDiEE10_M_disposeEv
FN:280,284,_ZNSt7__cxx1112basic_stringIDsSt11char_traitsIDsESaIDsEE10_M_disposeEv
FN:288,289,_ZNSt7__cxx1112basic_stringIDiSt11char_traitsIDiESaIDiEE10_M_destroyEm
FN:288,289,_ZNSt7__cxx1112basic_stringIDsSt11char_traitsIDsESaIDsEE10_M_destroyEm
FN:336,337,_ZNSt7__cxx1112basic_stringIDiSt11char_traitsIDiESaIDiEE16_M_get_allocatorEv
FN:336,337,_ZNSt7__cxx1112basic_stringIDsSt11char_traitsIDsESaIDsEE16_M_get_allocatorEv
FN:341,342,_ZNKSt7__cxx1112basic_stringIDiSt11char_traitsIDiESaIDiEE16_M_get_allocatorEv
FN:341,342,_ZNKSt7__cxx1112basic_stringIDsSt11char_traitsIDsESaIDsEE16_M_get_allocatorEv
FN:348,355,_ZNSt7__cxx1112basic_stringIDiSt11char_traitsIDiESaIDiEE17_M_init_local_bufEv
FN:348,355,_ZNSt7__cxx1112basic_stringIDsSt11char_traitsIDsESaIDsEE17_M_init_local_bufEv
FN:3644,3646,_ZStplIcSt11char_traitsIcESaIcEENSt7__cxx1112basic_stringIT_T0_T1_EERKS8_OS8_
FN:3674,3676,_ZStplIcSt11char_traitsIcESaIcEENSt7__cxx1112basic_stringIT_T0_T1_EEPKS5_OS8_
FN:3710,3716,_ZSteqIcSt11char_traitsIcESaIcEEbRKNSt7__cxx1112basic_stringIT_T0_T1_EESA_
FN:3829,3832,_ZStltIcSt11char_traitsIcESaIcEEbRKNSt7__cxx1112basic_stringIT_T0_T1_EESA_
FN:4120,4122,_ZNSt7__cxx114stoiERKNS_12basic_stringIcSt11char_traitsIcESaIcEEEPmi
FN:4125,4127,_ZNSt7__cxx114stolERKNS_12basic_stringIcSt11char_traitsIcESaIcEEEPmi
FN:4130,4132,_ZNSt7__cxx115stoulERKNS_12basic_stringIcSt11char_traitsIcESaIcEEEPmi
FN:4135,4137,_ZNSt7__cxx115stollERKNS_12basic_stringIcSt11char_traitsIcESaIcEEEPmi
FN:4140,4142,_ZNSt7__cxx116stoullERKNS_12basic_stringIcSt11char_traitsIcESaIcEEEPmi
FN:4146,4147,_ZNSt7__cxx114stofERKNS_12basic_stringIcSt11char_traitsIcESaIcEEEPm
FN:4150,4151,_ZNSt7__cxx114stodERKNS_12basic_stringIcSt11char_traitsIcESaIcEEEPm
FN:4154,4155,_ZNSt7__cxx115stoldERKNS_12basic_stringIcSt11char_traitsIcESaIcEEEPm
FN:4162,4173,_ZNSt7__cxx119to_stringEi
FN:4177,4185,_ZNSt7__cxx119to_stringEj
FN:4189,4200,_ZNSt7__cxx119to_stringEl
FN:4204,4212,_ZNSt7__cxx119to_stringEm
FN:4216,4225,_ZNSt7__cxx119to_stringEx
FN:4229,4234,_ZNSt7__cxx119to_stringEy
FN:4241,4247,_ZNSt7__cxx119to_stringEf
FN:425,431,_ZNSt7__cxx1112basic_stringIDiSt11char_traitsIDiESaIDiEE7_S_copyEPDiPKDim
FN:425,431,_ZNSt7__cxx1112basic_stringIDsSt11char_traitsIDsESaIDsEE7_S_copyEPDsPKDsm
FN:4251,4257,_ZNSt7__cxx119to_stringEd
FN:4261,4267,_ZNSt7__cxx119to_stringEe
FN:4272,4274,_ZNSt7__cxx114stoiERKNS_12basic_stringIwSt11char_traitsIwESaIwEEEPmi
FN:4277,4279,_ZNSt7__cxx114stolERKNS_12basic_stringIwSt11char_traitsIwESaIwEEEPmi
FN:4282,4284,_ZNSt7__cxx115stoulERKNS_12basic_stringIwSt11char_traitsIwESaIwEEEPmi
FN:4287,4289,_ZNSt7__cxx115stollERKNS_12basic_stringIwSt11char_traitsIwESaIwEEEPmi
FN:4292,4294,_ZNSt7__cxx116stoullERKNS_12basic_stringIwSt11char_traitsIwESaIwEEEPmi
FN:4298,4299,_ZNSt7__cxx114stofERKNS_12basic_stringIwSt11char_traitsIwESaIwEEEPm
FN:4302,4303,_ZNSt7__cxx114stodERKNS_12basic_stringIwSt11char_traitsIwESaIwEEEPm
FN:4306,4307,_ZNSt7__cxx115stoldERKNS_12basic_stringIwSt11char_traitsIwESaIwEEEPm
FN:4313,4315,_ZNSt7__cxx1110to_wstringEi
FN:4319,4322,_ZNSt7__cxx1110to_wstringEj
FN:4326,4328,_ZNSt7__cxx1110to_wstringEl
FN:4332,4335,_ZNSt7__cxx1110to_wstringEm
FN:4339,4342,_ZNSt7__cxx1110to_wstringEx
FN:4346,4349,_ZNSt7__cxx1110to_wstringEy
FN:4353,4359,_ZNSt7__cxx1110to_wstringEf
FN:4363,4369,_ZNSt7__cxx1110to_wstringEd
FN:4373,4379,_ZNSt7__cxx1110to_wstringEe
FN:4487,4488,_ZNSt8literals15string_literalsli1sB5cxx11EPKcm
FN:4492,4493,_ZNSt8literals15string_literalsli1sB5cxx11EPKwm
FN:4504,4505,_ZNSt8literals15string_literalsli1sB5cxx11EPKDsm
FN:4509,4510,_ZNSt8literals15string_literalsli1sB5cxx11EPKDim
FN:482,484,_ZNSt7__cxx1112basic_stringIDiSt11char_traitsIDiESaIDiEE13_S_copy_charsEPDiPKDiS7_
FN:482,484,_ZNSt7__cxx1112basic_stringIDsSt11char_traitsIDsESaIDsEE13_S_copy_charsEPDsPKDsS7_
FN:619,628,_ZNSt7__cxx1112basic_stringIDiSt11char_traitsIDiESaIDiEEC2EPKDimRKS3_
FN:619,628,_ZNSt7__cxx1112basic_stringIDsSt11char_traitsIDsESaIDsEEC2EPKDsmRKS3_
FN:641,650,_ZNSt7__cxx1112basic_stringIDiSt11char_traitsIDiESaIDiEEC2IS3_EEPKDiRKS3_
FN:641,650,_ZNSt7__cxx1112basic_stringIDsSt11char_traitsIDsESaIDsEEC2IS3_EEPKDsRKS3_
FN:641,650,_ZNSt7__cxx1112basic_stringIcSt11char_traitsIcESaIcEEC2IS3_EEPKcRKS3_
FN:641,650,_ZNSt7__cxx1112basic_stringIwSt11char_traitsIwESaIwEEC2IS3_EEPKwRKS3_
FN:664,666,_ZNSt7__cxx1112basic_stringIcSt11char_traitsIcESaIcEEC2IS3_EEmcRKS3_
FN:760,770,_ZNSt7__cxx1112basic_stringIcSt11char_traitsIcESaIcEEC2IPKcvEET_S8_RKS3_
FN:760,770,_ZNSt7__cxx1112basic_stringIcSt11char_traitsIcESaIcEEC2IPcvEET_S7_RKS3_
FN:760,770,_ZNSt7__cxx1112basic_stringIwSt11char_traitsIwESaIwEEC2IPwvEET_S7_RKS3_
FN:795,796,_ZNSt7__cxx1112basic_stringIcSt11char_traitsIcESaIcEEC2ISt17basic_string_viewIcS2_EvEERKT_RKS3_
FN:803,804,_ZNSt7__cxx1112basic_stringIDiSt11char_traitsIDiESaIDiEED2Ev
FN:803,804,_ZNSt7__cxx1112basic_stringIDsSt11char_traitsIDsESaIDsEED2Ev
FNDA:0,_ZNKSt7__cxx1112basic_stringIDiSt11char_traitsIDiESaIDiEE8max_sizeEv
FNDA:0,_ZNKSt7__cxx1112basic_stringIDsSt11char_traitsIDsESaIDsEE8max_sizeEv
FNDA:0,_ZNSt7__cxx1112basic_stringIDiSt11char_traitsIDiESaIDiEE11_S_allocateERS3_m
FNDA:0,_ZNSt7__cxx1112basic_stringIDsSt11char_traitsIDsESaIDsEE11_S_allocateERS3_m
FNDA:0,_ZNSt7__cxx1112basic_stringIcSt11char_traitsIcESaIcEE6assignIPcvEERS4_T_S8_
FNDA:0,_ZNSt7__cxx1112basic_stringIDiSt11char_traitsIDiESaIDiEE12_Alloc_hiderC2EPDiRKS3_
FNDA:0,_ZNSt7__cxx1112basic_stringIDsSt11char_traitsIDsESaIDsEE12_Alloc_hiderC2EPDsRKS3_
FNDA:0,_ZNSt7__cxx1112basic_stringIDiSt11char_traitsIDiESaIDiEE7_M_dataEPDi
FNDA:0,_ZNSt7__cxx1112basic_stringIDsSt11char_traitsIDsESaIDsEE7_M_dataEPDs
FNDA:0,_ZNSt7__cxx1112basic_stringIDiSt11char_traitsIDiESaIDiEE9_M_lengthEm
FNDA:0,_ZNSt7__cxx1112basic_stringIDsSt11char_traitsIDsESaIDsEE9_M_lengthEm
FNDA:0,_ZNKSt7__cxx1112basic_stringIDiSt11char_traitsIDiESaIDiEE7_M_dataEv
FNDA:0,_ZNKSt7__cxx1112basic_stringIDsSt11char_traitsIDsESaIDsEE7_M_dataEv
FNDA:0,_ZNSt7__cxx1112basic_stringIDiSt11char_traitsIDiESaIDiEE13_M_local_dataEv
FNDA:0,_ZNSt7__cxx1112basic_stringIDsSt11char_traitsIDsESaIDsEE13_M_local_dataEv
FNDA:0,_ZNKSt7__cxx1112basic_stringIDiSt11char_traitsIDiESaIDiEE13_M_local_dataEv
FNDA:0,_ZNKSt7__cxx1112basic_stringIDsSt11char_traitsIDsESaIDsEE13_M_local_dataEv
FNDA:0,_ZNSt7__cxx1112basic_stringIDiSt11char_traitsIDiESaIDiEE11_M_capacityEm
FNDA:0,_ZNSt7__cxx1112basic_stringIDsSt11char_traitsIDsESaIDsEE11_M_capacityEm
FNDA:0,_ZNSt7__cxx1112basic_stringIDiSt11char_traitsIDiESaIDiEE13_M_set_lengthEm
FNDA:0,_ZNSt7__cxx1112basic_stringIDsSt11char_traitsIDsESaIDsEE13_M_set_lengthEm
FNDA:0,_ZNKSt7__cxx1112basic_stringIDiSt11char_traitsIDiESaIDiEE11_M_is_localEv
FNDA:0,_ZNKSt7__cxx1112basic_stringIDsSt11char_traitsIDsESaIDsEE11_M_is_localEv
FNDA:0,_ZNSt7__cxx1112basic_stringIDiSt11char_traitsIDiESaIDiEE10_M_disposeEv
FNDA:0,_ZNSt7__cxx1112basic_stringIDsSt11char_traitsIDsESaIDsEE10_M_disposeEv
FNDA:0,_ZNSt7__cxx1112basic_stringIDiSt11char_traitsIDiESaIDiEE10_M_destroyEm
FNDA:0,_ZNSt7__cxx1112basic_stringIDsSt11char_traitsIDsESaIDsEE10_M_destroyEm
FNDA:0,_ZNSt7__cxx1112basic_stringIDiSt11char_traitsIDiESaIDiEE16_M_get_allocatorEv
FNDA:0,_ZNSt7__cxx1112basic_stringIDsSt11char_traitsIDsESaIDsEE16_M_get_allocatorEv
FNDA:0,_ZNKSt7__cxx1112basic_stringIDiSt11char_traitsIDiESaIDiEE16_M_get_allocatorEv
FNDA:0,_ZNKSt7__cxx1112basic_stringIDsSt11char_traitsIDsESaIDsEE16_M_get_allocatorEv
FNDA:0,_ZNSt7__cxx1112basic_stringIDiSt11char_traitsIDiESaIDiEE17_M_init_local_bufEv
FNDA:0,_ZNSt7__cxx1112basic_stringIDsSt11char_traitsIDsESaIDsEE17_M_init_local_bufEv
FNDA:0,_ZStplIcSt11char_traitsIcESaIcEENSt7__cxx1112basic_stringIT_T0_T1_EERKS8_OS8_
FNDA:0,_ZStplIcSt11char_traitsIcESaIcEENSt7__cxx1112basic_stringIT_T0_T1_EEPKS5_OS8_
FNDA:47,_ZSteqIcSt11char_traitsIcESaIcEEbRKNSt7__cxx1112basic_stringIT_T0_T1_EESA_
FNDA:0,_ZStltIcSt11char_traitsIcESaIcEEbRKNSt7__cxx1112basic_stringIT_T0_T1_EESA_
FNDA:0,_ZNSt7__cxx114stoiERKNS_12basic_stringIcSt11char_traitsIcESaIcEEEPmi
FNDA:0,_ZNSt7__cxx114stolERKNS_12basic_stringIcSt11char_traitsIcESaIcEEEPmi
FNDA:0,_ZNSt7__cxx115stoulERKNS_12basic_stringIcSt11char_traitsIcESaIcEEEPmi
FNDA:0,_ZNSt7__cxx115stollERKNS_12basic_stringIcSt11char_traitsIcESaIcEEEPmi
FNDA:0,_ZNSt7__cxx116stoullERKNS_12basic_stringIcSt11char_traitsIcESaIcEEEPmi
FNDA:0,_ZNSt7__cxx114stofERKNS_12basic_stringIcSt11char_traitsIcESaIcEEEPm
FNDA:0,_ZNSt7__cxx114stodERKNS_12basic_stringIcSt11char_traitsIcESaIcEEEPm
FNDA:0,_ZNSt7__cxx115stoldERKNS_12basic_stringIcSt11char_traitsIcESaIcEEEPm
FNDA:4,_ZNSt7__cxx119to_stringEi
FNDA:1,_ZNSt7__cxx119to_stringEj
FNDA:1,_ZNSt7__cxx119to_stringEl
FNDA:1,_ZNSt7__cxx119to_stringEm
FNDA:1,_ZNSt7__cxx119to_stringEx
FNDA:1,_ZNSt7__cxx119to_stringEy
FNDA:1,_ZNSt7__cxx119to_stringEf
FNDA:0,_ZNSt7__cxx1112basic_stringIDiSt11char_traitsIDiESaIDiEE7_S_copyEPDiPKDim
FNDA:0,_ZNSt7__cxx1112basic_stringIDsSt11char_traitsIDsESaIDsEE7_S_copyEPDsPKDsm
FNDA:9,_ZNSt7__cxx119to_stringEd
FNDA:1,_ZNSt7__cxx119to_stringEe
FNDA:0,_ZNSt7__cxx114stoiERKNS_12basic_stringIwSt11char_traitsIwESaIwEEEPmi
FNDA:0,_ZNSt7__cxx114stolERKNS_12basic_stringIwSt11char_traitsIwESaIwEEEPmi
FNDA:0,_ZNSt7__cxx115stoulERKNS_12basic_stringIwSt11char_traitsIwESaIwEEEPmi
FNDA:0,_ZNSt7__cxx115stollERKNS_12basic_stringIwSt11char_traitsIwESaIwEEEPmi
FNDA:0,_ZNSt7__cxx116stoullERKNS_12basic_stringIwSt11char_traitsIwESaIwEEEPmi
FNDA:0,_ZNSt7__cxx114stofERKNS_12basic_stringIwSt11char_traitsIwESaIwEEEPm
FNDA:0,_ZNSt7__cxx114stodERKNS_12basic_stringIwSt11char_traitsIwESaIwEEEPm
FNDA:0,_ZNSt7__cxx115stoldERKNS_12basic_stringIwSt11char_traitsIwESaIwEEEPm
FNDA:0,_ZNSt7__cxx1110to_wstringEi
FNDA:0,_ZNSt7__cxx1110to_wstringEj
FNDA:0,_ZNSt7__cxx1110to_wstringEl
FNDA:0,_ZNSt7__cxx1110to_wstringEm
FNDA:0,_ZNSt7__cxx1110to_wstringEx
FNDA:0,_ZNSt7__cxx1110to_wstringEy
FNDA:0,_ZNSt7__cxx1110to_wstringEf
FNDA:0,_ZNSt7__cxx1110to_wstringEd
FNDA:0,_ZNSt7__cxx1110to_wstringEe
FNDA:0,_ZNSt8literals15string_literalsli1sB5cxx11EPKcm
FNDA:0,_ZNSt8literals15string_literalsli1sB5cxx11EPKwm
FNDA:0,_ZNSt8literals15string_literalsli1sB5cxx11EPKDsm
FNDA:0,_ZNSt8literals15string_literalsli1sB5cxx11EPKDim
FNDA:0,_ZNSt7__cxx1112basic_stringIDiSt11char_traitsIDiESaIDiEE13_S_copy_charsEPDiPKDiS7_
FNDA:0,_ZNSt7__cxx1112basic_stringIDsSt11char_traitsIDsESaIDsEE13_S_copy_charsEPDsPKDsS7_
FNDA:0,_ZNSt7__cxx1112basic_stringIDiSt11char_traitsIDiESaIDiEEC2EPKDimRKS3_
FNDA:0,_ZNSt7__cxx1112basic_stringIDsSt11char_traitsIDsESaIDsEEC2EPKDsmRKS3_
FNDA:0,_ZNSt7__cxx1112basic_stringIDiSt11char_traitsIDiESaIDiEEC2IS3_EEPKDiRKS3_
FNDA:0,_ZNSt7__cxx1112basic_stringIDsSt11char_traitsIDsESaIDsEEC2IS3_EEPKDsRKS3_
FNDA:357,_ZNSt7__cxx1112basic_stringIcSt11char_traitsIcESaIcEEC2IS3_EEPKcRKS3_
FNDA:0,_ZNSt7__cxx1112basic_stringIwSt11char_traitsIwESaIwEEC2IS3_EEPKwRKS3_
FNDA:11,_ZNSt7__cxx1112basic_stringIcSt11char_traitsIcESaIcEEC2IS3_EEmcRKS3_
FNDA:0,_ZNSt7__cxx1112basic_stringIcSt11char_traitsIcESaIcEEC2IPKcvEET_S8_RKS3_
FNDA:11,_ZNSt7__cxx1112basic_stringIcSt11char_traitsIcESaIcEEC2IPcvEET_S7_RKS3_
FNDA:0,_ZNSt7__cxx1112basic_stringIwSt11char_traitsIwESaIwEEC2IPwvEET_S7_RKS3_
FNDA:2,_ZNSt7__cxx1112basic_stringIcSt11char_traitsIcESaIcEEC2ISt17basic_string_viewIcS2_EvEERKT_RKS3_
FNDA:0,_ZNSt7__cxx1112basic_stringIDiSt11char_traitsIDiESaIDiEED2Ev
FNDA:0,_ZNSt7__cxx1112basic_stringIDsSt11char_traitsIDsESaIDsEED2Ev
FNF:92
FNH:14
DA:124,0
DA:126,0
DA:136,0
DA:188,0
DA:189,0
DA:212,0
DA:213,0
DA:217,0
DA:218,0
DA:222,0
DA:223,0
DA:227,0
DA:230,0
DA:238,0
DA:241,0
DA:249,0
DA:250,0
DA:254,0
DA:256,0
DA:257,0
DA:258,0
DA:262,0
DA:264,0
DA:266,0
DA:267,0
DA:268,0
DA:270,0
DA:280,0
DA:282,0
DA:283,0
DA:284,0
DA:288,0
DA:289,0
DA:336,0
DA:337,0
DA:341,0
DA:342,0
DA:348,0
DA:355,219
DA:425,0
DA:427,0
DA:428,0
DA:430,0
DA:431,0
DA:482,0
DA:484,0
DA:619,0
DA:621,0
DA:624,0
DA:625,0
DA:627,0
DA:628,0
DA:641,357
DA:642,357
DA:645,357
DA:646,0
DA:648,357
DA:649,357
DA:650,357
DA:664,11
DA:665,11
DA:666,11
DA:760,11
DA:762,11
DA:765,11
DA:770,11
DA:795,2
DA:796,2
DA:803,0
DA:804,0
DA:1084,0
DA:1085,0
DA:1718,0
DA:1719,0
DA:3644,0
DA:3646,0
DA:3674,0
DA:3676,0
DA:3710,47
DA:3714,47
DA:3715,47
DA:3829,0
DA:3832,0
DA:4120,0
DA:4121,0
DA:4122,0
DA:4125,0
DA:4126,0
DA:4127,0
DA:4130,0
DA:4131,0
DA:4132,0
DA:4135,0
DA:4136,0
DA:4137,0
DA:4140,0
DA:4141,0
DA:4142,0
DA:4146,0
DA:4147,0
DA:4150,0
DA:4151,0
DA:4154,0
DA:4155,0
DA:4162,4
DA:4167,4
DA:4168,4
DA:4169,4
DA:4170,4
DA:4171,4
DA:4172,4
DA:4177,1
DA:4182,1
DA:4183,1
DA:4184,1
DA:4189,1
DA:4194,1
DA:4195,1
DA:4196,1
DA:4197,1
DA:4198,1
DA:4199,1
DA:4200,0
DA:4204,1
DA:4209,1
DA:4210,1
DA:4211,1
DA:4212,0
DA:4216,1
DA:4218,1
DA:4219,1
DA:4220,1
DA:4221,1
DA:4222,1
DA:4223,1
DA:4224,1
DA:4225,0
DA:4229,1
DA:4231,1
DA:4232,1
DA:4233,1
DA:4234,0
DA:4241,1
DA:4243,1
DA:4246,1
DA:4251,9
DA:4253,9
DA:4256,9
DA:4261,1
DA:4263,1
DA:4266,1
DA:4272,0
DA:4273,0
DA:4274,0
DA:4277,0
DA:4278,0
DA:4279,0
DA:4282,0
DA:4283,0
DA:4284,0
DA:4287,0
DA:4288,0
DA:4289,0
DA:4292,0
DA:4293,0
DA:4294,0
DA:4298,0
DA:4299,0
DA:4302,0
DA:4303,0
DA:4306,0
DA:4307,0
DA:4313,0
DA:4315,0
DA:4319,0
DA:4322,0
DA:4326,0
DA:4328,0
DA:4332,0
DA:4335,0
DA:4339,0
DA:4342,0
DA:4346,0
DA:4349,0
DA:4353,0
DA:4355,0
DA:4358,0
DA:4363,0
DA:4365,0
DA:4368,0
DA:4373,0
DA:4375,0
DA:4378,0
DA:4487,0
DA:4488,0
DA:4492,0
DA:4493,0
DA:4504,0
DA:4505,0
DA:4509,0
DA:4510,0
LF:201
LH:62
end_of_record
TN:
SF:/usr/include/c++/13/bits/basic_string.tcc
FN:138,160,_ZNSt7__cxx1112basic_stringIDiSt11char_traitsIDiESaIDiEE9_M_createERmm
FN:138,160,_ZNSt7__cxx1112basic_stringIDsSt11char_traitsIDsESaIDsEE9_M_createERmm
FN:221,252,_ZNSt7__cxx1112basic_stringIDiSt11char_traitsIDiESaIDiEE12_M_constructIPKDiEEvT_S8_St20forward_iterator_tag
FN:221,252,_ZNSt7__cxx1112basic_stringIDsSt11char_traitsIDsESaIDsEE12_M_constructIPKDsEEvT_S8_St20forward_iterator_tag
FN:221,252,_ZNSt7__cxx1112basic_stringIcSt11char_traitsIcESaIcEE12_M_constructIPKcEEvT_S8_St20forward_iterator_tag
FN:221,252,_ZNSt7__cxx1112basic_stringIcSt11char_traitsIcESaIcEE12_M_constructIPcEEvT_S7_St20forward_iterator_tag
FN:221,252,_ZNSt7__cxx1112basic_stringIwSt11char_traitsIwESaIwEE12_M_constructIPKwEEvT_S8_St20forward_iterator_tag
FN:221,252,_ZNSt7__cxx1112basic_stringIwSt11char_traitsIwESaIwEE12_M_constructIPwEEvT_S7_St20forward_iterator_tag
FN:239,239,_ZZNSt7__cxx1112basic_stringIDiSt11char_traitsIDiESaIDiEE12_M_constructIPKDiEEvT_S8_St20forward_iterator_tagEN6_GuardC2EPS4_
FN:239,239,_ZZNSt7__cxx1112basic_stringIDsSt11char_traitsIDsESaIDsEE12_M_constructIPKDsEEvT_S8_St20forward_iterator_tagEN6_GuardC2EPS4_
FN:239,239,_ZZNSt7__cxx1112basic_stringIcSt11char_traitsIcESaIcEE12_M_constructIPKcEEvT_S8_St20forward_iterator_tagEN6_GuardC2EPS4_
FN:239,239,_ZZNSt7__cxx1112basic_stringIcSt11char_traitsIcESaIcEE12_M_constructIPcEEvT_S7_St20forward_iterator_tagEN6_GuardC2EPS4_
FN:239,239,_ZZNSt7__cxx1112basic_stringIwSt11char_traitsIwESaIwEE12_M_constructIPKwEEvT_S8_St20forward_iterator_tagEN6_GuardC2EPS4_
FN:239,239,_ZZNSt7__cxx1112basic_stringIwSt11char_traitsIwESaIwEE12_M_constructIPwEEvT_S7_St20forward_iterator_tagEN6_GuardC2EPS4_
FN:242,242,_ZZNSt7__cxx1112basic_stringIDiSt11char_traitsIDiESaIDiEE12_M_constructIPKDiEEvT_S8_St20forward_iterator_tagEN6_GuardD2Ev
FN:242,242,_ZZNSt7__cxx1112basic_stringIDsSt11char_traitsIDsESaIDsEE12_M_constructIPKDsEEvT_S8_St20forward_iterator_tagEN6_GuardD2Ev
FN:242,242,_ZZNSt7__cxx1112basic_stringIcSt11char_traitsIcESaIcEE12_M_constructIPKcEEvT_S8_St20forward_iterator_tagEN6_GuardD2Ev
FN:242,242,_ZZNSt7__cxx1112basic_stringIcSt11char_traitsIcESaIcEE12_M_constructIPcEEvT_S7_St20forward_iterator_tagEN6_GuardD2Ev
FN:242,242,_ZZNSt7__cxx1112basic_stringIwSt11char_traitsIwESaIwEE12_M_constructIPKwEEvT_S8_St20forward_iterator_tagEN6_GuardD2Ev
FN:242,242,_ZZNSt7__cxx1112basic_stringIwSt11char_traitsIwESaIwEE12_M_constructIPwEEvT_S7_St20forward_iterator_tagEN6_GuardD2Ev
FNDA:0,_ZNSt7__cxx1112basic_stringIDiSt11char_traitsIDiESaIDiEE9_M_createERmm
FNDA:0,_ZNSt7__cxx1112basic_stringIDsSt11char_traitsIDsESaIDsEE9_M_createERmm
FNDA:0,_ZNSt7__cxx1112basic_stringIDiSt11char_traitsIDiESaIDiEE12_M_constructIPKDiEEvT_S8_St20forward_iterator_tag
FNDA:0,_ZNSt7__cxx1112basic_stringIDsSt11char_traitsIDsESaIDsEE12_M_constructIPKDsEEvT_S8_St20forward_iterator_tag
FNDA:407,_ZNSt7__cxx1112basic_stringIcSt11char_traitsIcESaIcEE12_M_constructIPKcEEvT_S8_St20forward_iterator_tag
FNDA:66,_ZNSt7__cxx1112basic_stringIcSt11char_traitsIcESaIcEE12_M_constructIPcEEvT_S7_St20forward_iterator_tag
FNDA:0,_ZNSt7__cxx1112basic_stringIwSt11char_traitsIwESaIwEE12_M_constructIPKwEEvT_S8_St20forward_iterator_tag
FNDA:0,_ZNSt7__cxx1112basic_stringIwSt11char_traitsIwESaIwEE12_M_constructIPwEEvT_S7_St20forward_iterator_tag
FNDA:0,_ZZNSt7__cxx1112basic_stringIDiSt11char_traitsIDiESaIDiEE12_M_constructIPKDiEEvT_S8_St20forward_iterator_tagEN6_GuardC2EPS4_
FNDA:0,_ZZNSt7__cxx1112basic_stringIDsSt11char_traitsIDsESaIDsEE12_M_constructIPKDsEEvT_S8_St20forward_iterator_tagEN6_GuardC2EPS4_
FNDA:407,_ZZNSt7__cxx1112basic_stringIcSt11char_traitsIcESaIcEE12_M_constructIPKcEEvT_S8_St20forward_iterator_tagEN6_GuardC2EPS4_
FNDA:66,_ZZNSt7__cxx1112basic_stringIcSt11char_traitsIcESaIcEE12_M_constructIPcEEvT_S7_St20forward_iterator_tagEN6_GuardC2EPS4_
FNDA:0,_ZZNSt7__cxx1112basic_stringIwSt11char_traitsIwESaIwEE12_M_constructIPKwEEvT_S8_St20forward_iterator_tagEN6_GuardC2EPS4_
FNDA:0,_ZZNSt7__cxx1112basic_stringIwSt11char_traitsIwESaIwEE12_M_constructIPwEEvT_S7_St20forward_iterator_tagEN6_GuardC2EPS4_
FNDA:0,_ZZNSt7__cxx1112basic_stringIDiSt11char_traitsIDiESaIDiEE12_M_constructIPKDiEEvT_S8_St20forward_iterator_tagEN6_GuardD2Ev
FNDA:0,_ZZNSt7__cxx1112basic_stringIDsSt11char_traitsIDsESaIDsEE12_M_constructIPKDsEEvT_S8_St20forward_iterator_tagEN6_GuardD2Ev
FNDA:407,_ZZNSt7__cxx1112basic_stringIcSt11char_traitsIcESaIcEE12_M_constructIPKcEEvT_S8_St20forward_iterator_tagEN6_GuardD2Ev
FNDA:66,_ZZNSt7__cxx1112basic_stringIcSt11char_traitsIcESaIcEE12_M_constructIPcEEvT_S7_St20forward_iterator_tagEN6_GuardD2Ev
FNDA:0,_ZZNSt7__cxx1112basic_stringIwSt11char_traitsIwESaIwEE12_M_constructIPKwEEvT_S8_St20forward_iterator_tagEN6_GuardD2Ev
FNDA:0,_ZZNSt7__cxx1112basic_stringIwSt11char_traitsIwESaIwEE12_M_constructIPwEEvT_S7_St20forward_iterator_tagEN6_GuardD2Ev
FNF:20
FNH:6
DA:138,0
DA:143,0
DA:144,0
DA:149,0
DA:151,0
DA:153,0
DA:154,0
DA:159,0
DA:221,473
DA:225,473
DA:227,473
DA:229,254
DA:230,254
DA:239,473
DA:242,473
DA:245,473
DA:247,473
DA:249,473
DA:251,473
DA:252,473
LF:20
LH:12
end_of_record
TN:
SF:/usr/include/c++/13/bits/char_traits.h
FN:136,137,_ZN9__gnu_cxx11char_traitsIcE2eqERKcS3_
FN:136,137,_ZN9__gnu_cxx11char_traitsIwE2eqERKwS3_
FN:140,141,_ZN9__gnu_cxx11char_traitsIwE2ltERKwS3_
FN:186,195,_ZN9__gnu_cxx11char_traitsIwE7compareEPKwS3_m
FN:199,206,_ZN9__gnu_cxx11char_traitsIcE6lengthEPKc
FN:199,206,_ZN9__gnu_cxx11char_traitsIwE6lengthEPKw
FN:210,217,_ZN9__gnu_cxx11char_traitsIcE4findEPKcmRS2_
FN:210,217,_ZN9__gnu_cxx11char_traitsIwE4findEPKwmRS2_
FN:351,359,_ZNSt11char_traitsIcE6assignERcRKc
FN:362,363,_ZNSt11char_traitsIcE2eqERKcS2_
FN:366,371,_ZNSt11char_traitsIcE2ltERKcS2_
FN:374,390,_ZNSt11char_traitsIcE7compareEPKcS2_m
FN:393,400,_ZNSt11char_traitsIcE6lengthEPKc
FN:403,412,_ZNSt11char_traitsIcE4findEPKcmRS1_
FN:415,424,_ZNSt11char_traitsIcE4moveEPcPKcm
FN:427,436,_ZNSt11char_traitsIcE4copyEPcPKcm
FN:439,448,_ZNSt11char_traitsIcE6assignEPcmc
FN:451,452,_ZNSt11char_traitsIcE12to_char_typeERKi
FN:457,458,_ZNSt11char_traitsIcE11to_int_typeERKc
FN:461,462,_ZNSt11char_traitsIcE11eq_int_typeERKiS2_
FN:466,467,_ZNSt11char_traitsIcE3eofEv
FN:470,471,_ZNSt11char_traitsIcE7not_eofERKi
FN:493,501,_ZNSt11char_traitsIwE6assignERwRKw
FN:504,505,_ZNSt11char_traitsIwE2eqERKwS2_
FN:508,509,_ZNSt11char_traitsIwE2ltERKwS2_
FN:512,521,_ZNSt11char_traitsIwE7compareEPKwS2_m
FN:524,531,_ZNSt11char_traitsIwE6lengthEPKw
FN:534,543,_ZNSt11char_traitsIwE4findEPKwmRS1_
FN:546,555,_ZNSt11char_traitsIwE4moveEPwPKwm
FN:558,567,_ZNSt11char_traitsIwE4copyEPwPKwm
FN:570,579,_ZNSt11char_traitsIwE6assignEPwmw
FN:582,583,_ZNSt11char_traitsIwE12to_char_typeERKj
FN:586,587,_ZNSt11char_traitsIwE11to_int_typeERKw
FN:590,591,_ZNSt11char_traitsIwE11eq_int_typeERKjS2_
FN:595,596,_ZNSt11char_traitsIwE3eofEv
FN:599,600,_ZNSt11char_traitsIwE7not_eofERKj
FN:770,778,_ZNSt11char_traitsIDsE6assignERDsRKDs
FN:781,782,_ZNSt11char_traitsIDsE2eqERKDsS2_
FN:785,786,_ZNSt11char_traitsIDsE2ltERKDsS2_
FN:789,797,_ZNSt11char_traitsIDsE7compareEPKDsS2_m
FN:800,806,_ZNSt11char_traitsIDsE6lengthEPKDs
FN:809,815,_ZNSt11char_traitsIDsE4findEPKDsmRS1_
FN:818,828,_ZNSt11char_traitsIDsE4moveEPDsPKDsm
FN:831,841,_ZNSt11char_traitsIDsE4copyEPDsPKDsm
FN:844,849,_ZNSt11char_traitsIDsE6assignEPDsmDs
FN:852,853,_ZNSt11char_traitsIDsE12to_char_typeERKt
FN:856,857,_ZNSt11char_traitsIDsE11eq_int_typeERKtS2_
FN:861,862,_ZNSt11char_traitsIDsE11to_int_typeERKDs
FN:865,866,_ZNSt11char_traitsIDsE3eofEv
FN:869,870,_ZNSt11char_traitsIDsE7not_eofERKt
FN:899,907,_ZNSt11char_traitsIDiE6assignERDiRKDi
FN:910,911,_ZNSt11char_traitsIDiE2eqERKDiS2_
FN:914,915,_ZNSt11char_traitsIDiE2ltERKDiS2_
FN:918,926,_ZNSt11char_traitsIDiE7compareEPKDiS2_m
FN:929,935,_ZNSt11char_traitsIDiE6lengthEPKDi
FN:938,944,_ZNSt11char_traitsIDiE4findEPKDimRS1_
FN:947,957,_ZNSt11char_traitsIDiE4moveEPDiPKDim
FN:960,970,_ZNSt11char_traitsIDiE4copyEPDiPKDim
FN:973,978,_ZNSt11char_traitsIDiE6assignEPDimDi
FN:981,982,_ZNSt11char_traitsIDiE12to_char_typeERKj
FN:985,986,_ZNSt11char_traitsIDiE11to_int_typeERKDi
FN:989,990,_ZNSt11char_traitsIDiE11eq_int_typeERKjS2_
FN:994,995,_ZNSt11char_traitsIDiE3eofEv
FN:998,999,_ZNSt11char_traitsIDiE7not_eofERKj
FNDA:0,_ZN9__gnu_cxx11char_traitsIcE2eqERKcS3_
FNDA:0,_ZN9__gnu_cxx11char_traitsIwE2eqERKwS3_
FNDA:0,_ZN9__gnu_cxx11char_traitsIwE2ltERKwS3_
FNDA:0,_ZN9__gnu_cxx11char_traitsIwE7compareEPKwS3_m
FNDA:0,_ZN9__gnu_cxx11char_traitsIcE6lengthEPKc
FNDA:0,_ZN9__gnu_cxx11char_traitsIwE6lengthEPKw
FNDA:0,_ZN9__gnu_cxx11char_traitsIcE4findEPKcmRS2_
FNDA:0,_ZN9__gnu_cxx11char_traitsIwE4findEPKwmRS2_
FNDA:0,_ZNSt11char_traitsIcE6assignERcRKc
FNDA:0,_ZNSt11char_traitsIcE2eqERKcS2_
FNDA:0,_ZNSt11char_traitsIcE2ltERKcS2_
FNDA:91,_ZNSt11char_traitsIcE7compareEPKcS2_m
FNDA:444,_ZNSt11char_traitsIcE6lengthEPKc
FNDA:0,_ZNSt11char_traitsIcE4findEPKcmRS1_
FNDA:0,_ZNSt11char_traitsIcE4moveEPcPKcm
FNDA:0,_ZNSt11char_traitsIcE4copyEPcPKcm
FNDA:0,_ZNSt11char_traitsIcE6assignEPcmc
FNDA:0,_ZNSt11char_traitsIcE12to_char_typeERKi
FNDA:0,_ZNSt11char_traitsIcE11to_int_typeERKc
FNDA:0,_ZNSt11char_traitsIcE11eq_int_typeERKiS2_
FNDA:0,_ZNSt11char_traitsIcE3eofEv
FNDA:0,_ZNSt11char_traitsIcE7not_eofERKi
FNDA:0,_ZNSt11char_traitsIwE6assignERwRKw
FNDA:0,_ZNSt11char_traitsIwE2eqERKwS2_
FNDA:0,_ZNSt11char_traitsIwE2ltERKwS2_
FNDA:0,_ZNSt11char_traitsIwE7compareEPKwS2_m
FNDA:0,_ZNSt11char_traitsIwE6lengthEPKw
FNDA:0,_ZNSt11char_traitsIwE4findEPKwmRS1_
FNDA:0,_ZNSt11char_traitsIwE4moveEPwPKwm
FNDA:0,_ZNSt11char_traitsIwE4copyEPwPKwm
FNDA:0,_ZNSt11char_traitsIwE6assignEPwmw
FNDA:0,_ZNSt11char_traitsIwE12to_char_typeERKj
FNDA:0,_ZNSt11char_traitsIwE11to_int_typeERKw
FNDA:0,_ZNSt11char_traitsIwE11eq_int_typeERKjS2_
FNDA:0,_ZNSt11char_traitsIwE3eofEv
FNDA:0,_ZNSt11char_traitsIwE7not_eofERKj
FNDA:0,_ZNSt11char_traitsIDsE6assignERDsRKDs
FNDA:0,_ZNSt11char_traitsIDsE2eqERKDsS2_
FNDA:0,_ZNSt11char_traitsIDsE2ltERKDsS2_
FNDA:0,_ZNSt11char_traitsIDsE7compareEPKDsS2_m
FNDA:0,_ZNSt11char_traitsIDsE6lengthEPKDs
FNDA:0,_ZNSt11char_traitsIDsE4findEPKDsmRS1_
FNDA:0,_ZNSt11char_traitsIDsE4moveEPDsPKDsm
FNDA:0,_ZNSt11char_traitsIDsE4copyEPDsPKDsm
FNDA:0,_ZNSt11char_traitsIDsE6assignEPDsmDs
FNDA:0,_ZNSt11char_traitsIDsE12to_char_typeERKt
FNDA:0,_ZNSt11char_traitsIDsE11eq_int_typeERKtS2_
FNDA:0,_ZNSt11char_traitsIDsE11to_int_typeERKDs
FNDA:0,_ZNSt11char_traitsIDsE3eofEv
FNDA:0,_ZNSt11char_traitsIDsE7not_eofERKt
FNDA:0,_ZNSt11char_traitsIDiE6assignERDiRKDi
FNDA:0,_ZNSt11char_traitsIDiE2eqERKDiS2_
FNDA:0,_ZNSt11char_traitsIDiE2ltERKDiS2_
FNDA:0,_ZNSt11char_traitsIDiE7compareEPKDiS2_m
FNDA:0,_ZNSt11char_traitsIDiE6lengthEPKDi
FNDA:0,_ZNSt11char_traitsIDiE4findEPKDimRS1_
FNDA:0,_ZNSt11char_traitsIDiE4moveEPDiPKDim
FNDA:0,_ZNSt11char_traitsIDiE4copyEPDiPKDim
FNDA:0,_ZNSt11char_traitsIDiE6assignEPDimDi
FNDA:0,_ZNSt11char_traitsIDiE12to_char_typeERKj
FNDA:0,_ZNSt11char_traitsIDiE11to_int_typeERKDi
FNDA:0,_ZNSt11char_traitsIDiE11eq_int_typeERKjS2_
FNDA:0,_ZNSt11char_traitsIDiE3eofEv
FNDA:0,_ZNSt11char_traitsIDiE7not_eofERKj
FNF:64
FNH:2
DA:136,0
DA:137,0
DA:140,0
DA:141,0
DA:186,0
DA:189,0
DA:190,0
DA:191,0
DA:192,0
DA:193,0
DA:194,0
DA:199,0
DA:202,0
DA:203,0
DA:204,0
DA:205,0
DA:210,0
DA:213,0
DA:214,0
DA:215,0
DA:216,0
DA:351,0
DA:358,0
DA:359,0
DA:362,0
DA:363,0
DA:366,0
DA:369,0
DA:370,0
DA:374,91
DA:376,91
DA:377,2
DA:379,89
DA:381,0
DA:382,0
DA:383,0
DA:384,0
DA:385,0
DA:386,0
DA:389,89
DA:393,444
DA:396,444
DA:397,0
DA:399,444
DA:403,0
DA:405,0
DA:406,0
DA:408,0
DA:409,0
DA:411,0
DA:415,0
DA:417,0
DA:418,0
DA:423,0
DA:427,0
DA:429,0
DA:430,0
DA:435,0
DA:439,0
DA:441,0
DA:442,0
DA:447,0
DA:451,0
DA:452,0
DA:457,0
DA:458,0
DA:461,0
DA:462,0
DA:466,0
DA:467,0
DA:470,0
DA:471,0
DA:493,0
DA:500,0
DA:501,0
DA:504,0
DA:505,0
DA:508,0
DA:509,0
DA:512,0
DA:514,0
DA:515,0
DA:517,0
DA:518,0
DA:520,0
DA:524,0
DA:527,0
DA:528,0
DA:530,0
DA:534,0
DA:536,0
DA:537,0
DA:539,0
DA:540,0
DA:542,0
DA:546,0
DA:548,0
DA:549,0
DA:554,0
DA:558,0
DA:560,0
DA:561,0
DA:566,0
DA:570,0
DA:572,0
DA:573,0
DA:578,0
DA:582,0
DA:583,0
DA:586,0
DA:587,0
DA:590,0
DA:591,0
DA:595,0
DA:596,0
DA:599,0
DA:600,0
DA:770,0
DA:777,0
DA:778,0
DA:781,0
DA:782,0
DA:785,0
DA:786,0
DA:789,0
DA:791,0
DA:792,0
DA:793,0
DA:794,0
DA:795,0
DA:796,0
DA:800,0
DA:802,0
DA:803,0
DA:804,0
DA:805,0
DA:809,0
DA:811,0
DA:812,0
DA:813,0
DA:814,0
DA:818,0
DA:820,0
DA:821,0
DA:827,0
DA:831,0
DA:833,0
DA:834,0
DA:840,0
DA:844,0
DA:846,0
DA:847,0
DA:848,0
DA:852,0
DA:853,0
DA:856,0
DA:857,0
DA:861,0
DA:862,0
DA:865,0
DA:866,0
DA:869,0
DA:870,0
DA:899,0
DA:906,0
DA:907,0
DA:910,0
DA:911,0
DA:914,0
DA:915,0
DA:918,0
DA:920,0
DA:921,0
DA:922,0
DA:923,0
DA:924,0
DA:925,0
DA:929,0
DA:931,0
DA:932,0
DA:933,0
DA:934,0
DA:938,0
DA:940,0
DA:941,0
DA:942,0
DA:943,0
DA:947,0
DA:949,0
DA:950,0
DA:956,0
DA:960,0
DA:962,0
DA:963,0
DA:969,0
DA:973,0
DA:975,0
DA:976,0
DA:977,0
DA:981,0
DA:982,0
DA:985,0
DA:986,0
DA:989,0
DA:990,0
DA:994,0
DA:995,0
DA:998,0
DA:999,0
LF:209
LH:8
end_of_record
TN:
SF:/usr/include/c++/13/bits/charconv.h
FN:55,74,_ZNSt8__detail14__to_chars_lenIjEEjT_i
FN:55,74,_ZNSt8__detail14__to_chars_lenImEEjT_i
FN:55,74,_ZNSt8__detail14__to_chars_lenIyEEjT_i
FN:81,110,_ZNSt8__detail18__to_chars_10_implIjEEvPcjT_
FN:81,110,_ZNSt8__detail18__to_chars_10_implImEEvPcjT_
FN:81,110,_ZNSt8__detail18__to_chars_10_implIyEEvPcjT_
FNDA:5,_ZNSt8__detail14__to_chars_lenIjEEjT_i
FNDA:2,_ZNSt8__detail14__to_chars_lenImEEjT_i
FNDA:2,_ZNSt8__detail14__to_chars_lenIyEEjT_i
FNDA:5,_ZNSt8__detail18__to_chars_10_implIjEEvPcjT_
FNDA:2,_ZNSt8__detail18__to_chars_10_implImEEvPcjT_
FNDA:2,_ZNSt8__detail18__to_chars_10_implIyEEvPcjT_
FNF:6
FNH:6
DA:55,9
DA:61,9
DA:62,9
DA:63,9
DA:64,9
DA:67,13
DA:68,12
DA:69,10
DA:70,7
DA:71,4
DA:72,4
DA:81,9
DA:87,9
DA:93,9
DA:94,23
DA:96,14
DA:97,14
DA:98,14
DA:99,14
DA:100,14
DA:102,9
DA:104,5
DA:105,5
DA:106,5
DA:109,4
DA:110,9
LF:26
LH:26
end_of_record
TN:
SF:/usr/include/c++/13/bits/chrono.h
FN:1019,1023,_ZNSt6chrono15time_point_castINS_8durationIlSt5ratioILl1ELl1000000000EEEENS_3_V212system_clockENS1_IlS2_ILl1ELl1EEEEEENSt9enable_ifIXsrNS_13__is_durationIT_EE5valueENS_10time_pointIT0_SB_EEE4typeERKNSD_ISE_T1_EE
FN:1129,1136,_ZNSt6chronomiINSt10filesystem12__file_clockENS_8durationIlSt5ratioILl1ELl1000000000EEEElS4_ILl1ELl1EEEENS_10time_pointIT_NSt11common_typeIJT0_NS3_IT1_T2_EEEE4typeEEERKNS8_IS9_SB_EERKSE_
FN:1244,1248,_ZNSt6chrono3_V212system_clock9to_time_tERKNS_10time_pointIS1_NS_8durationIlSt5ratioILl1ELl1000000000EEEEEE
FN:1252,1257,_ZNSt6chrono3_V212system_clock11from_time_tEl
FN:1367,1368,_ZNSt8literals15chrono_literalsli1hEe
FN:1378,1379,_ZNSt8literals15chrono_literalsli3minEe
FN:1389,1390,_ZNSt8literals15chrono_literalsli1sEe
FN:1400,1401,_ZNSt8literals15chrono_literalsli2msEe
FN:1411,1412,_ZNSt8literals15chrono_literalsli2usEe
FN:1422,1423,_ZNSt8literals15chrono_literalsli2nsEe
FN:1454,1455,_ZNSt10filesystem12__file_clock3nowEv
FN:1485,1490,_ZNSt10filesystem12__file_clock11_S_from_sysINSt6chrono8durationIlSt5ratioILl1ELl1000000000EEEEEENS2_10time_pointIS0_NSt11common_typeIJT_NS3_IlS4_ILl1ELl1EEEEEE4typeEEERKNS7_INS2_3_V212system_clockES9_EE
FN:208,213,_ZNSt6chrono20__duration_cast_implINS_8durationIlSt5ratioILl1ELl1EEEES2_ILl1ELl1000000000EElLb1ELb0EE6__castIlS5_EES4_RKNS1_IT_T0_EE
FN:221,226,_ZNSt6chrono20__duration_cast_implINS_8durationIlSt5ratioILl1ELl1000000000EEEES2_ILl1000000000ELl1EElLb0ELb1EE6__castIlS2_ILl1ELl1EEEES4_RKNS1_IT_T0_EE
FN:273,291,_ZNSt6chrono13duration_castINS_8durationIlSt5ratioILl1ELl1000000000EEEElS2_ILl1ELl1EEEENSt9enable_ifIXsrNS_13__is_durationIT_EE5valueES8_E4typeERKNS1_IT0_T1_EE
FN:273,291,_ZNSt6chrono13duration_castINS_8durationIlSt5ratioILl1ELl1EEEElS2_ILl1ELl1000000000EEEENSt9enable_ifIXsrNS_13__is_durationIT_EE5valueES8_E4typeERKNS1_IT0_T1_EE
FN:498,499,_ZNSt6chrono15duration_valuesIlE4zeroEv
FN:506,507,_ZNSt6chrono15duration_valuesIlE3minEv
FN:523,541,_ZNSt6chrono8durationIlSt5ratioILl1ELl1000000000EEE6_S_gcdEll
FN:523,541,_ZNSt6chrono8durationIlSt5ratioILl1ELl1EEE6_S_gcdEll
FN:573,574,_ZNSt6chrono8durationIeSt5ratioILl1ELl1000000000EEEC2IevEERKT_
FN:573,574,_ZNSt6chrono8durationIeSt5ratioILl1ELl1000000EEEC2IevEERKT_
FN:573,574,_ZNSt6chrono8durationIeSt5ratioILl1ELl1000EEEC2IevEERKT_
FN:573,574,_ZNSt6chrono8durationIeSt5ratioILl1ELl1EEEC2IevEERKT_
FN:573,574,_ZNSt6chrono8durationIeSt5ratioILl3600ELl1EEEC2IevEERKT_
FN:573,574,_ZNSt6chrono8durationIeSt5ratioILl60ELl1EEEC2IevEERKT_
FN:573,574,_ZNSt6chrono8durationIlSt5ratioILl1ELl1000000000EEEC1IlvEERKT_
FN:573,574,_ZNSt6chrono8durationIlSt5ratioILl1ELl1000000000EEEC2IlvEERKT_
FN:573,574,_ZNSt6chrono8durationIlSt5ratioILl1ELl1EEEC1IlvEERKT_
FN:573,574,_ZNSt6chrono8durationIlSt5ratioILl1ELl1EEEC2IlvEERKT_
FN:581,582,_ZNSt6chrono8durationIlSt5ratioILl1ELl1000000000EEEC2IlS1_ILl1ELl1EEvEERKNS0_IT_T0_EE
FN:589,590,_ZNKSt6chrono8durationIlSt5ratioILl1ELl1000000000EEE5countEv
FN:589,590,_ZNKSt6chrono8durationIlSt5ratioILl1ELl1EEE5countEv
FN:673,674,_ZNSt6chrono8durationIlSt5ratioILl1ELl1000000000EEE4zeroEv
FN:677,678,_ZNSt6chrono8durationIlSt5ratioILl1ELl1000000000EEE3minEv
FN:710,717,_ZNSt6chronomiIlSt5ratioILl1ELl1000000000EElS1_ILl1ELl1EEEENSt11common_typeIJNS_8durationIT_T0_EENS5_IT1_T2_EEEE4typeERKS8_RKSB_
FN:822,829,_ZNSt6chronoltIlSt5ratioILl1ELl1000000000EElS2_EEbRKNS_8durationIT_T0_EERKNS3_IT1_T2_EE
FN:936,938,_ZNSt6chrono10time_pointINS_3_V212system_clockENS_8durationIlSt5ratioILl1ELl1000000000EEEEEC2ERKS6_
FN:936,938,_ZNSt6chrono10time_pointINS_3_V212system_clockENS_8durationIlSt5ratioILl1ELl1EEEEEC2ERKS6_
FN:936,938,_ZNSt6chrono10time_pointINSt10filesystem12__file_clockENS_8durationIlSt5ratioILl1ELl1000000000EEEEEC2ERKS6_
FN:949,950,_ZNKSt6chrono10time_pointINS_3_V212system_clockENS_8durationIlSt5ratioILl1ELl1000000000EEEEE16time_since_epochEv
FN:949,950,_ZNKSt6chrono10time_pointINS_3_V212system_clockENS_8durationIlSt5ratioILl1ELl1EEEEE16time_since_epochEv
FN:949,950,_ZNKSt6chrono10time_pointINSt10filesystem12__file_clockENS_8durationIlSt5ratioILl1ELl1000000000EEEEE16time_since_epochEv
FNDA:47,_ZNSt6chrono15time_point_castINS_8durationIlSt5ratioILl1ELl1000000000EEEENS_3_V212system_clockENS1_IlS2_ILl1ELl1EEEEEENSt9enable_ifIXsrNS_13__is_durationIT_EE5valueENS_10time_pointIT0_SB_EEE4typeERKNSD_ISE_T1_EE
FNDA:0,_ZNSt6chronomiINSt10filesystem12__file_clockENS_8durationIlSt5ratioILl1ELl1000000000EEEElS4_ILl1ELl1EEEENS_10time_pointIT_NSt11common_typeIJT0_NS3_IT1_T2_EEEE4typeEEERKNS8_IS9_SB_EERKSE_
FNDA:0,_ZNSt6chrono3_V212system_clock9to_time_tERKNS_10time_pointIS1_NS_8durationIlSt5ratioILl1ELl1000000000EEEEEE
FNDA:47,_ZNSt6chrono3_V212system_clock11from_time_tEl
FNDA:0,_ZNSt8literals15chrono_literalsli1hEe
FNDA:0,_ZNSt8literals15chrono_literalsli3minEe
FNDA:0,_ZNSt8literals15chrono_literalsli1sEe
FNDA:0,_ZNSt8literals15chrono_literalsli2msEe
FNDA:0,_ZNSt8literals15chrono_literalsli2usEe
FNDA:0,_ZNSt8literals15chrono_literalsli2nsEe
FNDA:0,_ZNSt10filesystem12__file_clock3nowEv
FNDA:0,_ZNSt10filesystem12__file_clock11_S_from_sysINSt6chrono8durationIlSt5ratioILl1ELl1000000000EEEEEENS2_10time_pointIS0_NSt11common_typeIJT_NS3_IlS4_ILl1ELl1EEEEEE4typeEEERKNS7_INS2_3_V212system_clockES9_EE
FNDA:0,_ZNSt6chrono20__duration_cast_implINS_8durationIlSt5ratioILl1ELl1EEEES2_ILl1ELl1000000000EElLb1ELb0EE6__castIlS5_EES4_RKNS1_IT_T0_EE
FNDA:47,_ZNSt6chrono20__duration_cast_implINS_8durationIlSt5ratioILl1ELl1000000000EEEES2_ILl1000000000ELl1EElLb0ELb1EE6__castIlS2_ILl1ELl1EEEES4_RKNS1_IT_T0_EE
FNDA:47,_ZNSt6chrono13duration_castINS_8durationIlSt5ratioILl1ELl1000000000EEEElS2_ILl1ELl1EEEENSt9enable_ifIXsrNS_13__is_durationIT_EE5valueES8_E4typeERKNS1_IT0_T1_EE
FNDA:0,_ZNSt6chrono13duration_castINS_8durationIlSt5ratioILl1ELl1EEEElS2_ILl1ELl1000000000EEEENSt9enable_ifIXsrNS_13__is_durationIT_EE5valueES8_E4typeERKNS1_IT0_T1_EE
FNDA:0,_ZNSt6chrono15duration_valuesIlE4zeroEv
FNDA:0,_ZNSt6chrono15duration_valuesIlE3minEv
FNDA:0,_ZNSt6chrono8durationIlSt5ratioILl1ELl1000000000EEE6_S_gcdEll
FNDA:0,_ZNSt6chrono8durationIlSt5ratioILl1ELl1EEE6_S_gcdEll
FNDA:0,_ZNSt6chrono8durationIeSt5ratioILl1ELl1000000000EEEC2IevEERKT_
FNDA:0,_ZNSt6chrono8durationIeSt5ratioILl1ELl1000000EEEC2IevEERKT_
FNDA:0,_ZNSt6chrono8durationIeSt5ratioILl1ELl1000EEEC2IevEERKT_
FNDA:0,_ZNSt6chrono8durationIeSt5ratioILl1ELl1EEEC2IevEERKT_
FNDA:0,_ZNSt6chrono8durationIeSt5ratioILl3600ELl1EEEC2IevEERKT_
FNDA:0,_ZNSt6chrono8durationIeSt5ratioILl60ELl1EEEC2IevEERKT_
FNDA:139,_ZNSt6chrono8durationIlSt5ratioILl1ELl1000000000EEEC1IlvEERKT_
FNDA:0,_ZNSt6chrono8durationIlSt5ratioILl1ELl1000000000EEEC2IlvEERKT_
FNDA:47,_ZNSt6chrono8durationIlSt5ratioILl1ELl1EEEC1IlvEERKT_
FNDA:0,_ZNSt6chrono8durationIlSt5ratioILl1ELl1EEEC2IlvEERKT_
FNDA:0,_ZNSt6chrono8durationIlSt5ratioILl1ELl1000000000EEEC2IlS1_ILl1ELl1EEvEERKNS0_IT_T0_EE
FNDA:276,_ZNKSt6chrono8durationIlSt5ratioILl1ELl1000000000EEE5countEv
FNDA:47,_ZNKSt6chrono8durationIlSt5ratioILl1ELl1EEE5countEv
FNDA:0,_ZNSt6chrono8durationIlSt5ratioILl1ELl1000000000EEE4zeroEv
FNDA:0,_ZNSt6chrono8durationIlSt5ratioILl1ELl1000000000EEE3minEv
FNDA:0,_ZNSt6chronomiIlSt5ratioILl1ELl1000000000EElS1_ILl1ELl1EEEENSt11common_typeIJNS_8durationIT_T0_EENS5_IT1_T2_EEEE4typeERKS8_RKSB_
FNDA:0,_ZNSt6chronoltIlSt5ratioILl1ELl1000000000EElS2_EEbRKNS_8durationIT_T0_EERKNS3_IT1_T2_EE
FNDA:47,_ZNSt6chrono10time_pointINS_3_V212system_clockENS_8durationIlSt5ratioILl1ELl1000000000EEEEEC2ERKS6_
FNDA:47,_ZNSt6chrono10time_pointINS_3_V212system_clockENS_8durationIlSt5ratioILl1ELl1EEEEEC2ERKS6_
FNDA:0,_ZNSt6chrono10time_pointINSt10filesystem12__file_clockENS_8durationIlSt5ratioILl1ELl1000000000EEEEEC2ERKS6_
FNDA:94,_ZNKSt6chrono10time_pointINS_3_V212system_clockENS_8durationIlSt5ratioILl1ELl1000000000EEEEE16time_since_epochEv
FNDA:47,_ZNKSt6chrono10time_pointINS_3_V212system_clockENS_8durationIlSt5ratioILl1ELl1EEEEE16time_since_epochEv
FNDA:0,_ZNKSt6chrono10time_pointINSt10filesystem12__file_clockENS_8durationIlSt5ratioILl1ELl1000000000EEEEE16time_since_epochEv
FNF:43
FNH:12
DA:208,0
DA:211,0
DA:212,0
DA:221,47
DA:224,94
DA:225,47
DA:273,47
DA:287,47
DA:498,0
DA:499,0
DA:506,0
DA:507,0
DA:523,0
DA:530,0
DA:531,0
DA:532,0
DA:534,0
DA:535,0
DA:573,186
DA:574,186
DA:581,0
DA:582,0
DA:589,323
DA:590,323
DA:673,0
DA:674,0
DA:677,0
DA:678,0
DA:710,0
DA:716,0
DA:822,0
DA:828,0
DA:936,94
DA:937,94
DA:938,94
DA:949,141
DA:950,141
DA:1019,47
DA:1022,47
DA:1129,0
DA:1135,0
DA:1244,0
DA:1247,0
DA:1252,47
DA:1256,47
DA:1367,0
DA:1368,0
DA:1378,0
DA:1379,0
DA:1389,0
DA:1390,0
DA:1400,0
DA:1401,0
DA:1411,0
DA:1412,0
DA:1422,0
DA:1423,0
DA:1454,0
DA:1455,0
DA:1485,0
DA:1489,0
LF:61
LH:18
end_of_record
TN:
SF:/usr/include/c++/13/bits/codecvt.h
FN:227,227,_ZNSt23__codecvt_abstract_baseIDic11__mbstate_tEC2Em
FN:227,227,_ZNSt23__codecvt_abstract_baseIDsc11__mbstate_tEC2Em
FN:230,230,_ZNSt23__codecvt_abstract_baseIDic11__mbstate_tED0Ev
FN:230,230,_ZNSt23__codecvt_abstract_baseIDic11__mbstate_tED2Ev
FN:230,230,_ZNSt23__codecvt_abstract_baseIDsc11__mbstate_tED0Ev
FN:230,230,_ZNSt23__codecvt_abstract_baseIDsc11__mbstate_tED2Ev
FN:483,484,_ZNSt7codecvtIDsc11__mbstate_tEC2Em
FN:540,541,_ZNSt7codecvtIDic11__mbstate_tEC2Em
FN:732,733,_ZNSt14codecvt_bynameIDsc11__mbstate_tEC2EPKcm
FN:736,737,_ZNSt14codecvt_bynameIDsc11__mbstate_tEC2ERKNSt7__cxx1112basic_stringIcSt11char_traitsIcESaIcEEEm
FN:741,741,_ZNSt14codecvt_bynameIDsc11__mbstate_tED0Ev
FN:741,741,_ZNSt14codecvt_bynameIDsc11__mbstate_tED2Ev
FN:750,751,_ZNSt14codecvt_bynameIDic11__mbstate_tEC2EPKcm
FN:754,755,_ZNSt14codecvt_bynameIDic11__mbstate_tEC2ERKNSt7__cxx1112basic_stringIcSt11char_traitsIcESaIcEEEm
FN:759,759,_ZNSt14codecvt_bynameIDic11__mbstate_tED0Ev
FN:759,759,_ZNSt14codecvt_bynameIDic11__mbstate_tED2Ev
FNDA:0,_ZNSt23__codecvt_abstract_baseIDic11__mbstate_tEC2Em
FNDA:0,_ZNSt23__codecvt_abstract_baseIDsc11__mbstate_tEC2Em
FNDA:0,_ZNSt23__codecvt_abstract_baseIDic11__mbstate_tED0Ev
FNDA:0,_ZNSt23__codecvt_abstract_baseIDic11__mbstate_tED2Ev
FNDA:0,_ZNSt23__codecvt_abstract_baseIDsc11__mbstate_tED0Ev
FNDA:0,_ZNSt23__codecvt_abstract_baseIDsc11__mbstate_tED2Ev
FNDA:0,_ZNSt7codecvtIDsc11__mbstate_tEC2Em
FNDA:0,_ZNSt7codecvtIDic11__mbstate_tEC2Em
FNDA:0,_ZNSt14codecvt_bynameIDsc11__mbstate_tEC2EPKcm
FNDA:0,_ZNSt14codecvt_bynameIDsc11__mbstate_tEC2ERKNSt7__cxx1112basic_stringIcSt11char_traitsIcESaIcEEEm
FNDA:0,_ZNSt14codecvt_bynameIDsc11__mbstate_tED0Ev
FNDA:0,_ZNSt14codecvt_bynameIDsc11__mbstate_tED2Ev
FNDA:0,_ZNSt14codecvt_bynameIDic11__mbstate_tEC2EPKcm
FNDA:0,_ZNSt14codecvt_bynameIDic11__mbstate_tEC2ERKNSt7__cxx1112basic_stringIcSt11char_traitsIcESaIcEEEm
FNDA:0,_ZNSt14codecvt_bynameIDic11__mbstate_tED0Ev
FNDA:0,_ZNSt14codecvt_bynameIDic11__mbstate_tED2Ev
FNF:16
FNH:0
DA:227,0
DA:230,0
DA:483,0
DA:484,0
DA:540,0
DA:541,0
DA:732,0
DA:733,0
DA:736,0
DA:737,0
DA:741,0
DA:750,0
DA:751,0
DA:754,0
DA:755,0
DA:759,0
LF:16
LH:0
end_of_record
TN:
SF:/usr/include/c++/13/bits/cpp_type_traits.h
FN:607,608,_ZSt12__miter_baseIPKbET_S2_
FN:607,608,_ZSt12__miter_baseISt19_Bit_const_iteratorET_S1_
FNDA:0,_ZSt12__miter_baseIPKbET_S2_
FNDA:0,_ZSt12__miter_baseISt19_Bit_const_iteratorET_S1_
FNF:2
FNH:0
DA:607,0
DA:608,0
LF:2
LH:0
end_of_record
TN:
SF:/usr/include/c++/13/bits/deque.tcc
FN:859,877,_ZNSt5dequeINSt7__cxx1112basic_stringIcSt11char_traitsIcESaIcEEESaIS5_EE19_M_destroy_data_auxESt15_Deque_iteratorIS5_RS5_PS5_ESB_
FNDA:1,_ZNSt5dequeINSt7__cxx1112basic_stringIcSt11char_traitsIcESaIcEEESaIS5_EE19_M_destroy_data_auxESt15_Deque_iteratorIS5_RS5_PS5_ESB_
FNF:1
FNH:1
DA:859,1
DA:862,1
DA:863,1
DA:864,0
DA:865,0
DA:867,1
DA:869,0
DA:870,0
DA:871,0
DA:872,0
DA:875,1
DA:876,1
DA:877,1
LF:13
LH:7
end_of_record
TN:
SF:/usr/include/c++/13/bits/exception.h
FN:62,62,_ZNSt9exceptionC2Ev
FNDA:4,_ZNSt9exceptionC2Ev
FNF:1
FNH:1
DA:62,4
LF:1
LH:1
end_of_record
TN:
SF:/usr/include/c++/13/bits/exception_ptr.h
FN:119,121,_ZNSt15__exception_ptr13exception_ptrC2EDn
FN:123,125,_ZNSt15__exception_ptr13exception_ptrC2EOS0_
FN:140,144,_ZNSt15__exception_ptr13exception_ptraSEOS0_
FN:162,163,_ZNKSt15__exception_ptr13exception_ptrcvbEv
FN:172,174,_ZNSt15__exception_ptreqERKNS_13exception_ptrES2_
FN:177,179,_ZNSt15__exception_ptrneERKNS_13exception_ptrES2_
FN:189,191,_ZNSt15__exception_ptr13exception_ptrC2Ev
FN:195,201,_ZNSt15__exception_ptr13exception_ptrC2ERKS0_
FN:205,209,_ZNSt15__exception_ptr13exception_ptrD2Ev
FN:213,217,_ZNSt15__exception_ptr13exception_ptraSERKS0_
FN:221,226,_ZNSt15__exception_ptr13exception_ptr4swapERS0_
FN:230,231,_ZNSt15__exception_ptr4swapERNS_13exception_ptrES1_
FNDA:0,_ZNSt15__exception_ptr13exception_ptrC2EDn
FNDA:0,_ZNSt15__exception_ptr13exception_ptrC2EOS0_
FNDA:0,_ZNSt15__exception_ptr13exception_ptraSEOS0_
FNDA:0,_ZNKSt15__exception_ptr13exception_ptrcvbEv
FNDA:0,_ZNSt15__exception_ptreqERKNS_13exception_ptrES2_
FNDA:0,_ZNSt15__exception_ptrneERKNS_13exception_ptrES2_
FNDA:0,_ZNSt15__exception_ptr13exception_ptrC2Ev
FNDA:0,_ZNSt15__exception_ptr13exception_ptrC2ERKS0_
FNDA:0,_ZNSt15__exception_ptr13exception_ptrD2Ev
FNDA:0,_ZNSt15__exception_ptr13exception_ptraSERKS0_
FNDA:0,_ZNSt15__exception_ptr13exception_ptr4swapERS0_
FNDA:0,_ZNSt15__exception_ptr4swapERNS_13exception_ptrES1_
FNF:12
FNH:0
DA:119,0
DA:120,0
DA:121,0
DA:123,0
DA:124,0
DA:125,0
DA:140,0
DA:142,0
DA:143,0
DA:162,0
DA:163,0
DA:172,0
DA:174,0
DA:177,0
DA:179,0
DA:189,0
DA:190,0
DA:191,0
DA:195,0
DA:196,0
DA:197,0
DA:199,0
DA:200,0
DA:201,0
DA:205,0
DA:207,0
DA:208,0
DA:209,0
DA:213,0
DA:215,0
DA:216,0
DA:221,0
DA:223,0
DA:224,0
DA:225,0
DA:226,0
DA:230,0
DA:231,0
LF:38
LH:0
end_of_record
TN:
SF:/usr/include/c++/13/bits/functional_hash.h
FN:125,125,_ZNKSt4hashIbEclEb
FN:128,128,_ZNKSt4hashIcEclEc
FN:131,131,_ZNKSt4hashIaEclEa
FN:134,134,_ZNKSt4hashIhEclEh
FN:137,137,_ZNKSt4hashIwEclEw
FN:145,145,_ZNKSt4hashIDsEclEDs
FN:148,148,_ZNKSt4hashIDiEclEDi
FN:151,151,_ZNKSt4hashIsEclEs
FN:154,154,_ZNKSt4hashIiEclEi
FN:157,157,_ZNKSt4hashIlEclEl
FN:160,160,_ZNKSt4hashIxEclEx
FN:163,163,_ZNKSt4hashItEclEt
FN:166,166,_ZNKSt4hashIjEclEj
FN:169,169,_ZNKSt4hashImEclEm
FN:172,172,_ZNKSt4hashIyEclEy
FN:204,206,_ZNSt10_Hash_impl4hashEPKvmm
FN:210,211,_ZNSt10_Hash_impl4hashIdEEmRKT_
FN:210,211,_ZNSt10_Hash_impl4hashIfEEmRKT_
FN:210,211,_ZNSt10_Hash_impl4hashIiEEmRKT_
FN:215,216,_ZNSt10_Hash_impl14__hash_combineIPKNSt3_V214error_categoryEEEmRKT_m
FN:223,225,_ZNSt14_Fnv_hash_impl4hashEPKvmm
FN:243,247,_ZNKSt4hashIfEclEf
FN:255,259,_ZNKSt4hashIdEclEd
FN:276,277,_ZNKSt4hashIDnEclEDn
FNDA:0,_ZNKSt4hashIbEclEb
FNDA:0,_ZNKSt4hashIcEclEc
FNDA:0,_ZNKSt4hashIaEclEa
FNDA:0,_ZNKSt4hashIhEclEh
FNDA:0,_ZNKSt4hashIwEclEw
FNDA:0,_ZNKSt4hashIDsEclEDs
FNDA:0,_ZNKSt4hashIDiEclEDi
FNDA:0,_ZNKSt4hashIsEclEs
FNDA:0,_ZNKSt4hashIiEclEi
FNDA:0,_ZNKSt4hashIlEclEl
FNDA:0,_ZNKSt4hashIxEclEx
FNDA:0,_ZNKSt4hashItEclEt
FNDA:0,_ZNKSt4hashIjEclEj
FNDA:0,_ZNKSt4hashImEclEm
FNDA:0,_ZNKSt4hashIyEclEy
FNDA:14,_ZNSt10_Hash_impl4hashEPKvmm
FNDA:0,_ZNSt10_Hash_impl4hashIdEEmRKT_
FNDA:0,_ZNSt10_Hash_impl4hashIfEEmRKT_
FNDA:0,_ZNSt10_Hash_impl4hashIiEEmRKT_
FNDA:0,_ZNSt10_Hash_impl14__hash_combineIPKNSt3_V214error_categoryEEEmRKT_m
FNDA:0,_ZNSt14_Fnv_hash_impl4hashEPKvmm
FNDA:0,_ZNKSt4hashIfEclEf
FNDA:0,_ZNKSt4hashIdEclEd
FNDA:0,_ZNKSt4hashIDnEclEDn
FNF:24
FNH:1
DA:125,0
DA:128,0
DA:131,0
DA:134,0
DA:137,0
DA:145,0
DA:148,0
DA:151,0
DA:154,0
DA:157,0
DA:160,0
DA:163,0
DA:166,0
DA:169,0
DA:172,0
DA:204,14
DA:206,14
DA:210,0
DA:211,0
DA:215,0
DA:216,0
DA:223,0
DA:225,0
DA:243,0
DA:246,0
DA:255,0
DA:258,0
DA:276,0
DA:277,0
LF:29
LH:2
end_of_record
TN:
SF:/usr/include/c++/13/bits/hashtable.h
FN:1595,1610,_ZNSt10_HashtableINSt7__cxx1112basic_stringIcSt11char_traitsIcESaIcEEESt4pairIKS5_mESaIS8_ENSt8__detail10_Select1stESt8equal_toIS5_ESt4hashIS5_ENSA_18_Mod_range_hashingENSA_20_Default_ranged_hashENSA_20_Prime_rehash_policyENSA_17_Hashtable_traitsILb1ELb0ELb1EEEED2Ev
FN:2520,2529,_ZNSt10_HashtableINSt7__cxx1112basic_stringIcSt11char_traitsIcESaIcEEESt4pairIKS5_mESaIS8_ENSt8__detail10_Select1stESt8equal_toIS5_ESt4hashIS5_ENSA_18_Mod_range_hashingENSA_20_Default_ranged_hashENSA_20_Prime_rehash_policyENSA_17_Hashtable_traitsILb1ELb0ELb1EEEE5clearEv
FN:416,417,_ZNKSt10_HashtableINSt7__cxx1112basic_stringIcSt11char_traitsIcESaIcEEESt4pairIKS5_mESaIS8_ENSt8__detail10_Select1stESt8equal_toIS5_ESt4hashIS5_ENSA_18_Mod_range_hashingENSA_20_Default_ranged_hashENSA_20_Prime_rehash_policyENSA_17_Hashtable_traitsILb1ELb0ELb1EEEE21_M_uses_single_bucketEPPNSA_15_Hash_node_baseE
FN:446,452,_ZNSt10_HashtableINSt7__cxx1112basic_stringIcSt11char_traitsIcESaIcEEESt4pairIKS5_mESaIS8_ENSt8__detail10_Select1stESt8equal_toIS5_ESt4hashIS5_ENSA_18_Mod_range_hashingENSA_20_Default_ranged_hashENSA_20_Prime_rehash_policyENSA_17_Hashtable_traitsILb1ELb0ELb1EEEE21_M_deallocate_bucketsEPPNSA_15_Hash_node_baseEm
FN:455,456,_ZNSt10_HashtableINSt7__cxx1112basic_stringIcSt11char_traitsIcESaIcEEESt4pairIKS5_mESaIS8_ENSt8__detail10_Select1stESt8equal_toIS5_ESt4hashIS5_ENSA_18_Mod_range_hashingENSA_20_Default_ranged_hashENSA_20_Prime_rehash_policyENSA_17_Hashtable_traitsILb1ELb0ELb1EEEE21_M_deallocate_bucketsEv
FN:464,465,_ZNKSt10_HashtableINSt7__cxx1112basic_stringIcSt11char_traitsIcESaIcEEESt4pairIKS5_mESaIS8_ENSt8__detail10_Select1stESt8equal_toIS5_ESt4hashIS5_ENSA_18_Mod_range_hashingENSA_20_Default_ranged_hashENSA_20_Prime_rehash_policyENSA_17_Hashtable_traitsILb1ELb0ELb1EEEE8_M_beginEv
FNDA:4,_ZNSt10_HashtableINSt7__cxx1112basic_stringIcSt11char_traitsIcESaIcEEESt4pairIKS5_mESaIS8_ENSt8__detail10_Select1stESt8equal_toIS5_ESt4hashIS5_ENSA_18_Mod_range_hashingENSA_20_Default_ranged_hashENSA_20_Prime_rehash_policyENSA_17_Hashtable_traitsILb1ELb0ELb1EEEED2Ev
FNDA:4,_ZNSt10_HashtableINSt7__cxx1112basic_stringIcSt11char_traitsIcESaIcEEESt4pairIKS5_mESaIS8_ENSt8__detail10_Select1stESt8equal_toIS5_ESt4hashIS5_ENSA_18_Mod_range_hashingENSA_20_Default_ranged_hashENSA_20_Prime_rehash_policyENSA_17_Hashtable_traitsILb1ELb0ELb1EEEE5clearEv
FNDA:4,_ZNKSt10_HashtableINSt7__cxx1112basic_stringIcSt11char_traitsIcESaIcEEESt4pairIKS5_mESaIS8_ENSt8__detail10_Select1stESt8equal_toIS5_ESt4hashIS5_ENSA_18_Mod_range_hashingENSA_20_Default_ranged_hashENSA_20_Prime_rehash_policyENSA_17_Hashtable_traitsILb1ELb0ELb1EEEE21_M_uses_single_bucketEPPNSA_15_Hash_node_baseE
FNDA:4,_ZNSt10_HashtableINSt7__cxx1112basic_stringIcSt11char_traitsIcESaIcEEESt4pairIKS5_mESaIS8_ENSt8__detail10_Select1stESt8equal_toIS5_ESt4hashIS5_ENSA_18_Mod_range_hashingENSA_20_Default_ranged_hashENSA_20_Prime_rehash_policyENSA_17_Hashtable_traitsILb1ELb0ELb1EEEE21_M_deallocate_bucketsEPPNSA_15_Hash_node_baseEm
FNDA:4,_ZNSt10_HashtableINSt7__cxx1112basic_stringIcSt11char_traitsIcESaIcEEESt4pairIKS5_mESaIS8_ENSt8__detail10_Select1stESt8equal_toIS5_ESt4hashIS5_ENSA_18_Mod_range_hashingENSA_20_Default_ranged_hashENSA_20_Prime_rehash_policyENSA_17_Hashtable_traitsILb1ELb0ELb1EEEE21_M_deallocate_bucketsEv
FNDA:4,_ZNKSt10_HashtableINSt7__cxx1112basic_stringIcSt11char_traitsIcESaIcEEESt4pairIKS5_mESaIS8_ENSt8__detail10_Select1stESt8equal_toIS5_ESt4hashIS5_ENSA_18_Mod_range_hashingENSA_20_Default_ranged_hashENSA_20_Prime_rehash_policyENSA_17_Hashtable_traitsILb1ELb0ELb1EEEE8_M_beginEv
FNF:6
FNH:6
DA:416,4
DA:417,4
DA:446,4
DA:448,4
DA:449,4
DA:451,0
DA:455,4
DA:456,4
DA:464,4
DA:465,4
DA:1595,4
DA:1608,4
DA:1609,4
DA:1610,4
DA:2520,4
DA:2524,4
DA:2525,4
DA:2526,4
DA:2527,4
DA:2528,4
DA:2529,4
LF:21
LH:20
end_of_record
TN:
SF:/usr/include/c++/13/bits/hashtable_policy.h
FN:1226,1226,_ZNSt8__detail21_Hashtable_ebo_helperILi0ESaINS_10_Hash_nodeISt4pairIKNSt7__cxx1112basic_stringIcSt11char_traitsIcESaIcEEEmELb1EEEELb1EE6_M_getEv
FN:1950,1951,_ZNSt8__detail16_Hashtable_allocISaINS_10_Hash_nodeISt4pairIKNSt7__cxx1112basic_stringIcSt11char_traitsIcESaIcEEEmELb1EEEEE17_M_node_allocatorEv
FN:2009,2013,_ZNSt8__detail16_Hashtable_allocISaINS_10_Hash_nodeISt4pairIKNSt7__cxx1112basic_stringIcSt11char_traitsIcESaIcEEEmELb1EEEEE18_M_deallocate_nodeEPSB_
FN:2017,2023,_ZNSt8__detail16_Hashtable_allocISaINS_10_Hash_nodeISt4pairIKNSt7__cxx1112basic_stringIcSt11char_traitsIcESaIcEEEmELb1EEEEE22_M_deallocate_node_ptrEPSB_
FN:2027,2035,_ZNSt8__detail16_Hashtable_allocISaINS_10_Hash_nodeISt4pairIKNSt7__cxx1112basic_stringIcSt11char_traitsIcESaIcEEEmELb1EEEEE19_M_deallocate_nodesEPSB_
FN:2052,2060,_ZNSt8__detail16_Hashtable_allocISaINS_10_Hash_nodeISt4pairIKNSt7__cxx1112basic_stringIcSt11char_traitsIcESaIcEEEmELb1EEEEE21_M_deallocate_bucketsEPPNS_15_Hash_node_baseEm
FN:313,313,_ZNSt8__detail15_Hash_node_baseC2Ev
FN:315,315,_ZNSt8__detail15_Hash_node_baseC2EPS0_
FN:332,333,_ZNSt8__detail21_Hash_node_value_baseISt4pairIKNSt7__cxx1112basic_stringIcSt11char_traitsIcESaIcEEEmEE9_M_valptrEv
FN:380,381,_ZNKSt8__detail10_Hash_nodeISt4pairIKNSt7__cxx1112basic_stringIcSt11char_traitsIcESaIcEEEmELb1EE7_M_nextEv
FN:526,528,_ZNKSt8__detail18_Mod_range_hashingclEmm
FN:544,545,_ZNSt8__detail20_Prime_rehash_policyC2Ef
FN:548,549,_ZNKSt8__detail20_Prime_rehash_policy15max_load_factorEv
FN:557,558,_ZNKSt8__detail20_Prime_rehash_policy19_M_bkt_for_elementsEm
FN:571,572,_ZNKSt8__detail20_Prime_rehash_policy8_M_stateEv
FN:575,576,_ZNSt8__detail20_Prime_rehash_policy8_M_resetEv
FN:579,580,_ZNSt8__detail20_Prime_rehash_policy8_M_resetEm
FN:596,598,_ZNKSt8__detail19_Mask_range_hashingclEmm
FN:603,614,_ZNSt8__detail6__clp2Em
FN:622,623,_ZNSt8__detail21_Power2_rehash_policyC2Ef
FN:626,627,_ZNKSt8__detail21_Power2_rehash_policy15max_load_factorEv
FN:632,662,_ZNSt8__detail21_Power2_rehash_policy11_M_next_bktEm
FN:666,667,_ZNKSt8__detail21_Power2_rehash_policy19_M_bkt_for_elementsEm
FN:674,696,_ZNSt8__detail21_Power2_rehash_policy14_M_need_rehashEmmm
FN:701,702,_ZNKSt8__detail21_Power2_rehash_policy8_M_stateEv
FN:705,706,_ZNSt8__detail21_Power2_rehash_policy8_M_resetEv
FN:709,710,_ZNSt8__detail21_Power2_rehash_policy8_M_resetEm
FNDA:0,_ZNSt8__detail21_Hashtable_ebo_helperILi0ESaINS_10_Hash_nodeISt4pairIKNSt7__cxx1112basic_stringIcSt11char_traitsIcESaIcEEEmELb1EEEELb1EE6_M_getEv
FNDA:0,_ZNSt8__detail16_Hashtable_allocISaINS_10_Hash_nodeISt4pairIKNSt7__cxx1112basic_stringIcSt11char_traitsIcESaIcEEEmELb1EEEEE17_M_node_allocatorEv
FNDA:0,_ZNSt8__detail16_Hashtable_allocISaINS_10_Hash_nodeISt4pairIKNSt7__cxx1112basic_stringIcSt11char_traitsIcESaIcEEEmELb1EEEEE18_M_deallocate_nodeEPSB_
FNDA:0,_ZNSt8__detail16_Hashtable_allocISaINS_10_Hash_nodeISt4pairIKNSt7__cxx1112basic_stringIcSt11char_traitsIcESaIcEEEmELb1EEEEE22_M_deallocate_node_ptrEPSB_
FNDA:4,_ZNSt8__detail16_Hashtable_allocISaINS_10_Hash_nodeISt4pairIKNSt7__cxx1112basic_stringIcSt11char_traitsIcESaIcEEEmELb1EEEEE19_M_deallocate_nodesEPSB_
FNDA:0,_ZNSt8__detail16_Hashtable_allocISaINS_10_Hash_nodeISt4pairIKNSt7__cxx1112basic_stringIcSt11char_traitsIcESaIcEEEmELb1EEEEE21_M_deallocate_bucketsEPPNS_15_Hash_node_baseEm
FNDA:58,_ZNSt8__detail15_Hash_node_baseC2Ev
FNDA:0,_ZNSt8__detail15_Hash_node_baseC2EPS0_
FNDA:0,_ZNSt8__detail21_Hash_node_value_baseISt4pairIKNSt7__cxx1112basic_stringIcSt11char_traitsIcESaIcEEEmEE9_M_valptrEv
FNDA:0,_ZNKSt8__detail10_Hash_nodeISt4pairIKNSt7__cxx1112basic_stringIcSt11char_traitsIcESaIcEEEmELb1EE7_M_nextEv
FNDA:26,_ZNKSt8__detail18_Mod_range_hashingclEmm
FNDA:44,_ZNSt8__detail20_Prime_rehash_policyC2Ef
FNDA:0,_ZNKSt8__detail20_Prime_rehash_policy15max_load_factorEv
FNDA:0,_ZNKSt8__detail20_Prime_rehash_policy19_M_bkt_for_elementsEm
FNDA:14,_ZNKSt8__detail20_Prime_rehash_policy8_M_stateEv
FNDA:6,_ZNSt8__detail20_Prime_rehash_policy8_M_resetEv
FNDA:0,_ZNSt8__detail20_Prime_rehash_policy8_M_resetEm
FNDA:0,_ZNKSt8__detail19_Mask_range_hashingclEmm
FNDA:0,_ZNSt8__detail6__clp2Em
FNDA:0,_ZNSt8__detail21_Power2_rehash_policyC2Ef
FNDA:0,_ZNKSt8__detail21_Power2_rehash_policy15max_load_factorEv
FNDA:0,_ZNSt8__detail21_Power2_rehash_policy11_M_next_bktEm
FNDA:0,_ZNKSt8__detail21_Power2_rehash_policy19_M_bkt_for_elementsEm
FNDA:0,_ZNSt8__detail21_Power2_rehash_policy14_M_need_rehashEmmm
FNDA:0,_ZNKSt8__detail21_Power2_rehash_policy8_M_stateEv
FNDA:0,_ZNSt8__detail21_Power2_rehash_policy8_M_resetEv
FNDA:0,_ZNSt8__detail21_Power2_rehash_policy8_M_resetEm
FNF:27
FNH:6
DA:313,58
DA:315,0
DA:332,0
DA:333,0
DA:380,0
DA:381,0
DA:526,26
DA:528,26
DA:544,44
DA:545,44
DA:548,0
DA:549,0
DA:557,0
DA:558,0
DA:571,14
DA:572,14
DA:575,6
DA:576,6
DA:579,0
DA:580,0
DA:596,0
DA:598,0
DA:603,0
DA:607,0
DA:608,0
DA:609,0
DA:611,0
DA:613,0
DA:622,0
DA:623,0
DA:626,0
DA:627,0
DA:632,0
DA:634,0
DA:638,0
DA:640,0
DA:641,0
DA:642,0
DA:644,0
DA:645,0
DA:646,0
DA:650,0
DA:652,0
DA:656,0
DA:659,0
DA:661,0
DA:666,0
DA:667,0
DA:674,0
DA:677,0
DA:683,0
DA:684,0
DA:685,0
DA:687,0
DA:688,0
DA:691,0
DA:692,0
DA:695,0
DA:701,0
DA:702,0
DA:705,0
DA:706,0
DA:709,0
DA:710,0
DA:1226,0
DA:1950,0
DA:1951,0
DA:2009,0
DA:2011,0
DA:2012,0
DA:2013,0
DA:2017,0
DA:2020,0
DA:2021,0
DA:2022,0
DA:2023,0
DA:2027,4
DA:2029,4
DA:2031,0
DA:2032,0
DA:2033,0
DA:2035,4
DA:2052,0
DA:2057,0
DA:2058,0
DA:2060,0
LF:86
LH:12
end_of_record
TN:
SF:/usr/include/c++/13/bits/ios_base.h
FN:1001,1005,_ZSt9uppercaseRSt8ios_base
FN:1009,1013,_ZSt11nouppercaseRSt8ios_base
FN:1017,1021,_ZSt7unitbufRSt8ios_base
FN:1025,1029,_ZSt9nounitbufRSt8ios_base
FN:103,104,_ZStaNRSt13_Ios_FmtflagsS_
FN:1034,1038,_ZSt8internalRSt8ios_base
FN:1042,1046,_ZSt4leftRSt8ios_base
FN:1050,1054,_ZSt5rightRSt8ios_base
FN:1059,1063,_ZSt3decRSt8ios_base
FN:1067,1071,_ZSt3hexRSt8ios_base
FN:107,108,_ZSteORSt13_Ios_FmtflagsS_
FN:1075,1079,_ZSt3octRSt8ios_base
FN:1084,1088,_ZSt5fixedRSt8ios_base
FN:1092,1096,_ZSt10scientificRSt8ios_base
FN:1104,1108,_ZSt8hexfloatRSt8ios_base
FN:1112,1116,_ZSt12defaultfloatRSt8ios_base
FN:126,127,_ZStanSt13_Ios_OpenmodeS_
FN:130,131,_ZStorSt13_Ios_OpenmodeS_
FN:134,135,_ZSteoSt13_Ios_OpenmodeS_
FN:138,139,_ZStcoSt13_Ios_Openmode
FN:142,143,_ZStoRRSt13_Ios_OpenmodeS_
FN:146,147,_ZStaNRSt13_Ios_OpenmodeS_
FN:150,151,_ZSteORSt13_Ios_OpenmodeS_
FN:166,167,_ZStanSt12_Ios_IostateS_
FN:170,171,_ZStorSt12_Ios_IostateS_
FN:174,175,_ZSteoSt12_Ios_IostateS_
FN:178,179,_ZStcoSt12_Ios_Iostate
FN:182,183,_ZStoRRSt12_Ios_IostateS_
FN:186,187,_ZStaNRSt12_Ios_IostateS_
FN:190,191,_ZSteORSt12_Ios_IostateS_
FN:214,215,_ZSt15make_error_codeSt7io_errc
FN:219,220,_ZSt20make_error_conditionSt7io_errc
FN:574,576,_ZNSt8ios_base14_Callback_listC2EPFvNS_5eventERS_iEiPS0_
FN:579,579,_ZNSt8ios_base14_Callback_list16_M_add_referenceEv
FN:583,593,_ZNSt8ios_base14_Callback_list19_M_remove_referenceEv
FN:609,609,_ZNSt8ios_base6_WordsC2Ev
FN:662,663,_ZNKSt8ios_base5flagsEv
FN:673,678,_ZNSt8ios_base5flagsESt13_Ios_Fmtflags
FN:689,694,_ZNSt8ios_base4setfESt13_Ios_Fmtflags
FN:706,712,_ZNSt8ios_base4setfESt13_Ios_FmtflagsS0_
FN:721,722,_ZNSt8ios_base6unsetfESt13_Ios_Fmtflags
FN:732,733,_ZNKSt8ios_base9precisionEv
FN:741,746,_ZNSt8ios_base9precisionEl
FN:755,756,_ZNKSt8ios_base5widthEv
FN:764,769,_ZNSt8ios_base5widthEl
FN:806,807,_ZNKSt8ios_base6getlocEv
FN:817,818,_ZNKSt8ios_base9_M_getlocEv
FN:83,84,_ZStanSt13_Ios_FmtflagsS_
FN:852,857,_ZNSt8ios_base5iwordEi
FN:87,88,_ZStorSt13_Ios_FmtflagsS_
FN:873,878,_ZNSt8ios_base5pwordEi
FN:91,92,_ZSteoSt13_Ios_FmtflagsS_
FN:921,925,_ZSt9boolalphaRSt8ios_base
FN:929,933,_ZSt11noboolalphaRSt8ios_base
FN:937,941,_ZSt8showbaseRSt8ios_base
FN:945,949,_ZSt10noshowbaseRSt8ios_base
FN:95,96,_ZStcoSt13_Ios_Fmtflags
FN:953,957,_ZSt9showpointRSt8ios_base
FN:961,965,_ZSt11noshowpointRSt8ios_base
FN:969,973,_ZSt7showposRSt8ios_base
FN:977,981,_ZSt9noshowposRSt8ios_base
FN:985,989,_ZSt6skipwsRSt8ios_base
FN:99,100,_ZStoRRSt13_Ios_FmtflagsS_
FN:993,997,_ZSt8noskipwsRSt8ios_base
FNDA:0,_ZSt9uppercaseRSt8ios_base
FNDA:0,_ZSt11nouppercaseRSt8ios_base
FNDA:0,_ZSt7unitbufRSt8ios_base
FNDA:0,_ZSt9nounitbufRSt8ios_base
FNDA:0,_ZStaNRSt13_Ios_FmtflagsS_
FNDA:0,_ZSt8internalRSt8ios_base
FNDA:0,_ZSt4leftRSt8ios_base
FNDA:0,_ZSt5rightRSt8ios_base
FNDA:0,_ZSt3decRSt8ios_base
FNDA:0,_ZSt3hexRSt8ios_base
FNDA:0,_ZSteORSt13_Ios_FmtflagsS_
FNDA:0,_ZSt3octRSt8ios_base
FNDA:0,_ZSt5fixedRSt8ios_base
FNDA:0,_ZSt10scientificRSt8ios_base
FNDA:0,_ZSt8hexfloatRSt8ios_base
FNDA:0,_ZSt12defaultfloatRSt8ios_base
FNDA:0,_ZStanSt13_Ios_OpenmodeS_
FNDA:0,_ZStorSt13_Ios_OpenmodeS_
FNDA:0,_ZSteoSt13_Ios_OpenmodeS_
FNDA:0,_ZStcoSt13_Ios_Openmode
FNDA:0,_ZStoRRSt13_Ios_OpenmodeS_
FNDA:0,_ZStaNRSt13_Ios_OpenmodeS_
FNDA:0,_ZSteORSt13_Ios_OpenmodeS_
FNDA:0,_ZStanSt12_Ios_IostateS_
FNDA:0,_ZStorSt12_Ios_IostateS_
FNDA:0,_ZSteoSt12_Ios_IostateS_
FNDA:0,_ZStcoSt12_Ios_Iostate
FNDA:0,_ZStoRRSt12_Ios_IostateS_
FNDA:0,_ZStaNRSt12_Ios_IostateS_
FNDA:0,_ZSteORSt12_Ios_IostateS_
FNDA:0,_ZSt15make_error_codeSt7io_errc
FNDA:0,_ZSt20make_error_conditionSt7io_errc
FNDA:0,_ZNSt8ios_base14_Callback_listC2EPFvNS_5eventERS_iEiPS0_
FNDA:0,_ZNSt8ios_base14_Callback_list16_M_add_referenceEv
FNDA:0,_ZNSt8ios_base14_Callback_list19_M_remove_referenceEv
FNDA:0,_ZNSt8ios_base6_WordsC2Ev
FNDA:0,_ZNKSt8ios_base5flagsEv
FNDA:0,_ZNSt8ios_base5flagsESt13_Ios_Fmtflags
FNDA:0,_ZNSt8ios_base4setfESt13_Ios_Fmtflags
FNDA:0,_ZNSt8ios_base4setfESt13_Ios_FmtflagsS0_
FNDA:0,_ZNSt8ios_base6unsetfESt13_Ios_Fmtflags
FNDA:0,_ZNKSt8ios_base9precisionEv
FNDA:0,_ZNSt8ios_base9precisionEl
FNDA:0,_ZNKSt8ios_base5widthEv
FNDA:0,_ZNSt8ios_base5widthEl
FNDA:0,_ZNKSt8ios_base6getlocEv
FNDA:0,_ZNKSt8ios_base9_M_getlocEv
FNDA:0,_ZStanSt13_Ios_FmtflagsS_
FNDA:0,_ZNSt8ios_base5iwordEi
FNDA:0,_ZStorSt13_Ios_FmtflagsS_
FNDA:0,_ZNSt8ios_base5pwordEi
FNDA:0,_ZSteoSt13_Ios_FmtflagsS_
FNDA:0,_ZSt9boolalphaRSt8ios_base
FNDA:0,_ZSt11noboolalphaRSt8ios_base
FNDA:0,_ZSt8showbaseRSt8ios_base
FNDA:0,_ZSt10noshowbaseRSt8ios_base
FNDA:0,_ZStcoSt13_Ios_Fmtflags
FNDA:0,_ZSt9showpointRSt8ios_base
FNDA:0,_ZSt11noshowpointRSt8ios_base
FNDA:0,_ZSt7showposRSt8ios_base
FNDA:0,_ZSt9noshowposRSt8ios_base
FNDA:0,_ZSt6skipwsRSt8ios_base
FNDA:0,_ZStoRRSt13_Ios_FmtflagsS_
FNDA:0,_ZSt8noskipwsRSt8ios_base
FNF:64
FNH:0
DA:83,0
DA:84,0
DA:87,0
DA:88,0
DA:91,0
DA:92,0
DA:95,0
DA:96,0
DA:99,0
DA:100,0
DA:103,0
DA:104,0
DA:107,0
DA:108,0
DA:126,0
DA:127,0
DA:130,0
DA:131,0
DA:134,0
DA:135,0
DA:138,0
DA:139,0
DA:142,0
DA:143,0
DA:146,0
DA:147,0
DA:150,0
DA:151,0
DA:166,0
DA:167,0
DA:170,0
DA:171,0
DA:174,0
DA:175,0
DA:178,0
DA:179,0
DA:182,0
DA:183,0
DA:186,0
DA:187,0
DA:190,0
DA:191,0
DA:214,0
DA:215,0
DA:219,0
DA:220,0
DA:574,0
DA:576,0
DA:579,0
DA:583,0
DA:587,0
DA:592,0
DA:609,0
DA:662,0
DA:663,0
DA:673,0
DA:675,0
DA:676,0
DA:677,0
DA:689,0
DA:691,0
DA:692,0
DA:693,0
DA:706,0
DA:708,0
DA:709,0
DA:710,0
DA:711,0
DA:721,0
DA:722,0
DA:732,0
DA:733,0
DA:741,0
DA:743,0
DA:744,0
DA:745,0
DA:755,0
DA:756,0
DA:764,0
DA:766,0
DA:767,0
DA:768,0
DA:806,0
DA:807,0
DA:817,0
DA:818,0
DA:852,0
DA:854,0
DA:855,0
DA:856,0
DA:873,0
DA:875,0
DA:876,0
DA:877,0
DA:921,0
DA:923,0
DA:924,0
DA:929,0
DA:931,0
DA:932,0
DA:937,0
DA:939,0
DA:940,0
DA:945,0
DA:947,0
DA:948,0
DA:953,0
DA:955,0
DA:956,0
DA:961,0
DA:963,0
DA:964,0
DA:969,0
DA:971,0
DA:972,0
DA:977,0
DA:979,0
DA:980,0
DA:985,0
DA:987,0
DA:988,0
DA:993,0
DA:995,0
DA:996,0
DA:1001,0
DA:1003,0
DA:1004,0
DA:1009,0
DA:1011,0
DA:1012,0
DA:1017,0
DA:1019,0
DA:1020,0
DA:1025,0
DA:1027,0
DA:1028,0
DA:1034,0
DA:1036,0
DA:1037,0
DA:1042,0
DA:1044,0
DA:1045,0
DA:1050,0
DA:1052,0
DA:1053,0
DA:1059,0
DA:1061,0
DA:1062,0
DA:1067,0
DA:1069,0
DA:1070,0
DA:1075,0
DA:1077,0
DA:1078,0
DA:1084,0
DA:1086,0
DA:1087,0
DA:1092,0
DA:1094,0
DA:1095,0
DA:1104,0
DA:1106,0
DA:1107,0
DA:1112,0
DA:1114,0
DA:1115,0
LF:166
LH:0
end_of_record
TN:
SF:/usr/include/c++/13/bits/locale_classes.h
FN:167,167,_ZNSt6localeC2ERKNSt7__cxx1112basic_stringIcSt11char_traitsIcESaIcEEE
FN:181,182,_ZNSt6localeC2ERKS_RKNSt7__cxx1112basic_stringIcSt11char_traitsIcESaIcEEEi
FN:269,270,_ZNKSt6localeneERKS_
FN:409,410,_ZNSt6locale5facetC2Em
FN:452,453,_ZNKSt6locale5facet16_M_add_referenceEv
FN:456,468,_ZNKSt6locale5facet19_M_remove_referenceEv
FN:524,524,_ZNSt6locale2idC2Ev
FN:570,571,_ZNSt6locale5_Impl16_M_add_referenceEv
FN:574,586,_ZNSt6locale5_Impl19_M_remove_referenceEv
FN:600,608,_ZNSt6locale5_Impl18_M_check_same_nameEv
FNDA:0,_ZNSt6localeC2ERKNSt7__cxx1112basic_stringIcSt11char_traitsIcESaIcEEE
FNDA:0,_ZNSt6localeC2ERKS_RKNSt7__cxx1112basic_stringIcSt11char_traitsIcESaIcEEEi
FNDA:0,_ZNKSt6localeneERKS_
FNDA:0,_ZNSt6locale5facetC2Em
FNDA:0,_ZNKSt6locale5facet16_M_add_referenceEv
FNDA:0,_ZNKSt6locale5facet19_M_remove_referenceEv
FNDA:0,_ZNSt6locale2idC2Ev
FNDA:0,_ZNSt6locale5_Impl16_M_add_referenceEv
FNDA:0,_ZNSt6locale5_Impl19_M_remove_referenceEv
FNDA:0,_ZNSt6locale5_Impl18_M_check_same_nameEv
FNF:10
FNH:0
DA:167,0
DA:181,0
DA:182,0
DA:269,0
DA:270,0
DA:409,0
DA:410,0
DA:452,0
DA:453,0
DA:456,0
DA:460,0
DA:464,0
DA:468,0
DA:524,0
DA:570,0
DA:571,0
DA:574,0
DA:578,0
DA:582,0
DA:586,0
DA:600,0
DA:602,0
DA:603,0
DA:605,0
DA:606,0
DA:607,0
LF:26
LH:0
end_of_record
TN:
SF:/usr/include/c++/13/bits/locale_facets.h
FN:1092,1093,_ZNKSt5ctypeIcE8do_widenEc
FN:1115,1120,_ZNKSt5ctypeIcE8do_widenEPKcS2_Pc
FN:1142,1143,_ZNKSt5ctypeIcE9do_narrowEcc
FN:1168,1174,_ZNKSt5ctypeIcE9do_narrowEPKcS2_cPc
FN:810,811,_ZNKSt5ctypeIcE7toupperEc
FN:827,828,_ZNKSt5ctypeIcE7toupperEPcPKc
FN:843,844,_ZNKSt5ctypeIcE7tolowerEc
FN:860,861,_ZNKSt5ctypeIcE7tolowerEPcPKc
FN:880,886,_ZNKSt5ctypeIcE5widenEc
FN:907,918,_ZNKSt5ctypeIcE5widenEPKcS2_Pc
FN:939,947,_ZNKSt5ctypeIcE6narrowEcc
FN:972,984,_ZNKSt5ctypeIcE6narrowEPKcS2_cPc
FN:991,992,_ZNKSt5ctypeIcE5tableEv
FNDA:0,_ZNKSt5ctypeIcE8do_widenEc
FNDA:0,_ZNKSt5ctypeIcE8do_widenEPKcS2_Pc
FNDA:0,_ZNKSt5ctypeIcE9do_narrowEcc
FNDA:0,_ZNKSt5ctypeIcE9do_narrowEPKcS2_cPc
FNDA:0,_ZNKSt5ctypeIcE7toupperEc
FNDA:0,_ZNKSt5ctypeIcE7toupperEPcPKc
FNDA:0,_ZNKSt5ctypeIcE7tolowerEc
FNDA:0,_ZNKSt5ctypeIcE7tolowerEPcPKc
FNDA:0,_ZNKSt5ctypeIcE5widenEc
FNDA:0,_ZNKSt5ctypeIcE5widenEPKcS2_Pc
FNDA:0,_ZNKSt5ctypeIcE6narrowEcc
FNDA:0,_ZNKSt5ctypeIcE6narrowEPKcS2_cPc
FNDA:0,_ZNKSt5ctypeIcE5tableEv
FNF:13
FNH:0
DA:810,0
DA:811,0
DA:827,0
DA:828,0
DA:843,0
DA:844,0
DA:860,0
DA:861,0
DA:880,0
DA:882,0
DA:883,0
DA:884,0
DA:885,0
DA:907,0
DA:909,0
DA:911,0
DA:912,0
DA:913,0
DA:915,0
DA:916,0
DA:917,0
DA:939,0
DA:941,0
DA:942,0
DA:943,0
DA:944,0
DA:945,0
DA:946,0
DA:972,0
DA:975,0
DA:977,0
DA:978,0
DA:979,0
DA:981,0
DA:982,0
DA:983,0
DA:991,0
DA:992,0
DA:1092,0
DA:1093,0
DA:1115,0
DA:1117,0
DA:1118,0
DA:1119,0
DA:1142,0
DA:1143,0
DA:1168,0
DA:1171,0
DA:1172,0
DA:1173,0
LF:50
LH:0
end_of_record
TN:
SF:/usr/include/c++/13/bits/memory_resource.h
FN:101,102,_ZNSt3pmreqERKNS_15memory_resourceES2_
FN:107,108,_ZNSt3pmrneERKNS_15memory_resourceES2_
FN:74,76,_ZNSt3pmr15memory_resource8allocateEmm
FN:79,81,_ZNSt3pmr15memory_resource10deallocateEPvmm
FN:85,86,_ZNKSt3pmr15memory_resource8is_equalERKS0_
FNDA:0,_ZNSt3pmreqERKNS_15memory_resourceES2_
FNDA:0,_ZNSt3pmrneERKNS_15memory_resourceES2_
FNDA:0,_ZNSt3pmr15memory_resource8allocateEmm
FNDA:0,_ZNSt3pmr15memory_resource10deallocateEPvmm
FNDA:0,_ZNKSt3pmr15memory_resource8is_equalERKS0_
FNF:5
FNH:0
DA:74,0
DA:76,0
DA:79,0
DA:81,0
DA:85,0
DA:86,0
DA:101,0
DA:102,0
DA:107,0
DA:108,0
LF:10
LH:0
end_of_record
TN:
SF:/usr/include/c++/13/bits/move.h
FN:138,139,_ZSt9addressofIDiEPT_RS0_
FN:138,139,_ZSt9addressofIDsEPT_RS0_
FN:138,139,_ZSt9addressofIKDiEPT_RS1_
FN:138,139,_ZSt9addressofIKDsEPT_RS1_
FN:138,139,_ZSt9addressofIKcEPT_RS1_
FN:138,139,_ZSt9addressofIKwEPT_RS1_
FN:138,139,_ZSt9addressofINSt8__detail10_Hash_nodeISt4pairIKNSt7__cxx1112basic_stringIcSt11char_traitsIcESaIcEEEmELb1EEEEPT_RSC_
FN:138,139,_ZSt9addressofIPNSt8__detail15_Hash_node_baseEEPT_RS3_
FN:138,139,_ZSt9addressofIcEPT_RS0_
FN:138,139,_ZSt9addressofIwEPT_RS0_
FN:51,52,_ZSt11__addressofIDiEPT_RS0_
FN:51,52,_ZSt11__addressofIDsEPT_RS0_
FN:51,52,_ZSt11__addressofIKDiEPT_RS1_
FN:51,52,_ZSt11__addressofIKDsEPT_RS1_
FN:51,52,_ZSt11__addressofIKcEPT_RS1_
FN:51,52,_ZSt11__addressofIKwEPT_RS1_
FN:51,52,_ZSt11__addressofINSt7__cxx1112basic_stringIcSt11char_traitsIcESaIcEEEEPT_RS6_
FN:51,52,_ZSt11__addressofINSt8__detail10_Hash_nodeISt4pairIKNSt7__cxx1112basic_stringIcSt11char_traitsIcESaIcEEEmELb1EEEEPT_RSC_
FN:51,52,_ZSt11__addressofIPNSt8__detail15_Hash_node_baseEEPT_RS3_
FN:51,52,_ZSt11__addressofISaISt23_Sp_counted_ptr_inplaceISt5mutexSaIvELN9__gnu_cxx12_Lock_policyE2EEEEPT_RS7_
FN:51,52,_ZSt11__addressofISt5mutexEPT_RS1_
FN:51,52,_ZSt11__addressofIcEPT_RS0_
FN:51,52,_ZSt11__addressofImEPT_RS0_
FN:51,52,_ZSt11__addressofIwEPT_RS0_
FN:70,71,_ZSt7forwardI17DerivedFromStringEOT_RNSt16remove_referenceIS1_E4typeE
FN:70,71,_ZSt7forwardI18WithOutputOperatorEOT_RNSt16remove_referenceIS1_E4typeE
FN:70,71,_ZSt7forwardI19WithConvertOperatorEOT_RNSt16remove_referenceIS1_E4typeE
FN:70,71,_ZSt7forwardI27WithExplicitConvertOperatorEOT_RNSt16remove_referenceIS1_E4typeE
FN:70,71,_ZSt7forwardI36DerivedFromStringWithConvertOperatorEOT_RNSt16remove_referenceIS1_E4typeE
FN:70,71,_ZSt7forwardIDnEOT_RNSt16remove_referenceIS0_E4typeE
FN:70,71,_ZSt7forwardIN7testing8internal12CodeLocationEEOT_RNSt16remove_referenceIS3_E4typeE
FN:70,71,_ZSt7forwardINSt7__cxx1112basic_stringIcSt11char_traitsIcESaIcEEEEOT_RNSt16remove_referenceIS6_E4typeE
FN:70,71,_ZSt7forwardIPKN7testing16MatcherInterfaceINSt7__cxx1112basic_stringIcSt11char_traitsIcESaIcEEEEEEOT_RNSt16remove_referenceISB_E4typeE
FN:70,71,_ZSt7forwardIPKN7testing16MatcherInterfaceIRKNSt7__cxx1112basic_stringIcSt11char_traitsIcESaIcEEEEEEOT_RNSt16remove_referenceISD_E4typeE
FN:70,71,_ZSt7forwardIPKN7testing16MatcherInterfaceIRKSt17basic_string_viewIcSt11char_traitsIcEEEEEOT_RNSt16remove_referenceISB_E4typeE
FN:70,71,_ZSt7forwardIPKN7testing16MatcherInterfaceISt17basic_string_viewIcSt11char_traitsIcEEEEEOT_RNSt16remove_referenceIS9_E4typeE
FN:70,71,_ZSt7forwardIPKN7testing8internal11MatcherBaseINSt7__cxx1112basic_stringIcSt11char_traitsIcESaIcEEEEEEOT_RNSt16remove_referenceISC_E4typeE
FN:70,71,_ZSt7forwardIPKN7testing8internal11MatcherBaseIRKNSt7__cxx1112basic_stringIcSt11char_traitsIcESaIcEEEEEEOT_RNSt16remove_referenceISE_E4typeE
FN:70,71,_ZSt7forwardIPKN7testing8internal11MatcherBaseIRKSt17basic_string_viewIcSt11char_traitsIcEEEEEOT_RNSt16remove_referenceISC_E4typeE
FN:70,71,_ZSt7forwardIPKN7testing8internal11MatcherBaseISt17basic_string_viewIcSt11char_traitsIcEEEEEOT_RNSt16remove_referenceISA_E4typeE
FN:70,71,_ZSt7forwardIPKcEOT_RNSt16remove_referenceIS2_E4typeE
FN:70,71,_ZSt7forwardIPvEOT_RNSt16remove_referenceIS1_E4typeE
FN:70,71,_ZSt7forwardIRKNSt7__cxx1112basic_stringIcSt11char_traitsIcESaIcEEEEOT_RNSt16remove_referenceIS8_E4typeE
FN:70,71,_ZSt7forwardIRN7testing8internal12CodeLocationEEOT_RNSt16remove_referenceIS4_E4typeE
FN:70,71,_ZSt7forwardIRPKN7testing16MatcherInterfaceINSt7__cxx1112basic_stringIcSt11char_traitsIcESaIcEEEEEEOT_RNSt16remove_referenceISC_E4typeE
FN:70,71,_ZSt7forwardIRPKN7testing16MatcherInterfaceIRKNSt7__cxx1112basic_stringIcSt11char_traitsIcESaIcEEEEEEOT_RNSt16remove_referenceISE_E4typeE
FN:70,71,_ZSt7forwardIRPKN7testing16MatcherInterfaceIRKSt17basic_string_viewIcSt11char_traitsIcEEEEEOT_RNSt16remove_referenceISC_E4typeE
FN:70,71,_ZSt7forwardIRPKN7testing16MatcherInterfaceISt17basic_string_viewIcSt11char_traitsIcEEEEEOT_RNSt16remove_referenceISA_E4typeE
FN:70,71,_ZSt7forwardIRPKcEOT_RNSt16remove_referenceIS3_E4typeE
FN:70,71,_ZSt7forwardIRPSt13_Rb_tree_nodeISt4pairIKNSt7__cxx1112basic_stringIcSt11char_traitsIcESaIcEEEN7testing8internal12CodeLocationEEEEOT_RNSt16remove_referenceISG_E4typeE
FN:70,71,_ZSt7forwardIRPSt18_Rb_tree_node_baseEOT_RNSt16remove_referenceIS3_E4typeE
FN:70,71,_ZSt7forwardIRSt16initializer_listIcEEOT_RNSt16remove_referenceIS3_E4typeE
FN:70,71,_ZSt7forwardISt14default_deleteINSt7__cxx1112basic_stringIcSt11char_traitsIcESaIcEEEEEOT_RNSt16remove_referenceIS8_E4typeE
FN:70,71,_ZSt7forwardISt17_Rb_tree_iteratorISt4pairIKNSt7__cxx1112basic_stringIcSt11char_traitsIcESaIcEEEN7testing8internal12CodeLocationEEEEOT_RNSt16remove_referenceISE_E4typeE
FN:70,71,_ZSt7forwardISt17basic_string_viewIcSt11char_traitsIcEEEOT_RNSt16remove_referenceIS4_E4typeE
FN:70,71,_ZSt7forwardISt5dequeINSt7__cxx1112basic_stringIcSt11char_traitsIcESaIcEEESaIS6_EEEOT_RNSt16remove_referenceIS9_E4typeE
FN:70,71,_ZSt7forwardISt6vectorIiSaIiEEEOT_RNSt16remove_referenceIS3_E4typeE
FN:70,71,_ZSt7forwardIaEOT_RNSt16remove_referenceIS0_E4typeE
FN:70,71,_ZSt7forwardIbEOT_RNSt16remove_referenceIS0_E4typeE
FN:70,71,_ZSt7forwardIcEOT_RNSt16remove_referenceIS0_E4typeE
FN:70,71,_ZSt7forwardIdEOT_RNSt16remove_referenceIS0_E4typeE
FN:70,71,_ZSt7forwardIeEOT_RNSt16remove_referenceIS0_E4typeE
FN:70,71,_ZSt7forwardIfEOT_RNSt16remove_referenceIS0_E4typeE
FN:70,71,_ZSt7forwardIhEOT_RNSt16remove_referenceIS0_E4typeE
FN:70,71,_ZSt7forwardIiEOT_RNSt16remove_referenceIS0_E4typeE
FN:70,71,_ZSt7forwardIjEOT_RNSt16remove_referenceIS0_E4typeE
FN:70,71,_ZSt7forwardIlEOT_RNSt16remove_referenceIS0_E4typeE
FN:70,71,_ZSt7forwardImEOT_RNSt16remove_referenceIS0_E4typeE
FN:70,71,_ZSt7forwardIsEOT_RNSt16remove_referenceIS0_E4typeE
FN:70,71,_ZSt7forwardItEOT_RNSt16remove_referenceIS0_E4typeE
FN:70,71,_ZSt7forwardIxEOT_RNSt16remove_referenceIS0_E4typeE
FN:70,71,_ZSt7forwardIyEOT_RNSt16remove_referenceIS0_E4typeE
FN:97,98,_ZSt4moveIR31WithRefQualifiedConvertOperatorEONSt16remove_referenceIT_E4typeEOS3_
FN:97,98,_ZSt4moveIRN7testing8internal12CodeLocationEEONSt16remove_referenceIT_E4typeEOS5_
FN:97,98,_ZSt4moveIRNSt7__cxx1112basic_stringIcSt11char_traitsIcESaIcEEEEONSt16remove_referenceIT_E4typeEOS8_
FN:97,98,_ZSt4moveIRPKN7testing16MatcherInterfaceINSt7__cxx1112basic_stringIcSt11char_traitsIcESaIcEEEEEEONSt16remove_referenceIT_E4typeEOSD_
FN:97,98,_ZSt4moveIRPKN7testing16MatcherInterfaceIRKNSt7__cxx1112basic_stringIcSt11char_traitsIcESaIcEEEEEEONSt16remove_referenceIT_E4typeEOSF_
FN:97,98,_ZSt4moveIRPKN7testing16MatcherInterfaceIRKSt17basic_string_viewIcSt11char_traitsIcEEEEEONSt16remove_referenceIT_E4typeEOSD_
FN:97,98,_ZSt4moveIRPKN7testing16MatcherInterfaceISt17basic_string_viewIcSt11char_traitsIcEEEEEONSt16remove_referenceIT_E4typeEOSB_
FN:97,98,_ZSt4moveIRPKbEONSt16remove_referenceIT_E4typeEOS4_
FN:97,98,_ZSt4moveIRPNSt7__cxx1112basic_stringIcSt11char_traitsIcESaIcEEEEONSt16remove_referenceIT_E4typeEOS9_
FN:97,98,_ZSt4moveIRPNSt7__cxx1118basic_stringstreamIcSt11char_traitsIcESaIcEEEEONSt16remove_referenceIT_E4typeEOS9_
FN:97,98,_ZSt4moveIRSaIcEEONSt16remove_referenceIT_E4typeEOS3_
FN:97,98,_ZSt4moveIRSt10unique_ptrIKN7testing16MatcherInterfaceINSt7__cxx1112basic_stringIcSt11char_traitsIcESaIcEEEEESt14default_deleteISA_EEEONSt16remove_referenceIT_E4typeEOSG_
FN:97,98,_ZSt4moveIRSt10unique_ptrIKN7testing16MatcherInterfaceIRKNSt7__cxx1112basic_stringIcSt11char_traitsIcESaIcEEEEESt14default_deleteISC_EEEONSt16remove_referenceIT_E4typeEOSI_
FN:97,98,_ZSt4moveIRSt10unique_ptrIKN7testing16MatcherInterfaceIRKSt17basic_string_viewIcSt11char_traitsIcEEEESt14default_deleteISA_EEEONSt16remove_referenceIT_E4typeEOSG_
FN:97,98,_ZSt4moveIRSt10unique_ptrIKN7testing16MatcherInterfaceISt17basic_string_viewIcSt11char_traitsIcEEEESt14default_deleteIS8_EEEONSt16remove_referenceIT_E4typeEOSE_
FN:97,98,_ZSt4moveIRSt4pairIRPKcRN7testing8internal12CodeLocationEEEONSt16remove_referenceIT_E4typeEOSB_
FN:97,98,_ZSt4moveIRSt5tupleIJPKN7testing16MatcherInterfaceINSt7__cxx1112basic_stringIcSt11char_traitsIcESaIcEEEEESt14default_deleteISA_EEEEONSt16remove_referenceIT_E4typeEOSH_
FN:97,98,_ZSt4moveIRSt5tupleIJPKN7testing16MatcherInterfaceIRKNSt7__cxx1112basic_stringIcSt11char_traitsIcESaIcEEEEESt14default_deleteISC_EEEEONSt16remove_referenceIT_E4typeEOSJ_
FN:97,98,_ZSt4moveIRSt5tupleIJPKN7testing16MatcherInterfaceIRKSt17basic_string_viewIcSt11char_traitsIcEEEESt14default_deleteISA_EEEEONSt16remove_referenceIT_E4typeEOSH_
FN:97,98,_ZSt4moveIRSt5tupleIJPKN7testing16MatcherInterfaceISt17basic_string_viewIcSt11char_traitsIcEEEESt14default_deleteIS8_EEEEONSt16remove_referenceIT_E4typeEOSF_
FN:97,98,_ZSt4moveIRbEONSt16remove_referenceIT_E4typeEOS2_
FNDA:0,_ZSt9addressofIDiEPT_RS0_
FNDA:0,_ZSt9addressofIDsEPT_RS0_
FNDA:0,_ZSt9addressofIKDiEPT_RS1_
FNDA:0,_ZSt9addressofIKDsEPT_RS1_
FNDA:0,_ZSt9addressofIKcEPT_RS1_
FNDA:0,_ZSt9addressofIKwEPT_RS1_
FNDA:0,_ZSt9addressofINSt8__detail10_Hash_nodeISt4pairIKNSt7__cxx1112basic_stringIcSt11char_traitsIcESaIcEEEmELb1EEEEPT_RSC_
FNDA:4,_ZSt9addressofIPNSt8__detail15_Hash_node_baseEEPT_RS3_
FNDA:0,_ZSt9addressofIcEPT_RS0_
FNDA:0,_ZSt9addressofIwEPT_RS0_
FNDA:0,_ZSt11__addressofIDiEPT_RS0_
FNDA:0,_ZSt11__addressofIDsEPT_RS0_
FNDA:0,_ZSt11__addressofIKDiEPT_RS1_
FNDA:0,_ZSt11__addressofIKDsEPT_RS1_
FNDA:0,_ZSt11__addressofIKcEPT_RS1_
FNDA:0,_ZSt11__addressofIKwEPT_RS1_
FNDA:168,_ZSt11__addressofINSt7__cxx1112basic_stringIcSt11char_traitsIcESaIcEEEEPT_RS6_
FNDA:0,_ZSt11__addressofINSt8__detail10_Hash_nodeISt4pairIKNSt7__cxx1112basic_stringIcSt11char_traitsIcESaIcEEEmELb1EEEEPT_RSC_
FNDA:4,_ZSt11__addressofIPNSt8__detail15_Hash_node_baseEEPT_RS3_
FNDA:0,_ZSt11__addressofISaISt23_Sp_counted_ptr_inplaceISt5mutexSaIvELN9__gnu_cxx12_Lock_policyE2EEEEPT_RS7_
FNDA:0,_ZSt11__addressofISt5mutexEPT_RS1_
FNDA:0,_ZSt11__addressofIcEPT_RS0_
FNDA:0,_ZSt11__addressofImEPT_RS0_
FNDA:0,_ZSt11__addressofIwEPT_RS0_
FNDA:2,_ZSt7forwardI17DerivedFromStringEOT_RNSt16remove_referenceIS1_E4typeE
FNDA:2,_ZSt7forwardI18WithOutputOperatorEOT_RNSt16remove_referenceIS1_E4typeE
FNDA:2,_ZSt7forwardI19WithConvertOperatorEOT_RNSt16remove_referenceIS1_E4typeE
FNDA:2,_ZSt7forwardI27WithExplicitConvertOperatorEOT_RNSt16remove_referenceIS1_E4typeE
FNDA:2,_ZSt7forwardI36DerivedFromStringWithConvertOperatorEOT_RNSt16remove_referenceIS1_E4typeE
FNDA:1,_ZSt7forwardIDnEOT_RNSt16remove_referenceIS0_E4typeE
FNDA:0,_ZSt7forwardIN7testing8internal12CodeLocationEEOT_RNSt16remove_referenceIS3_E4typeE
FNDA:101,_ZSt7forwardINSt7__cxx1112basic_stringIcSt11char_traitsIcESaIcEEEEOT_RNSt16remove_referenceIS6_E4typeE
FNDA:0,_ZSt7forwardIPKN7testing16MatcherInterfaceINSt7__cxx1112basic_stringIcSt11char_traitsIcESaIcEEEEEEOT_RNSt16remove_referenceISB_E4typeE
FNDA:0,_ZSt7forwardIPKN7testing16MatcherInterfaceIRKNSt7__cxx1112basic_stringIcSt11char_traitsIcESaIcEEEEEEOT_RNSt16remove_referenceISD_E4typeE
FNDA:0,_ZSt7forwardIPKN7testing16MatcherInterfaceIRKSt17basic_string_viewIcSt11char_traitsIcEEEEEOT_RNSt16remove_referenceISB_E4typeE
FNDA:0,_ZSt7forwardIPKN7testing16MatcherInterfaceISt17basic_string_viewIcSt11char_traitsIcEEEEEOT_RNSt16remove_referenceIS9_E4typeE
FNDA:0,_ZSt7forwardIPKN7testing8internal11MatcherBaseINSt7__cxx1112basic_stringIcSt11char_traitsIcESaIcEEEEEEOT_RNSt16remove_referenceISC_E4typeE
FNDA:0,_ZSt7forwardIPKN7testing8internal11MatcherBaseIRKNSt7__cxx1112basic_stringIcSt11char_traitsIcESaIcEEEEEEOT_RNSt16remove_referenceISE_E4typeE
FNDA:0,_ZSt7forwardIPKN7testing8internal11MatcherBaseIRKSt17basic_string_viewIcSt11char_traitsIcEEEEEOT_RNSt16remove_referenceISC_E4typeE
FNDA:0,_ZSt7forwardIPKN7testing8internal11MatcherBaseISt17basic_string_viewIcSt11char_traitsIcEEEEEOT_RNSt16remove_referenceISA_E4typeE
FNDA:2,_ZSt7forwardIPKcEOT_RNSt16remove_referenceIS2_E4typeE
FNDA:1,_ZSt7forwardIPvEOT_RNSt16remove_referenceIS1_E4typeE
FNDA:104,_ZSt7forwardIRKNSt7__cxx1112basic_stringIcSt11char_traitsIcESaIcEEEEOT_RNSt16remove_referenceIS8_E4typeE
FNDA:0,_ZSt7forwardIRN7testing8internal12CodeLocationEEOT_RNSt16remove_referenceIS4_E4typeE
FNDA:0,_ZSt7forwardIRPKN7testing16MatcherInterfaceINSt7__cxx1112basic_stringIcSt11char_traitsIcESaIcEEEEEEOT_RNSt16remove_referenceISC_E4typeE
FNDA:0,_ZSt7forwardIRPKN7testing16MatcherInterfaceIRKNSt7__cxx1112basic_stringIcSt11char_traitsIcESaIcEEEEEEOT_RNSt16remove_referenceISE_E4typeE
FNDA:0,_ZSt7forwardIRPKN7testing16MatcherInterfaceIRKSt17basic_string_viewIcSt11char_traitsIcEEEEEOT_RNSt16remove_referenceISC_E4typeE
FNDA:0,_ZSt7forwardIRPKN7testing16MatcherInterfaceISt17basic_string_viewIcSt11char_traitsIcEEEEEOT_RNSt16remove_referenceISA_E4typeE
FNDA:0,_ZSt7forwardIRPKcEOT_RNSt16remove_referenceIS3_E4typeE
FNDA:0,_ZSt7forwardIRPSt13_Rb_tree_nodeISt4pairIKNSt7__cxx1112basic_stringIcSt11char_traitsIcESaIcEEEN7testing8internal12CodeLocationEEEEOT_RNSt16remove_referenceISG_E4typeE
FNDA:0,_ZSt7forwardIRPSt18_Rb_tree_node_baseEOT_RNSt16remove_referenceIS3_E4typeE
FNDA:2,_ZSt7forwardIRSt16initializer_listIcEEOT_RNSt16remove_referenceIS3_E4typeE
FNDA:0,_ZSt7forwardISt14default_deleteINSt7__cxx1112basic_stringIcSt11char_traitsIcESaIcEEEEEOT_RNSt16remove_referenceIS8_E4typeE
FNDA:0,_ZSt7forwardISt17_Rb_tree_iteratorISt4pairIKNSt7__cxx1112basic_stringIcSt11char_traitsIcESaIcEEEN7testing8internal12CodeLocationEEEEOT_RNSt16remove_referenceISE_E4typeE
FNDA:2,_ZSt7forwardISt17basic_string_viewIcSt11char_traitsIcEEEOT_RNSt16remove_referenceIS4_E4typeE
FNDA:1,_ZSt7forwardISt5dequeINSt7__cxx1112basic_stringIcSt11char_traitsIcESaIcEEESaIS6_EEEOT_RNSt16remove_referenceIS9_E4typeE
FNDA:1,_ZSt7forwardISt6vectorIiSaIiEEEOT_RNSt16remove_referenceIS3_E4typeE
FNDA:2,_ZSt7forwardIaEOT_RNSt16remove_referenceIS0_E4typeE
FNDA:16,_ZSt7forwardIbEOT_RNSt16remove_referenceIS0_E4typeE
FNDA:1,_ZSt7forwardIcEOT_RNSt16remove_referenceIS0_E4typeE
FNDA:18,_ZSt7forwardIdEOT_RNSt16remove_referenceIS0_E4typeE
FNDA:2,_ZSt7forwardIeEOT_RNSt16remove_referenceIS0_E4typeE
FNDA:2,_ZSt7forwardIfEOT_RNSt16remove_referenceIS0_E4typeE
FNDA:1,_ZSt7forwardIhEOT_RNSt16remove_referenceIS0_E4typeE
FNDA:322,_ZSt7forwardIiEOT_RNSt16remove_referenceIS0_E4typeE
FNDA:2,_ZSt7forwardIjEOT_RNSt16remove_referenceIS0_E4typeE
FNDA:2,_ZSt7forwardIlEOT_RNSt16remove_referenceIS0_E4typeE
FNDA:2,_ZSt7forwardImEOT_RNSt16remove_referenceIS0_E4typeE
FNDA:2,_ZSt7forwardIsEOT_RNSt16remove_referenceIS0_E4typeE
FNDA:2,_ZSt7forwardItEOT_RNSt16remove_referenceIS0_E4typeE
FNDA:2,_ZSt7forwardIxEOT_RNSt16remove_referenceIS0_E4typeE
FNDA:2,_ZSt7forwardIyEOT_RNSt16remove_referenceIS0_E4typeE
FNDA:1,_ZSt4moveIR31WithRefQualifiedConvertOperatorEONSt16remove_referenceIT_E4typeEOS3_
FNDA:144,_ZSt4moveIRN7testing8internal12CodeLocationEEONSt16remove_referenceIT_E4typeEOS5_
FNDA:704,_ZSt4moveIRNSt7__cxx1112basic_stringIcSt11char_traitsIcESaIcEEEEONSt16remove_referenceIT_E4typeEOS8_
FNDA:0,_ZSt4moveIRPKN7testing16MatcherInterfaceINSt7__cxx1112basic_stringIcSt11char_traitsIcESaIcEEEEEEONSt16remove_referenceIT_E4typeEOSD_
FNDA:0,_ZSt4moveIRPKN7testing16MatcherInterfaceIRKNSt7__cxx1112basic_stringIcSt11char_traitsIcESaIcEEEEEEONSt16remove_referenceIT_E4typeEOSF_
FNDA:0,_ZSt4moveIRPKN7testing16MatcherInterfaceIRKSt17basic_string_viewIcSt11char_traitsIcEEEEEONSt16remove_referenceIT_E4typeEOSD_
FNDA:0,_ZSt4moveIRPKN7testing16MatcherInterfaceISt17basic_string_viewIcSt11char_traitsIcEEEEEONSt16remove_referenceIT_E4typeEOSB_
FNDA:0,_ZSt4moveIRPKbEONSt16remove_referenceIT_E4typeEOS4_
FNDA:0,_ZSt4moveIRPNSt7__cxx1112basic_stringIcSt11char_traitsIcESaIcEEEEONSt16remove_referenceIT_E4typeEOS9_
FNDA:253,_ZSt4moveIRPNSt7__cxx1118basic_stringstreamIcSt11char_traitsIcESaIcEEEEONSt16remove_referenceIT_E4typeEOS9_
FNDA:0,_ZSt4moveIRSaIcEEONSt16remove_referenceIT_E4typeEOS3_
FNDA:0,_ZSt4moveIRSt10unique_ptrIKN7testing16MatcherInterfaceINSt7__cxx1112basic_stringIcSt11char_traitsIcESaIcEEEEESt14default_deleteISA_EEEONSt16remove_referenceIT_E4typeEOSG_
FNDA:0,_ZSt4moveIRSt10unique_ptrIKN7testing16MatcherInterfaceIRKNSt7__cxx1112basic_stringIcSt11char_traitsIcESaIcEEEEESt14default_deleteISC_EEEONSt16remove_referenceIT_E4typeEOSI_
FNDA:0,_ZSt4moveIRSt10unique_ptrIKN7testing16MatcherInterfaceIRKSt17basic_string_viewIcSt11char_traitsIcEEEESt14default_deleteISA_EEEONSt16remove_referenceIT_E4typeEOSG_
FNDA:0,_ZSt4moveIRSt10unique_ptrIKN7testing16MatcherInterfaceISt17basic_string_viewIcSt11char_traitsIcEEEESt14default_deleteIS8_EEEONSt16remove_referenceIT_E4typeEOSE_
FNDA:0,_ZSt4moveIRSt4pairIRPKcRN7testing8internal12CodeLocationEEEONSt16remove_referenceIT_E4typeEOSB_
FNDA:0,_ZSt4moveIRSt5tupleIJPKN7testing16MatcherInterfaceINSt7__cxx1112basic_stringIcSt11char_traitsIcESaIcEEEEESt14default_deleteISA_EEEEONSt16remove_referenceIT_E4typeEOSH_
FNDA:0,_ZSt4moveIRSt5tupleIJPKN7testing16MatcherInterfaceIRKNSt7__cxx1112basic_stringIcSt11char_traitsIcESaIcEEEEESt14default_deleteISC_EEEEONSt16remove_referenceIT_E4typeEOSJ_
FNDA:0,_ZSt4moveIRSt5tupleIJPKN7testing16MatcherInterfaceIRKSt17basic_string_viewIcSt11char_traitsIcEEEESt14default_deleteISA_EEEEONSt16remove_referenceIT_E4typeEOSH_
FNDA:0,_ZSt4moveIRSt5tupleIJPKN7testing16MatcherInterfaceISt17basic_string_viewIcSt11char_traitsIcEEEESt14default_deleteIS8_EEEEONSt16remove_referenceIT_E4typeEOSF_
FNDA:0,_ZSt4moveIRbEONSt16remove_referenceIT_E4typeEOS2_
FNF:93
FNH:36
DA:51,172
DA:52,172
DA:70,603
DA:71,603
DA:97,1102
DA:98,1102
DA:138,4
DA:139,4
LF:8
LH:8
end_of_record
TN:
SF:/usr/include/c++/13/bits/nested_exception.h
FN:65,65,_ZNSt16nested_exceptionC2Ev
FN:76,81,_ZNKSt16nested_exception14rethrow_nestedEv
FN:85,86,_ZNKSt16nested_exception10nested_ptrEv
FNDA:0,_ZNSt16nested_exceptionC2Ev
FNDA:0,_ZNKSt16nested_exception14rethrow_nestedEv
FNDA:0,_ZNKSt16nested_exception10nested_ptrEv
FNF:3
FNH:0
DA:65,0
DA:76,0
DA:78,0
DA:79,0
DA:80,0
DA:85,0
DA:86,0
LF:7
LH:0
end_of_record
TN:
SF:/usr/include/c++/13/bits/new_allocator.h
FN:104,104,_ZNSt15__new_allocatorIDiED2Ev
FN:104,104,_ZNSt15__new_allocatorIDsED2Ev
FN:104,104,_ZNSt15__new_allocatorINSt7__cxx1112basic_stringIcSt11char_traitsIcESaIcEEEED2Ev
FN:104,104,_ZNSt15__new_allocatorINSt8__detail10_Hash_nodeISt4pairIKNSt7__cxx1112basic_stringIcSt11char_traitsIcESaIcEEEmELb1EEEED2Ev
FN:104,104,_ZNSt15__new_allocatorIPN7testing8internal30ParameterizedTestSuiteInfoBaseEED2Ev
FN:104,104,_ZNSt15__new_allocatorIPNSt7__cxx1112basic_stringIcSt11char_traitsIcESaIcEEEED2Ev
FN:104,104,_ZNSt15__new_allocatorIPNSt8__detail15_Hash_node_baseEED2Ev
FN:104,104,_ZNSt15__new_allocatorISt13_Rb_tree_nodeISt4pairIKNSt7__cxx1112basic_stringIcSt11char_traitsIcESaIcEEEN7testing8internal12CodeLocationEEEED2Ev
FN:104,104,_ZNSt15__new_allocatorISt23_Sp_counted_ptr_inplaceISt5mutexSaIvELN9__gnu_cxx12_Lock_policyE2EEED2Ev
FN:104,104,_ZNSt15__new_allocatorIbED2Ev
FN:104,104,_ZNSt15__new_allocatorIcED2Ev
FN:104,104,_ZNSt15__new_allocatorIiED2Ev
FN:104,104,_ZNSt15__new_allocatorImED2Ev
FN:104,104,_ZNSt15__new_allocatorIwED2Ev
FN:126,152,_ZNSt15__new_allocatorIDiE8allocateEmPKv
FN:126,152,_ZNSt15__new_allocatorIDsE8allocateEmPKv
FN:126,152,_ZNSt15__new_allocatorINSt7__cxx1112basic_stringIcSt11char_traitsIcESaIcEEEE8allocateEmPKv
FN:126,152,_ZNSt15__new_allocatorIPNSt7__cxx1112basic_stringIcSt11char_traitsIcESaIcEEEE8allocateEmPKv
FN:126,152,_ZNSt15__new_allocatorISt13_Rb_tree_nodeISt4pairIKNSt7__cxx1112basic_stringIcSt11char_traitsIcESaIcEEEN7testing8internal12CodeLocationEEEE8allocateEmPKv
FN:126,152,_ZNSt15__new_allocatorISt23_Sp_counted_ptr_inplaceISt5mutexSaIvELN9__gnu_cxx12_Lock_policyE2EEE8allocateEmPKv
FN:126,152,_ZNSt15__new_allocatorIcE8allocateEmPKv
FN:126,152,_ZNSt15__new_allocatorImE8allocateEmPKv
FN:156,173,_ZNSt15__new_allocatorIDiE10deallocateEPDim
FN:156,173,_ZNSt15__new_allocatorIDsE10deallocateEPDsm
FN:156,173,_ZNSt15__new_allocatorINSt7__cxx1112basic_stringIcSt11char_traitsIcESaIcEEEE10deallocateEPS5_m
FN:156,173,_ZNSt15__new_allocatorINSt8__detail10_Hash_nodeISt4pairIKNSt7__cxx1112basic_stringIcSt11char_traitsIcESaIcEEEmELb1EEEE10deallocateEPSB_m
FN:156,173,_ZNSt15__new_allocatorIPN7testing8internal30ParameterizedTestSuiteInfoBaseEE10deallocateEPS3_m
FN:156,173,_ZNSt15__new_allocatorIPNSt7__cxx1112basic_stringIcSt11char_traitsIcESaIcEEEE10deallocateEPS6_m
FN:156,173,_ZNSt15__new_allocatorIPNSt8__detail15_Hash_node_baseEE10deallocateEPS2_m
FN:156,173,_ZNSt15__new_allocatorISt13_Rb_tree_nodeISt4pairIKNSt7__cxx1112basic_stringIcSt11char_traitsIcESaIcEEEN7testing8internal12CodeLocationEEEE10deallocateEPSD_m
FN:156,173,_ZNSt15__new_allocatorISt23_Sp_counted_ptr_inplaceISt5mutexSaIvELN9__gnu_cxx12_Lock_policyE2EEE10deallocateEPS5_m
FN:156,173,_ZNSt15__new_allocatorIcE10deallocateEPcm
FN:156,173,_ZNSt15__new_allocatorIiE10deallocateEPim
FN:156,173,_ZNSt15__new_allocatorImE10deallocateEPmm
FN:156,173,_ZNSt15__new_allocatorIwE10deallocateEPwm
FN:182,183,_ZNKSt15__new_allocatorIDiE8max_sizeEv
FN:182,183,_ZNKSt15__new_allocatorIDsE8max_sizeEv
FN:182,183,_ZNKSt15__new_allocatorIcE8max_sizeEv
FN:189,191,_ZNSt15__new_allocatorISt13_Rb_tree_nodeISt4pairIKNSt7__cxx1112basic_stringIcSt11char_traitsIcESaIcEEEN7testing8internal12CodeLocationEEEE9constructISC_JRPKcSB_EEEvPT_DpOT0_
FN:196,198,_ZNSt15__new_allocatorINSt8__detail10_Hash_nodeISt4pairIKNSt7__cxx1112basic_stringIcSt11char_traitsIcESaIcEEEmELb1EEEE7destroyISA_EEvPT_
FN:196,198,_ZNSt15__new_allocatorISt13_Rb_tree_nodeISt4pairIKNSt7__cxx1112basic_stringIcSt11char_traitsIcESaIcEEEN7testing8internal12CodeLocationEEEE7destroyISC_EEvPT_
FN:230,237,_ZNKSt15__new_allocatorIDiE11_M_max_sizeEv
FN:230,237,_ZNKSt15__new_allocatorIDsE11_M_max_sizeEv
FN:230,237,_ZNKSt15__new_allocatorINSt7__cxx1112basic_stringIcSt11char_traitsIcESaIcEEEE11_M_max_sizeEv
FN:230,237,_ZNKSt15__new_allocatorIPNSt7__cxx1112basic_stringIcSt11char_traitsIcESaIcEEEE11_M_max_sizeEv
FN:230,237,_ZNKSt15__new_allocatorISt13_Rb_tree_nodeISt4pairIKNSt7__cxx1112basic_stringIcSt11char_traitsIcESaIcEEEN7testing8internal12CodeLocationEEEE11_M_max_sizeEv
FN:230,237,_ZNKSt15__new_allocatorISt23_Sp_counted_ptr_inplaceISt5mutexSaIvELN9__gnu_cxx12_Lock_policyE2EEE11_M_max_sizeEv
FN:230,237,_ZNKSt15__new_allocatorIcE11_M_max_sizeEv
FN:230,237,_ZNKSt15__new_allocatorImE11_M_max_sizeEv
FN:88,88,_ZNSt15__new_allocatorIDiEC2Ev
FN:88,88,_ZNSt15__new_allocatorIDsEC2Ev
FN:88,88,_ZNSt15__new_allocatorINSt7__cxx1112basic_stringIcSt11char_traitsIcESaIcEEEEC2Ev
FN:88,88,_ZNSt15__new_allocatorIPNSt7__cxx1112basic_stringIcSt11char_traitsIcESaIcEEEEC2Ev
FN:88,88,_ZNSt15__new_allocatorIPNSt8__detail15_Hash_node_baseEEC2Ev
FN:88,88,_ZNSt15__new_allocatorISt13_Rb_tree_nodeISt4pairIKNSt7__cxx1112basic_stringIcSt11char_traitsIcESaIcEEEN7testing8internal12CodeLocationEEEEC2Ev
FN:88,88,_ZNSt15__new_allocatorISt23_Sp_counted_ptr_inplaceISt5mutexSaIvELN9__gnu_cxx12_Lock_policyE2EEEC2Ev
FN:88,88,_ZNSt15__new_allocatorIbEC2Ev
FN:88,88,_ZNSt15__new_allocatorIcEC2Ev
FN:88,88,_ZNSt15__new_allocatorIiEC2Ev
FN:88,88,_ZNSt15__new_allocatorImEC2Ev
FN:88,88,_ZNSt15__new_allocatorIwEC2Ev
FN:92,92,_ZNSt15__new_allocatorIDiEC2ERKS0_
FN:92,92,_ZNSt15__new_allocatorIDsEC2ERKS0_
FN:92,92,_ZNSt15__new_allocatorIcEC2ERKS0_
FN:92,92,_ZNSt15__new_allocatorImEC2ERKS0_
FN:92,92,_ZNSt15__new_allocatorIwEC2ERKS0_
FNDA:0,_ZNSt15__new_allocatorIDiED2Ev
FNDA:0,_ZNSt15__new_allocatorIDsED2Ev
FNDA:50,_ZNSt15__new_allocatorINSt7__cxx1112basic_stringIcSt11char_traitsIcESaIcEEEED2Ev
FNDA:4,_ZNSt15__new_allocatorINSt8__detail10_Hash_nodeISt4pairIKNSt7__cxx1112basic_stringIcSt11char_traitsIcESaIcEEEmELb1EEEED2Ev
FNDA:4,_ZNSt15__new_allocatorIPN7testing8internal30ParameterizedTestSuiteInfoBaseEED2Ev
FNDA:2,_ZNSt15__new_allocatorIPNSt7__cxx1112basic_stringIcSt11char_traitsIcESaIcEEEED2Ev
FNDA:8,_ZNSt15__new_allocatorIPNSt8__detail15_Hash_node_baseEED2Ev
FNDA:0,_ZNSt15__new_allocatorISt13_Rb_tree_nodeISt4pairIKNSt7__cxx1112basic_stringIcSt11char_traitsIcESaIcEEEN7testing8internal12CodeLocationEEEED2Ev
FNDA:0,_ZNSt15__new_allocatorISt23_Sp_counted_ptr_inplaceISt5mutexSaIvELN9__gnu_cxx12_Lock_policyE2EEED2Ev
FNDA:0,_ZNSt15__new_allocatorIbED2Ev
FNDA:531,_ZNSt15__new_allocatorIcED2Ev
FNDA:5,_ZNSt15__new_allocatorIiED2Ev
FNDA:0,_ZNSt15__new_allocatorImED2Ev
FNDA:0,_ZNSt15__new_allocatorIwED2Ev
FNDA:0,_ZNSt15__new_allocatorIDiE8allocateEmPKv
FNDA:0,_ZNSt15__new_allocatorIDsE8allocateEmPKv
FNDA:27,_ZNSt15__new_allocatorINSt7__cxx1112basic_stringIcSt11char_traitsIcESaIcEEEE8allocateEmPKv
FNDA:1,_ZNSt15__new_allocatorIPNSt7__cxx1112basic_stringIcSt11char_traitsIcESaIcEEEE8allocateEmPKv
FNDA:0,_ZNSt15__new_allocatorISt13_Rb_tree_nodeISt4pairIKNSt7__cxx1112basic_stringIcSt11char_traitsIcESaIcEEEN7testing8internal12CodeLocationEEEE8allocateEmPKv
FNDA:0,_ZNSt15__new_allocatorISt23_Sp_counted_ptr_inplaceISt5mutexSaIvELN9__gnu_cxx12_Lock_policyE2EEE8allocateEmPKv
FNDA:0,_ZNSt15__new_allocatorIcE8allocateEmPKv
FNDA:0,_ZNSt15__new_allocatorImE8allocateEmPKv
FNDA:0,_ZNSt15__new_allocatorIDiE10deallocateEPDim
FNDA:0,_ZNSt15__new_allocatorIDsE10deallocateEPDsm
FNDA:27,_ZNSt15__new_allocatorINSt7__cxx1112basic_stringIcSt11char_traitsIcESaIcEEEE10deallocateEPS5_m
FNDA:0,_ZNSt15__new_allocatorINSt8__detail10_Hash_nodeISt4pairIKNSt7__cxx1112basic_stringIcSt11char_traitsIcESaIcEEEmELb1EEEE10deallocateEPSB_m
FNDA:0,_ZNSt15__new_allocatorIPN7testing8internal30ParameterizedTestSuiteInfoBaseEE10deallocateEPS3_m
FNDA:1,_ZNSt15__new_allocatorIPNSt7__cxx1112basic_stringIcSt11char_traitsIcESaIcEEEE10deallocateEPS6_m
FNDA:4,_ZNSt15__new_allocatorIPNSt8__detail15_Hash_node_baseEE10deallocateEPS2_m
FNDA:0,_ZNSt15__new_allocatorISt13_Rb_tree_nodeISt4pairIKNSt7__cxx1112basic_stringIcSt11char_traitsIcESaIcEEEN7testing8internal12CodeLocationEEEE10deallocateEPSD_m
FNDA:0,_ZNSt15__new_allocatorISt23_Sp_counted_ptr_inplaceISt5mutexSaIvELN9__gnu_cxx12_Lock_policyE2EEE10deallocateEPS5_m
FNDA:0,_ZNSt15__new_allocatorIcE10deallocateEPcm
FNDA:10,_ZNSt15__new_allocatorIiE10deallocateEPim
FNDA:0,_ZNSt15__new_allocatorImE10deallocateEPmm
FNDA:0,_ZNSt15__new_allocatorIwE10deallocateEPwm
FNDA:0,_ZNKSt15__new_allocatorIDiE8max_sizeEv
FNDA:0,_ZNKSt15__new_allocatorIDsE8max_sizeEv
FNDA:0,_ZNKSt15__new_allocatorIcE8max_sizeEv
FNDA:0,_ZNSt15__new_allocatorISt13_Rb_tree_nodeISt4pairIKNSt7__cxx1112basic_stringIcSt11char_traitsIcESaIcEEEN7testing8internal12CodeLocationEEEE9constructISC_JRPKcSB_EEEvPT_DpOT0_
FNDA:0,_ZNSt15__new_allocatorINSt8__detail10_Hash_nodeISt4pairIKNSt7__cxx1112basic_stringIcSt11char_traitsIcESaIcEEEmELb1EEEE7destroyISA_EEvPT_
FNDA:0,_ZNSt15__new_allocatorISt13_Rb_tree_nodeISt4pairIKNSt7__cxx1112basic_stringIcSt11char_traitsIcESaIcEEEN7testing8internal12CodeLocationEEEE7destroyISC_EEvPT_
FNDA:0,_ZNKSt15__new_allocatorIDiE11_M_max_sizeEv
FNDA:0,_ZNKSt15__new_allocatorIDsE11_M_max_sizeEv
FNDA:0,_ZNKSt15__new_allocatorINSt7__cxx1112basic_stringIcSt11char_traitsIcESaIcEEEE11_M_max_sizeEv
FNDA:0,_ZNKSt15__new_allocatorIPNSt7__cxx1112basic_stringIcSt11char_traitsIcESaIcEEEE11_M_max_sizeEv
FNDA:0,_ZNKSt15__new_allocatorISt13_Rb_tree_nodeISt4pairIKNSt7__cxx1112basic_stringIcSt11char_traitsIcESaIcEEEN7testing8internal12CodeLocationEEEE11_M_max_sizeEv
FNDA:0,_ZNKSt15__new_allocatorISt23_Sp_counted_ptr_inplaceISt5mutexSaIvELN9__gnu_cxx12_Lock_policyE2EEE11_M_max_sizeEv
FNDA:0,_ZNKSt15__new_allocatorIcE11_M_max_sizeEv
FNDA:0,_ZNKSt15__new_allocatorImE11_M_max_sizeEv
FNDA:0,_ZNSt15__new_allocatorIDiEC2Ev
FNDA:0,_ZNSt15__new_allocatorIDsEC2Ev
FNDA:0,_ZNSt15__new_allocatorINSt7__cxx1112basic_stringIcSt11char_traitsIcESaIcEEEEC2Ev
FNDA:0,_ZNSt15__new_allocatorIPNSt7__cxx1112basic_stringIcSt11char_traitsIcESaIcEEEEC2Ev
FNDA:0,_ZNSt15__new_allocatorIPNSt8__detail15_Hash_node_baseEEC2Ev
FNDA:0,_ZNSt15__new_allocatorISt13_Rb_tree_nodeISt4pairIKNSt7__cxx1112basic_stringIcSt11char_traitsIcESaIcEEEN7testing8internal12CodeLocationEEEEC2Ev
FNDA:0,_ZNSt15__new_allocatorISt23_Sp_counted_ptr_inplaceISt5mutexSaIvELN9__gnu_cxx12_Lock_policyE2EEEC2Ev
FNDA:0,_ZNSt15__new_allocatorIbEC2Ev
FNDA:0,_ZNSt15__new_allocatorIcEC2Ev
FNDA:0,_ZNSt15__new_allocatorIiEC2Ev
FNDA:0,_ZNSt15__new_allocatorImEC2Ev
FNDA:0,_ZNSt15__new_allocatorIwEC2Ev
FNDA:0,_ZNSt15__new_allocatorIDiEC2ERKS0_
FNDA:0,_ZNSt15__new_allocatorIDsEC2ERKS0_
FNDA:0,_ZNSt15__new_allocatorIcEC2ERKS0_
FNDA:0,_ZNSt15__new_allocatorImEC2ERKS0_
FNDA:0,_ZNSt15__new_allocatorIwEC2ERKS0_
FNF:66
FNH:13
DA:88,85
DA:92,0
DA:104,604
DA:126,28
DA:134,28
DA:138,0
DA:139,0
DA:140,0
DA:151,28
DA:156,42
DA:172,42
DA:182,0
DA:183,0
DA:189,0
DA:191,0
DA:196,0
DA:198,0
DA:230,0
DA:233,28
LF:19
LH:8
end_of_record
TN:
SF:/usr/include/c++/13/bits/predefined_ops.h
FN:103,104,_ZN9__gnu_cxx5__ops15__val_less_iterEv
FN:108,109,_ZN9__gnu_cxx5__ops15__val_comp_iterENS0_15_Iter_less_iterE
FN:122,123,_ZN9__gnu_cxx5__ops20__iter_equal_to_iterEv
FN:136,137,_ZN9__gnu_cxx5__ops19__iter_equal_to_valEv
FN:141,142,_ZN9__gnu_cxx5__ops15__iter_comp_valENS0_19_Iter_equal_to_iterE
FN:50,51,_ZN9__gnu_cxx5__ops16__iter_less_iterEv
FN:63,63,_ZN9__gnu_cxx5__ops14_Iter_less_valC2ENS0_15_Iter_less_iterE
FN:74,75,_ZN9__gnu_cxx5__ops15__iter_less_valEv
FN:79,80,_ZN9__gnu_cxx5__ops15__iter_comp_valENS0_15_Iter_less_iterE
FN:92,92,_ZN9__gnu_cxx5__ops14_Val_less_iterC2ENS0_15_Iter_less_iterE
FNDA:0,_ZN9__gnu_cxx5__ops15__val_less_iterEv
FNDA:0,_ZN9__gnu_cxx5__ops15__val_comp_iterENS0_15_Iter_less_iterE
FNDA:0,_ZN9__gnu_cxx5__ops20__iter_equal_to_iterEv
FNDA:0,_ZN9__gnu_cxx5__ops19__iter_equal_to_valEv
FNDA:0,_ZN9__gnu_cxx5__ops15__iter_comp_valENS0_19_Iter_equal_to_iterE
FNDA:0,_ZN9__gnu_cxx5__ops16__iter_less_iterEv
FNDA:0,_ZN9__gnu_cxx5__ops14_Iter_less_valC2ENS0_15_Iter_less_iterE
FNDA:0,_ZN9__gnu_cxx5__ops15__iter_less_valEv
FNDA:0,_ZN9__gnu_cxx5__ops15__iter_comp_valENS0_15_Iter_less_iterE
FNDA:0,_ZN9__gnu_cxx5__ops14_Val_less_iterC2ENS0_15_Iter_less_iterE
FNF:10
FNH:0
DA:50,0
DA:51,0
DA:63,0
DA:74,0
DA:75,0
DA:79,0
DA:80,0
DA:92,0
DA:103,0
DA:104,0
DA:108,0
DA:109,0
DA:122,0
DA:123,0
DA:136,0
DA:137,0
DA:141,0
DA:142,0
LF:18
LH:0
end_of_record
TN:
SF:/usr/include/c++/13/bits/ptr_traits.h
FN:141,142,_ZNSt19__ptr_traits_ptr_toIPDiDiLb0EE10pointer_toERDi
FN:141,142,_ZNSt19__ptr_traits_ptr_toIPDsDsLb0EE10pointer_toERDs
FN:141,142,_ZNSt19__ptr_traits_ptr_toIPKDiS0_Lb0EE10pointer_toERS0_
FN:141,142,_ZNSt19__ptr_traits_ptr_toIPKDsS0_Lb0EE10pointer_toERS0_
FN:141,142,_ZNSt19__ptr_traits_ptr_toIPKcS0_Lb0EE10pointer_toERS0_
FN:141,142,_ZNSt19__ptr_traits_ptr_toIPKwS0_Lb0EE10pointer_toERS0_
FN:141,142,_ZNSt19__ptr_traits_ptr_toIPNSt8__detail10_Hash_nodeISt4pairIKNSt7__cxx1112basic_stringIcSt11char_traitsIcESaIcEEEmELb1EEESB_Lb0EE10pointer_toERSB_
FN:141,142,_ZNSt19__ptr_traits_ptr_toIPPNSt8__detail15_Hash_node_baseES2_Lb0EE10pointer_toERS2_
FN:141,142,_ZNSt19__ptr_traits_ptr_toIPccLb0EE10pointer_toERc
FN:141,142,_ZNSt19__ptr_traits_ptr_toIPwwLb0EE10pointer_toERw
FN:212,216,_ZSt12__to_addressISt23_Sp_counted_ptr_inplaceISt5mutexSaIvELN9__gnu_cxx12_Lock_policyE2EEEPT_S7_
FNDA:0,_ZNSt19__ptr_traits_ptr_toIPDiDiLb0EE10pointer_toERDi
FNDA:0,_ZNSt19__ptr_traits_ptr_toIPDsDsLb0EE10pointer_toERDs
FNDA:0,_ZNSt19__ptr_traits_ptr_toIPKDiS0_Lb0EE10pointer_toERS0_
FNDA:0,_ZNSt19__ptr_traits_ptr_toIPKDsS0_Lb0EE10pointer_toERS0_
FNDA:0,_ZNSt19__ptr_traits_ptr_toIPKcS0_Lb0EE10pointer_toERS0_
FNDA:0,_ZNSt19__ptr_traits_ptr_toIPKwS0_Lb0EE10pointer_toERS0_
FNDA:0,_ZNSt19__ptr_traits_ptr_toIPNSt8__detail10_Hash_nodeISt4pairIKNSt7__cxx1112basic_stringIcSt11char_traitsIcESaIcEEEmELb1EEESB_Lb0EE10pointer_toERSB_
FNDA:4,_ZNSt19__ptr_traits_ptr_toIPPNSt8__detail15_Hash_node_baseES2_Lb0EE10pointer_toERS2_
FNDA:0,_ZNSt19__ptr_traits_ptr_toIPccLb0EE10pointer_toERc
FNDA:0,_ZNSt19__ptr_traits_ptr_toIPwwLb0EE10pointer_toERw
FNDA:0,_ZSt12__to_addressISt23_Sp_counted_ptr_inplaceISt5mutexSaIvELN9__gnu_cxx12_Lock_policyE2EEEPT_S7_
FNF:11
FNH:1
DA:141,4
DA:142,4
DA:212,0
DA:215,0
LF:4
LH:2
end_of_record
TN:
SF:/usr/include/c++/13/bits/shared_ptr.h
FN:1005,1011,_ZSt11make_sharedISt5mutexJEESt10shared_ptrINSt9enable_ifIXntsrSt8is_arrayIT_E5valueES4_E4typeEEDpOT0_
FN:204,204,_ZNSt10shared_ptrIKN7testing8internal2REEEC2ERKS4_
FN:214,214,_ZNSt10shared_ptrIKN7testing8internal23ParamGeneratorInterfaceIbEEEC2IS3_vEEPT_
FN:214,214,_ZNSt10shared_ptrIKN7testing8internal2REEEC2IS3_vEEPT_
FN:463,465,_ZNSt10shared_ptrISt5mutexEC2ISaIvEJEEESt20_Sp_alloc_shared_tagIT_EDpOT0_
FNDA:0,_ZSt11make_sharedISt5mutexJEESt10shared_ptrINSt9enable_ifIXntsrSt8is_arrayIT_E5valueES4_E4typeEEDpOT0_
FNDA:0,_ZNSt10shared_ptrIKN7testing8internal2REEEC2ERKS4_
FNDA:0,_ZNSt10shared_ptrIKN7testing8internal23ParamGeneratorInterfaceIbEEEC2IS3_vEEPT_
FNDA:0,_ZNSt10shared_ptrIKN7testing8internal2REEEC2IS3_vEEPT_
FNDA:0,_ZNSt10shared_ptrISt5mutexEC2ISaIvEJEEESt20_Sp_alloc_shared_tagIT_EDpOT0_
FNF:5
FNH:0
DA:204,0
DA:214,0
DA:463,0
DA:464,0
DA:465,0
DA:1005,0
DA:1010,0
LF:7
LH:0
end_of_record
TN:
SF:/usr/include/c++/13/bits/shared_ptr_base.h
FN:1068,1072,_ZNSt14__shared_countILN9__gnu_cxx12_Lock_policyE2EED2Ev
FN:1074,1079,_ZNSt14__shared_countILN9__gnu_cxx12_Lock_policyE2EEC2ERKS2_
FN:129,130,_ZNSt16_Sp_counted_baseILN9__gnu_cxx12_Lock_policyE2EEC2Ev
FN:133,134,_ZNSt16_Sp_counted_baseILN9__gnu_cxx12_Lock_policyE0EED0Ev
FN:133,134,_ZNSt16_Sp_counted_baseILN9__gnu_cxx12_Lock_policyE0EED2Ev
FN:133,134,_ZNSt16_Sp_counted_baseILN9__gnu_cxx12_Lock_policyE1EED0Ev
FN:133,134,_ZNSt16_Sp_counted_baseILN9__gnu_cxx12_Lock_policyE1EED2Ev
FN:133,134,_ZNSt16_Sp_counted_baseILN9__gnu_cxx12_Lock_policyE2EED0Ev
FN:133,134,_ZNSt16_Sp_counted_baseILN9__gnu_cxx12_Lock_policyE2EED2Ev
FN:1347,1351,_ZNKSt19__shared_ptr_accessIKN7testing8internal2REELN9__gnu_cxx12_Lock_policyE2ELb0ELb0EEdeEv
FN:1347,1351,_ZNKSt19__shared_ptr_accessISt5mutexLN9__gnu_cxx12_Lock_policyE2ELb0ELb0EEdeEv
FN:1354,1358,_ZNKSt19__shared_ptr_accessIKN7testing8internal2REELN9__gnu_cxx12_Lock_policyE2ELb0ELb0EEptEv
FN:1362,1363,_ZNKSt19__shared_ptr_accessIKN7testing8internal2REELN9__gnu_cxx12_Lock_policyE2ELb0ELb0EE6_M_getEv
FN:1362,1363,_ZNKSt19__shared_ptr_accessISt5mutexLN9__gnu_cxx12_Lock_policyE2ELb0ELb0EE6_M_getEv
FN:143,144,_ZNSt16_Sp_counted_baseILN9__gnu_cxx12_Lock_policyE0EE10_M_destroyEv
FN:143,144,_ZNSt16_Sp_counted_baseILN9__gnu_cxx12_Lock_policyE1EE10_M_destroyEv
FN:143,144,_ZNSt16_Sp_counted_baseILN9__gnu_cxx12_Lock_policyE2EE10_M_destroyEv
FN:1468,1474,_ZNSt12__shared_ptrIKN7testing8internal23ParamGeneratorInterfaceIbEELN9__gnu_cxx12_Lock_policyE2EEC2IS3_vEEPT_
FN:1468,1474,_ZNSt12__shared_ptrIKN7testing8internal2REELN9__gnu_cxx12_Lock_policyE2EEC2IS3_vEEPT_
FN:151,152,_ZNSt16_Sp_counted_baseILN9__gnu_cxx12_Lock_policyE2EE15_M_add_ref_copyEv
FN:1522,1522,_ZNSt12__shared_ptrIKN7testing8internal2REELN9__gnu_cxx12_Lock_policyE2EEC2ERKS6_
FN:1524,1524,_ZNSt12__shared_ptrIKN7testing8internal23ParamGeneratorInterfaceIbEELN9__gnu_cxx12_Lock_policyE2EED2Ev
FN:1524,1524,_ZNSt12__shared_ptrIKN7testing8internal2REELN9__gnu_cxx12_Lock_policyE2EED2Ev
FN:1524,1524,_ZNSt12__shared_ptrISt5mutexLN9__gnu_cxx12_Lock_policyE2EED2Ev
FN:1665,1666,_ZNKSt12__shared_ptrIKN7testing8internal2REELN9__gnu_cxx12_Lock_policyE2EE3getEv
FN:1665,1666,_ZNKSt12__shared_ptrISt5mutexLN9__gnu_cxx12_Lock_policyE2EE3getEv
FN:1711,1713,_ZNSt12__shared_ptrISt5mutexLN9__gnu_cxx12_Lock_policyE2EEC2ISaIvEJEEESt20_Sp_alloc_shared_tagIT_EDpOT0_
FN:172,193,_ZNSt16_Sp_counted_baseILN9__gnu_cxx12_Lock_policyE1EE19_M_release_last_useEv
FN:172,193,_ZNSt16_Sp_counted_baseILN9__gnu_cxx12_Lock_policyE2EE19_M_release_last_useEv
FN:1765,1766,_ZNSt12__shared_ptrIKN7testing8internal23ParamGeneratorInterfaceIbEELN9__gnu_cxx12_Lock_policyE2EE31_M_enable_shared_from_this_withIS3_S3_EENSt9enable_ifIXntsrNS7_15__has_esft_baseIT0_vEE5valueEvE4typeEPT_
FN:1765,1766,_ZNSt12__shared_ptrIKN7testing8internal2REELN9__gnu_cxx12_Lock_policyE2EE31_M_enable_shared_from_this_withIS3_S2_EENSt9enable_ifIXntsrNS6_15__has_esft_baseIT0_vEE5valueEvE4typeEPT_
FN:1765,1766,_ZNSt12__shared_ptrISt5mutexLN9__gnu_cxx12_Lock_policyE2EE31_M_enable_shared_from_this_withIS0_S0_EENSt9enable_ifIXntsrNS3_15__has_esft_baseIT0_vEE5valueEvE4typeEPT_
FN:198,199,_ZNSt16_Sp_counted_baseILN9__gnu_cxx12_Lock_policyE2EE24_M_release_last_use_coldEv
FN:226,231,_ZNKSt16_Sp_counted_baseILN9__gnu_cxx12_Lock_policyE2EE16_M_get_use_countEv
FN:243,250,_ZNSt16_Sp_counted_baseILN9__gnu_cxx12_Lock_policyE0EE23_M_add_ref_lock_nothrowEv
FN:254,264,_ZNSt16_Sp_counted_baseILN9__gnu_cxx12_Lock_policyE1EE23_M_add_ref_lock_nothrowEv
FN:268,284,_ZNSt16_Sp_counted_baseILN9__gnu_cxx12_Lock_policyE2EE23_M_add_ref_lock_nothrowEv
FN:288,289,_ZNSt16_Sp_counted_baseILN9__gnu_cxx12_Lock_policyE0EE15_M_add_ref_copyEv
FN:293,301,_ZNSt16_Sp_counted_baseILN9__gnu_cxx12_Lock_policyE0EE10_M_releaseEv
FN:305,313,_ZNSt16_Sp_counted_baseILN9__gnu_cxx12_Lock_policyE1EE10_M_releaseEv
FN:317,363,_ZNSt16_Sp_counted_baseILN9__gnu_cxx12_Lock_policyE2EE10_M_releaseEv
FN:367,368,_ZNSt16_Sp_counted_baseILN9__gnu_cxx12_Lock_policyE0EE15_M_weak_add_refEv
FN:372,376,_ZNSt16_Sp_counted_baseILN9__gnu_cxx12_Lock_policyE0EE15_M_weak_releaseEv
FN:380,381,_ZNKSt16_Sp_counted_baseILN9__gnu_cxx12_Lock_policyE0EE16_M_get_use_countEv
FN:423,424,_ZNSt15_Sp_counted_ptrIPKN7testing8internal2REELN9__gnu_cxx12_Lock_policyE2EEC2ES4_
FN:423,424,_ZNSt15_Sp_counted_ptrIPN7testing8internal23ParamGeneratorInterfaceIbEELN9__gnu_cxx12_Lock_policyE2EEC2ES4_
FN:427,428,_ZNSt15_Sp_counted_ptrIPKN7testing8internal2REELN9__gnu_cxx12_Lock_policyE2EE10_M_disposeEv
FN:427,428,_ZNSt15_Sp_counted_ptrIPN7testing8internal23ParamGeneratorInterfaceIbEELN9__gnu_cxx12_Lock_policyE2EE10_M_disposeEv
FN:431,432,_ZNSt15_Sp_counted_ptrIPKN7testing8internal2REELN9__gnu_cxx12_Lock_policyE2EE10_M_destroyEv
FN:431,432,_ZNSt15_Sp_counted_ptrIPN7testing8internal23ParamGeneratorInterfaceIbEELN9__gnu_cxx12_Lock_policyE2EE10_M_destroyEv
FN:435,436,_ZNSt15_Sp_counted_ptrIPKN7testing8internal2REELN9__gnu_cxx12_Lock_policyE2EE14_M_get_deleterERKSt9type_info
FN:435,436,_ZNSt15_Sp_counted_ptrIPN7testing8internal23ParamGeneratorInterfaceIbEELN9__gnu_cxx12_Lock_policyE2EE14_M_get_deleterERKSt9type_info
FN:447,447,_ZNSt15_Sp_counted_ptrIDnLN9__gnu_cxx12_Lock_policyE0EE10_M_disposeEv
FN:451,451,_ZNSt15_Sp_counted_ptrIDnLN9__gnu_cxx12_Lock_policyE1EE10_M_disposeEv
FN:455,455,_ZNSt15_Sp_counted_ptrIDnLN9__gnu_cxx12_Lock_policyE2EE10_M_disposeEv
FN:470,470,_ZNSt14_Sp_ebo_helperILi0ESaIvELb1EEC2ERKS0_
FN:474,474,_ZNSt14_Sp_ebo_helperILi0ESaIvELb1EE6_S_getERS1_
FN:564,568,_ZNSt19_Sp_make_shared_tag5_S_tiEv
FN:587,587,_ZNSt23_Sp_counted_ptr_inplaceISt5mutexSaIvELN9__gnu_cxx12_Lock_policyE2EE5_ImplC2ES1_
FN:589,589,_ZNSt23_Sp_counted_ptr_inplaceISt5mutexSaIvELN9__gnu_cxx12_Lock_policyE2EE5_Impl8_M_allocEv
FN:599,606,_ZNSt23_Sp_counted_ptr_inplaceISt5mutexSaIvELN9__gnu_cxx12_Lock_policyE2EEC2IJEEES1_DpOT_
FN:608,608,_ZNSt23_Sp_counted_ptr_inplaceISt5mutexSaIvELN9__gnu_cxx12_Lock_policyE2EED0Ev
FN:608,608,_ZNSt23_Sp_counted_ptr_inplaceISt5mutexSaIvELN9__gnu_cxx12_Lock_policyE2EED2Ev
FN:611,614,_ZNSt23_Sp_counted_ptr_inplaceISt5mutexSaIvELN9__gnu_cxx12_Lock_policyE2EE10_M_disposeEv
FN:618,623,_ZNSt23_Sp_counted_ptr_inplaceISt5mutexSaIvELN9__gnu_cxx12_Lock_policyE2EE10_M_destroyEv
FN:631,648,_ZNSt23_Sp_counted_ptr_inplaceISt5mutexSaIvELN9__gnu_cxx12_Lock_policyE2EE14_M_get_deleterERKSt9type_info
FN:650,650,_ZNSt23_Sp_counted_ptr_inplaceISt5mutexSaIvELN9__gnu_cxx12_Lock_policyE2EE6_M_ptrEv
FN:913,924,_ZNSt14__shared_countILN9__gnu_cxx12_Lock_policyE2EEC2IPKN7testing8internal2REEEET_
FN:913,924,_ZNSt14__shared_countILN9__gnu_cxx12_Lock_policyE2EEC2IPN7testing8internal23ParamGeneratorInterfaceIbEEEET_
FN:927,929,_ZNSt14__shared_countILN9__gnu_cxx12_Lock_policyE2EEC2IPKN7testing8internal2REEEET_St17integral_constantIbLb0EE
FN:927,929,_ZNSt14__shared_countILN9__gnu_cxx12_Lock_policyE2EEC2IPN7testing8internal23ParamGeneratorInterfaceIbEEEET_St17integral_constantIbLb0EE
FN:95,96,_ZSt20__throw_bad_weak_ptrv
FN:964,976,_ZNSt14__shared_countILN9__gnu_cxx12_Lock_policyE2EEC2ISt5mutexSaIvEJEEERPT_St20_Sp_alloc_shared_tagIT0_EDpOT1_
FNDA:0,_ZNSt14__shared_countILN9__gnu_cxx12_Lock_policyE2EED2Ev
FNDA:0,_ZNSt14__shared_countILN9__gnu_cxx12_Lock_policyE2EEC2ERKS2_
FNDA:0,_ZNSt16_Sp_counted_baseILN9__gnu_cxx12_Lock_policyE2EEC2Ev
FNDA:0,_ZNSt16_Sp_counted_baseILN9__gnu_cxx12_Lock_policyE0EED0Ev
FNDA:0,_ZNSt16_Sp_counted_baseILN9__gnu_cxx12_Lock_policyE0EED2Ev
FNDA:0,_ZNSt16_Sp_counted_baseILN9__gnu_cxx12_Lock_policyE1EED0Ev
FNDA:0,_ZNSt16_Sp_counted_baseILN9__gnu_cxx12_Lock_policyE1EED2Ev
FNDA:0,_ZNSt16_Sp_counted_baseILN9__gnu_cxx12_Lock_policyE2EED0Ev
FNDA:0,_ZNSt16_Sp_counted_baseILN9__gnu_cxx12_Lock_policyE2EED2Ev
FNDA:0,_ZNKSt19__shared_ptr_accessIKN7testing8internal2REELN9__gnu_cxx12_Lock_policyE2ELb0ELb0EEdeEv
FNDA:0,_ZNKSt19__shared_ptr_accessISt5mutexLN9__gnu_cxx12_Lock_policyE2ELb0ELb0EEdeEv
FNDA:0,_ZNKSt19__shared_ptr_accessIKN7testing8internal2REELN9__gnu_cxx12_Lock_policyE2ELb0ELb0EEptEv
FNDA:0,_ZNKSt19__shared_ptr_accessIKN7testing8internal2REELN9__gnu_cxx12_Lock_policyE2ELb0ELb0EE6_M_getEv
FNDA:0,_ZNKSt19__shared_ptr_accessISt5mutexLN9__gnu_cxx12_Lock_policyE2ELb0ELb0EE6_M_getEv
FNDA:0,_ZNSt16_Sp_counted_baseILN9__gnu_cxx12_Lock_policyE0EE10_M_destroyEv
FNDA:0,_ZNSt16_Sp_counted_baseILN9__gnu_cxx12_Lock_policyE1EE10_M_destroyEv
FNDA:0,_ZNSt16_Sp_counted_baseILN9__gnu_cxx12_Lock_policyE2EE10_M_destroyEv
FNDA:0,_ZNSt12__shared_ptrIKN7testing8internal23ParamGeneratorInterfaceIbEELN9__gnu_cxx12_Lock_policyE2EEC2IS3_vEEPT_
FNDA:0,_ZNSt12__shared_ptrIKN7testing8internal2REELN9__gnu_cxx12_Lock_policyE2EEC2IS3_vEEPT_
FNDA:0,_ZNSt16_Sp_counted_baseILN9__gnu_cxx12_Lock_policyE2EE15_M_add_ref_copyEv
FNDA:0,_ZNSt12__shared_ptrIKN7testing8internal2REELN9__gnu_cxx12_Lock_policyE2EEC2ERKS6_
FNDA:0,_ZNSt12__shared_ptrIKN7testing8internal23ParamGeneratorInterfaceIbEELN9__gnu_cxx12_Lock_policyE2EED2Ev
FNDA:0,_ZNSt12__shared_ptrIKN7testing8internal2REELN9__gnu_cxx12_Lock_policyE2EED2Ev
FNDA:0,_ZNSt12__shared_ptrISt5mutexLN9__gnu_cxx12_Lock_policyE2EED2Ev
FNDA:0,_ZNKSt12__shared_ptrIKN7testing8internal2REELN9__gnu_cxx12_Lock_policyE2EE3getEv
FNDA:0,_ZNKSt12__shared_ptrISt5mutexLN9__gnu_cxx12_Lock_policyE2EE3getEv
FNDA:0,_ZNSt12__shared_ptrISt5mutexLN9__gnu_cxx12_Lock_policyE2EEC2ISaIvEJEEESt20_Sp_alloc_shared_tagIT_EDpOT0_
FNDA:0,_ZNSt16_Sp_counted_baseILN9__gnu_cxx12_Lock_policyE1EE19_M_release_last_useEv
FNDA:0,_ZNSt16_Sp_counted_baseILN9__gnu_cxx12_Lock_policyE2EE19_M_release_last_useEv
FNDA:0,_ZNSt12__shared_ptrIKN7testing8internal23ParamGeneratorInterfaceIbEELN9__gnu_cxx12_Lock_policyE2EE31_M_enable_shared_from_this_withIS3_S3_EENSt9enable_ifIXntsrNS7_15__has_esft_baseIT0_vEE5valueEvE4typeEPT_
FNDA:0,_ZNSt12__shared_ptrIKN7testing8internal2REELN9__gnu_cxx12_Lock_policyE2EE31_M_enable_shared_from_this_withIS3_S2_EENSt9enable_ifIXntsrNS6_15__has_esft_baseIT0_vEE5valueEvE4typeEPT_
FNDA:0,_ZNSt12__shared_ptrISt5mutexLN9__gnu_cxx12_Lock_policyE2EE31_M_enable_shared_from_this_withIS0_S0_EENSt9enable_ifIXntsrNS3_15__has_esft_baseIT0_vEE5valueEvE4typeEPT_
FNDA:0,_ZNSt16_Sp_counted_baseILN9__gnu_cxx12_Lock_policyE2EE24_M_release_last_use_coldEv
FNDA:0,_ZNKSt16_Sp_counted_baseILN9__gnu_cxx12_Lock_policyE2EE16_M_get_use_countEv
FNDA:0,_ZNSt16_Sp_counted_baseILN9__gnu_cxx12_Lock_policyE0EE23_M_add_ref_lock_nothrowEv
FNDA:0,_ZNSt16_Sp_counted_baseILN9__gnu_cxx12_Lock_policyE1EE23_M_add_ref_lock_nothrowEv
FNDA:0,_ZNSt16_Sp_counted_baseILN9__gnu_cxx12_Lock_policyE2EE23_M_add_ref_lock_nothrowEv
FNDA:0,_ZNSt16_Sp_counted_baseILN9__gnu_cxx12_Lock_policyE0EE15_M_add_ref_copyEv
FNDA:0,_ZNSt16_Sp_counted_baseILN9__gnu_cxx12_Lock_policyE0EE10_M_releaseEv
FNDA:0,_ZNSt16_Sp_counted_baseILN9__gnu_cxx12_Lock_policyE1EE10_M_releaseEv
FNDA:0,_ZNSt16_Sp_counted_baseILN9__gnu_cxx12_Lock_policyE2EE10_M_releaseEv
FNDA:0,_ZNSt16_Sp_counted_baseILN9__gnu_cxx12_Lock_policyE0EE15_M_weak_add_refEv
FNDA:0,_ZNSt16_Sp_counted_baseILN9__gnu_cxx12_Lock_policyE0EE15_M_weak_releaseEv
FNDA:0,_ZNKSt16_Sp_counted_baseILN9__gnu_cxx12_Lock_policyE0EE16_M_get_use_countEv
FNDA:0,_ZNSt15_Sp_counted_ptrIPKN7testing8internal2REELN9__gnu_cxx12_Lock_policyE2EEC2ES4_
FNDA:0,_ZNSt15_Sp_counted_ptrIPN7testing8internal23ParamGeneratorInterfaceIbEELN9__gnu_cxx12_Lock_policyE2EEC2ES4_
FNDA:0,_ZNSt15_Sp_counted_ptrIPKN7testing8internal2REELN9__gnu_cxx12_Lock_policyE2EE10_M_disposeEv
FNDA:0,_ZNSt15_Sp_counted_ptrIPN7testing8internal23ParamGeneratorInterfaceIbEELN9__gnu_cxx12_Lock_policyE2EE10_M_disposeEv
FNDA:0,_ZNSt15_Sp_counted_ptrIPKN7testing8internal2REELN9__gnu_cxx12_Lock_policyE2EE10_M_destroyEv
FNDA:0,_ZNSt15_Sp_counted_ptrIPN7testing8internal23ParamGeneratorInterfaceIbEELN9__gnu_cxx12_Lock_policyE2EE10_M_destroyEv
FNDA:0,_ZNSt15_Sp_counted_ptrIPKN7testing8internal2REELN9__gnu_cxx12_Lock_policyE2EE14_M_get_deleterERKSt9type_info
FNDA:0,_ZNSt15_Sp_counted_ptrIPN7testing8internal23ParamGeneratorInterfaceIbEELN9__gnu_cxx12_Lock_policyE2EE14_M_get_deleterERKSt9type_info
FNDA:0,_ZNSt15_Sp_counted_ptrIDnLN9__gnu_cxx12_Lock_policyE0EE10_M_disposeEv
FNDA:0,_ZNSt15_Sp_counted_ptrIDnLN9__gnu_cxx12_Lock_policyE1EE10_M_disposeEv
FNDA:0,_ZNSt15_Sp_counted_ptrIDnLN9__gnu_cxx12_Lock_policyE2EE10_M_disposeEv
FNDA:0,_ZNSt14_Sp_ebo_helperILi0ESaIvELb1EEC2ERKS0_
FNDA:0,_ZNSt14_Sp_ebo_helperILi0ESaIvELb1EE6_S_getERS1_
FNDA:0,_ZNSt19_Sp_make_shared_tag5_S_tiEv
FNDA:0,_ZNSt23_Sp_counted_ptr_inplaceISt5mutexSaIvELN9__gnu_cxx12_Lock_policyE2EE5_ImplC2ES1_
FNDA:0,_ZNSt23_Sp_counted_ptr_inplaceISt5mutexSaIvELN9__gnu_cxx12_Lock_policyE2EE5_Impl8_M_allocEv
FNDA:0,_ZNSt23_Sp_counted_ptr_inplaceISt5mutexSaIvELN9__gnu_cxx12_Lock_policyE2EEC2IJEEES1_DpOT_
FNDA:0,_ZNSt23_Sp_counted_ptr_inplaceISt5mutexSaIvELN9__gnu_cxx12_Lock_policyE2EED0Ev
FNDA:0,_ZNSt23_Sp_counted_ptr_inplaceISt5mutexSaIvELN9__gnu_cxx12_Lock_policyE2EED2Ev
FNDA:0,_ZNSt23_Sp_counted_ptr_inplaceISt5mutexSaIvELN9__gnu_cxx12_Lock_policyE2EE10_M_disposeEv
FNDA:0,_ZNSt23_Sp_counted_ptr_inplaceISt5mutexSaIvELN9__gnu_cxx12_Lock_policyE2EE10_M_destroyEv
FNDA:0,_ZNSt23_Sp_counted_ptr_inplaceISt5mutexSaIvELN9__gnu_cxx12_Lock_policyE2EE14_M_get_deleterERKSt9type_info
FNDA:0,_ZNSt23_Sp_counted_ptr_inplaceISt5mutexSaIvELN9__gnu_cxx12_Lock_policyE2EE6_M_ptrEv
FNDA:0,_ZNSt14__shared_countILN9__gnu_cxx12_Lock_policyE2EEC2IPKN7testing8internal2REEEET_
FNDA:0,_ZNSt14__shared_countILN9__gnu_cxx12_Lock_policyE2EEC2IPN7testing8internal23ParamGeneratorInterfaceIbEEEET_
FNDA:0,_ZNSt14__shared_countILN9__gnu_cxx12_Lock_policyE2EEC2IPKN7testing8internal2REEEET_St17integral_constantIbLb0EE
FNDA:0,_ZNSt14__shared_countILN9__gnu_cxx12_Lock_policyE2EEC2IPN7testing8internal23ParamGeneratorInterfaceIbEEEET_St17integral_constantIbLb0EE
FNDA:0,_ZSt20__throw_bad_weak_ptrv
FNDA:0,_ZNSt14__shared_countILN9__gnu_cxx12_Lock_policyE2EEC2ISt5mutexSaIvEJEEERPT_St20_Sp_alloc_shared_tagIT0_EDpOT1_
FNF:73
FNH:0
DA:95,0
DA:96,0
DA:129,0
DA:130,0
DA:133,0
DA:134,0
DA:143,0
DA:144,0
DA:151,0
DA:152,0
DA:172,0
DA:175,0
DA:182,0
DA:187,0
DA:188,0
DA:191,0
DA:193,0
DA:198,0
DA:199,0
DA:226,0
DA:230,0
DA:243,0
DA:246,0
DA:247,0
DA:248,0
DA:249,0
DA:254,0
DA:257,0
DA:258,0
DA:260,0
DA:261,0
DA:263,0
DA:264,0
DA:268,0
DA:272,0
DA:275,0
DA:276,0
DA:280,0
DA:283,0
DA:288,0
DA:289,0
DA:293,0
DA:295,0
DA:297,0
DA:298,0
DA:299,0
DA:301,0
DA:305,0
DA:309,0
DA:311,0
DA:313,0
DA:317,0
DA:321,0
DA:324,0
DA:328,0
DA:331,0
DA:332,0
DA:333,0
DA:334,0
DA:337,0
DA:343,0
DA:346,0
DA:347,0
DA:348,0
DA:350,0
DA:351,0
DA:353,0
DA:354,0
DA:367,0
DA:368,0
DA:372,0
DA:374,0
DA:375,0
DA:376,0
DA:380,0
DA:381,0
DA:423,0
DA:424,0
DA:427,0
DA:428,0
DA:431,0
DA:432,0
DA:435,0
DA:436,0
DA:447,0
DA:451,0
DA:455,0
DA:470,0
DA:474,0
DA:564,0
DA:567,0
DA:587,0
DA:589,0
DA:599,0
DA:600,0
DA:604,0
DA:606,0
DA:608,0
DA:611,0
DA:613,0
DA:614,0
DA:618,0
DA:620,0
DA:621,0
DA:622,0
DA:623,0
DA:631,0
DA:633,0
DA:638,0
DA:639,0
DA:641,0
DA:646,0
DA:647,0
DA:650,0
DA:913,0
DA:917,0
DA:919,0
DA:921,0
DA:922,0
DA:924,0
DA:927,0
DA:928,0
DA:929,0
DA:964,0
DA:968,0
DA:969,0
DA:970,0
DA:971,0
DA:973,0
DA:974,0
DA:975,0
DA:976,0
DA:1068,0
DA:1070,0
DA:1071,0
DA:1072,0
DA:1074,0
DA:1075,0
DA:1077,0
DA:1078,0
DA:1079,0
DA:1347,0
DA:1349,0
DA:1350,0
DA:1354,0
DA:1357,0
DA:1362,0
DA:1363,0
DA:1468,0
DA:1469,0
DA:1473,0
DA:1474,0
DA:1522,0
DA:1524,0
DA:1665,0
DA:1666,0
DA:1711,0
DA:1712,0
DA:1713,0
DA:1765,0
DA:1766,0
LF:161
LH:0
end_of_record
TN:
SF:/usr/include/c++/13/bits/std_abs.h
FN:56,56,_ZSt3absl
FN:61,61,_ZSt3absx
FN:71,72,_ZSt3absd
FN:75,76,_ZSt3absf
FN:79,80,_ZSt3abse
FNDA:0,_ZSt3absl
FNDA:0,_ZSt3absx
FNDA:0,_ZSt3absd
FNDA:0,_ZSt3absf
FNDA:0,_ZSt3abse
FNF:5
FNH:0
DA:56,0
DA:61,0
DA:71,0
DA:72,0
DA:75,0
DA:76,0
DA:79,0
DA:80,0
LF:8
LH:0
end_of_record
TN:
SF:/usr/include/c++/13/bits/std_function.h
FN:241,245,_ZNSt14_Function_baseD2Ev
FN:247,247,_ZNKSt14_Function_base8_M_emptyEv
FN:309,310,_ZNSt17_Function_handlerIvvE10_M_managerERSt9_Any_dataRKS1_St18_Manager_operation
FN:85,85,_ZNSt9_Any_data9_M_accessEv
FN:86,86,_ZNKSt9_Any_data9_M_accessEv
FNDA:0,_ZNSt14_Function_baseD2Ev
FNDA:0,_ZNKSt14_Function_base8_M_emptyEv
FNDA:0,_ZNSt17_Function_handlerIvvE10_M_managerERSt9_Any_dataRKS1_St18_Manager_operation
FNDA:0,_ZNSt9_Any_data9_M_accessEv
FNDA:0,_ZNKSt9_Any_data9_M_accessEv
FNF:5
FNH:0
DA:85,0
DA:86,0
DA:241,0
DA:243,0
DA:244,0
DA:245,0
DA:247,0
DA:309,0
DA:310,0
LF:9
LH:0
end_of_record
TN:
SF:/usr/include/c++/13/bits/std_mutex.h
FN:104,104,_ZNSt5mutexC2Ev
FN:111,118,_ZNSt5mutex4lockEv
FN:122,126,_ZNSt5mutex8try_lockEv
FN:129,133,_ZNSt5mutex6unlockEv
FN:136,137,_ZNSt5mutex13native_handleEv
FN:148,153,_ZNSt9__condvarC2Ev
FN:155,159,_ZNSt9__condvarD2Ev
FN:164,164,_ZNSt9__condvar13native_handleEv
FN:168,173,_ZNSt9__condvar4waitERSt5mutex
FN:176,179,_ZNSt9__condvar10wait_untilERSt5mutexR8timespec
FN:183,187,_ZNSt9__condvar10wait_untilERSt5mutexiR8timespec
FN:191,195,_ZNSt9__condvar10notify_oneEv
FN:198,202,_ZNSt9__condvar10notify_allEv
FN:248,249,_ZNSt10lock_guardISt5mutexEC2ERS0_
FN:254,255,_ZNSt10lock_guardISt5mutexED2Ev
FN:67,67,_ZNSt12__mutex_baseC2Ev
FNDA:0,_ZNSt5mutexC2Ev
FNDA:0,_ZNSt5mutex4lockEv
FNDA:0,_ZNSt5mutex8try_lockEv
FNDA:0,_ZNSt5mutex6unlockEv
FNDA:0,_ZNSt5mutex13native_handleEv
FNDA:0,_ZNSt9__condvarC2Ev
FNDA:0,_ZNSt9__condvarD2Ev
FNDA:0,_ZNSt9__condvar13native_handleEv
FNDA:0,_ZNSt9__condvar4waitERSt5mutex
FNDA:0,_ZNSt9__condvar10wait_untilERSt5mutexR8timespec
FNDA:0,_ZNSt9__condvar10wait_untilERSt5mutexiR8timespec
FNDA:0,_ZNSt9__condvar10notify_oneEv
FNDA:0,_ZNSt9__condvar10notify_allEv
FNDA:0,_ZNSt10lock_guardISt5mutexEC2ERS0_
FNDA:0,_ZNSt10lock_guardISt5mutexED2Ev
FNDA:0,_ZNSt12__mutex_baseC2Ev
FNF:16
FNH:0
DA:67,0
DA:104,0
DA:111,0
DA:113,0
DA:116,0
DA:117,0
DA:118,0
DA:122,0
DA:125,0
DA:129,0
DA:132,0
DA:133,0
DA:136,0
DA:137,0
DA:148,0
DA:149,0
DA:153,0
DA:155,0
DA:157,0
DA:158,0
DA:159,0
DA:164,0
DA:168,0
DA:171,0
DA:172,0
DA:173,0
DA:176,0
DA:178,0
DA:179,0
DA:183,0
DA:185,0
DA:187,0
DA:191,0
DA:193,0
DA:194,0
DA:195,0
DA:198,0
DA:200,0
DA:201,0
DA:202,0
DA:248,0
DA:249,0
DA:254,0
DA:255,0
LF:44
LH:0
end_of_record
TN:
SF:/usr/include/c++/13/bits/stl_algobase.h
FN:1012,1012,_ZSt17__size_to_integeri
FN:1014,1014,_ZSt17__size_to_integerj
FN:1016,1016,_ZSt17__size_to_integerl
FN:1018,1018,_ZSt17__size_to_integerm
FN:1020,1020,_ZSt17__size_to_integerx
FN:1022,1022,_ZSt17__size_to_integery
FN:1050,1050,_ZSt17__size_to_integerf
FN:1052,1052,_ZSt17__size_to_integerd
FN:1054,1054,_ZSt17__size_to_integere
FN:233,241,_ZSt3minImERKT_S2_S2_
FN:257,265,_ZSt3maxImERKT_S2_S2_
FN:316,318,_ZSt12__niter_baseIPKbET_S2_
FN:316,318,_ZSt12__niter_baseISt13_Bit_iteratorET_S1_
FN:316,318,_ZSt12__niter_baseISt19_Bit_const_iteratorET_S1_
FN:338,339,_ZSt12__niter_wrapISt13_Bit_iteratorET_RKS1_S1_
FN:383,393,_ZNSt11__copy_moveILb0ELb0ESt26random_access_iterator_tagE8__copy_mIPKbSt13_Bit_iteratorEET0_T_S7_S6_
FN:383,393,_ZNSt11__copy_moveILb0ELb0ESt26random_access_iterator_tagE8__copy_mISt19_Bit_const_iteratorSt13_Bit_iteratorEET0_T_S6_S5_
FN:497,507,_ZSt14__copy_move_a2ILb0EPKbSt13_Bit_iteratorET1_T0_S4_S3_
FN:497,507,_ZSt14__copy_move_a2ILb0ESt19_Bit_const_iteratorSt13_Bit_iteratorET1_T0_S3_S2_
FN:532,533,_ZSt14__copy_move_a1ILb0EPKbSt13_Bit_iteratorET1_T0_S4_S3_
FN:532,533,_ZSt14__copy_move_a1ILb0ESt19_Bit_const_iteratorSt13_Bit_iteratorET1_T0_S3_S2_
FN:538,544,_ZSt13__copy_move_aILb0EPKbSt13_Bit_iteratorET1_T0_S4_S3_
FN:538,544,_ZSt13__copy_move_aILb0ESt19_Bit_const_iteratorSt13_Bit_iteratorET1_T0_S3_S2_
FN:624,634,_ZSt4copyIPKbSt13_Bit_iteratorET0_T_S4_S3_
FN:624,634,_ZSt4copyISt19_Bit_const_iteratorSt13_Bit_iteratorET0_T_S3_S2_
FNDA:0,_ZSt17__size_to_integeri
FNDA:0,_ZSt17__size_to_integerj
FNDA:0,_ZSt17__size_to_integerl
FNDA:0,_ZSt17__size_to_integerm
FNDA:0,_ZSt17__size_to_integerx
FNDA:0,_ZSt17__size_to_integery
FNDA:0,_ZSt17__size_to_integerf
FNDA:0,_ZSt17__size_to_integerd
FNDA:0,_ZSt17__size_to_integere
FNDA:388,_ZSt3minImERKT_S2_S2_
FNDA:183,_ZSt3maxImERKT_S2_S2_
FNDA:0,_ZSt12__niter_baseIPKbET_S2_
FNDA:0,_ZSt12__niter_baseISt13_Bit_iteratorET_S1_
FNDA:0,_ZSt12__niter_baseISt19_Bit_const_iteratorET_S1_
FNDA:0,_ZSt12__niter_wrapISt13_Bit_iteratorET_RKS1_S1_
FNDA:0,_ZNSt11__copy_moveILb0ELb0ESt26random_access_iterator_tagE8__copy_mIPKbSt13_Bit_iteratorEET0_T_S7_S6_
FNDA:0,_ZNSt11__copy_moveILb0ELb0ESt26random_access_iterator_tagE8__copy_mISt19_Bit_const_iteratorSt13_Bit_iteratorEET0_T_S6_S5_
FNDA:0,_ZSt14__copy_move_a2ILb0EPKbSt13_Bit_iteratorET1_T0_S4_S3_
FNDA:0,_ZSt14__copy_move_a2ILb0ESt19_Bit_const_iteratorSt13_Bit_iteratorET1_T0_S3_S2_
FNDA:0,_ZSt14__copy_move_a1ILb0EPKbSt13_Bit_iteratorET1_T0_S4_S3_
FNDA:0,_ZSt14__copy_move_a1ILb0ESt19_Bit_const_iteratorSt13_Bit_iteratorET1_T0_S3_S2_
FNDA:0,_ZSt13__copy_move_aILb0EPKbSt13_Bit_iteratorET1_T0_S4_S3_
FNDA:0,_ZSt13__copy_move_aILb0ESt19_Bit_const_iteratorSt13_Bit_iteratorET1_T0_S3_S2_
FNDA:0,_ZSt4copyIPKbSt13_Bit_iteratorET0_T_S4_S3_
FNDA:0,_ZSt4copyISt19_Bit_const_iteratorSt13_Bit_iteratorET0_T_S3_S2_
FNF:25
FNH:2
DA:233,388
DA:238,388
DA:239,0
DA:240,388
DA:257,183
DA:262,183
DA:263,74
DA:264,109
DA:316,0
DA:318,0
DA:338,0
DA:339,0
DA:383,0
DA:386,0
DA:388,0
DA:389,0
DA:390,0
DA:392,0
DA:497,0
DA:506,0
DA:532,0
DA:533,0
DA:538,0
DA:540,0
DA:543,0
DA:624,0
DA:633,0
DA:1012,0
DA:1014,0
DA:1016,0
DA:1018,0
DA:1020,0
DA:1022,0
DA:1050,0
DA:1052,0
DA:1054,0
LF:36
LH:7
end_of_record
TN:
SF:/usr/include/c++/13/bits/stl_bvector.h
FN:1000,1001,_ZNKSt6vectorIbSaIbEE5beginEv
FN:1010,1011,_ZNKSt6vectorIbSaIbEE3endEv
FN:104,111,_ZNSt14_Bit_referenceaSEb
FN:127,128,_ZNSt14_Bit_referenceaSERKS_
FN:132,133,_ZNKSt14_Bit_referenceeqERKS_
FN:1349,1359,_ZNSt6vectorIbSaIbEE13_M_initializeEm
FN:137,138,_ZNKSt14_Bit_referenceltERKS_
FN:1411,1417,_ZNSt6vectorIbSaIbEE19_M_initialize_rangeIPKbEEvT_S5_St20forward_iterator_tag
FN:1411,1417,_ZNSt6vectorIbSaIbEE19_M_initialize_rangeISt19_Bit_const_iteratorEEvT_S4_St20forward_iterator_tag
FN:142,143,_ZNSt14_Bit_reference4flipEv
FN:148,153,_ZSt4swapSt14_Bit_referenceS_
FN:157,162,_ZSt4swapSt14_Bit_referenceRb
FN:1570,1581,_ZSt14__fill_bvectorPmjjb
FN:1587,1598,_ZSt16__fill_bvector_nPmmb
FN:1603,1619,_ZSt9__fill_a1St13_Bit_iteratorS_RKb
FN:166,171,_ZSt4swapRbSt14_Bit_reference
FN:186,192,_ZNKSt18_Bit_iterator_base20_M_assume_normalizedEv
FN:195,196,_ZNSt18_Bit_iterator_baseC2EPmj
FN:200,208,_ZNSt18_Bit_iterator_base10_M_bump_upEv
FN:212,220,_ZNSt18_Bit_iterator_base12_M_bump_downEv
FN:224,236,_ZNSt18_Bit_iterator_base7_M_incrEl
FN:240,245,_ZSteqRKSt18_Bit_iterator_baseS1_
FN:262,268,_ZStltRKSt18_Bit_iterator_baseS1_
FN:272,273,_ZStneRKSt18_Bit_iterator_baseS1_
FN:277,278,_ZStgtRKSt18_Bit_iterator_baseS1_
FN:282,283,_ZStleRKSt18_Bit_iterator_baseS1_
FN:287,288,_ZStgeRKSt18_Bit_iterator_baseS1_
FN:292,298,_ZStmiRKSt18_Bit_iterator_baseS1_
FN:313,313,_ZNSt13_Bit_iteratorC2Ev
FN:316,317,_ZNSt13_Bit_iteratorC2EPmj
FN:321,322,_ZNKSt13_Bit_iterator13_M_const_castEv
FN:326,330,_ZNKSt13_Bit_iteratordeEv
FN:334,338,_ZNSt13_Bit_iteratorppEv
FN:342,347,_ZNSt13_Bit_iteratorppEi
FN:351,355,_ZNSt13_Bit_iteratormmEv
FN:359,364,_ZNSt13_Bit_iteratormmEi
FN:368,372,_ZNSt13_Bit_iteratorpLEl
FN:376,380,_ZNSt13_Bit_iteratormIEl
FN:384,385,_ZNKSt13_Bit_iteratorixEl
FN:389,394,_ZStplRKSt13_Bit_iteratorl
FN:398,399,_ZStpllRKSt13_Bit_iterator
FN:403,408,_ZStmiRKSt13_Bit_iteratorl
FN:423,423,_ZNSt19_Bit_const_iteratorC2Ev
FN:426,427,_ZNSt19_Bit_const_iteratorC2EPmj
FN:430,431,_ZNSt19_Bit_const_iteratorC2ERKSt13_Bit_iterator
FN:435,436,_ZNKSt19_Bit_const_iterator13_M_const_castEv
FN:440,444,_ZNKSt19_Bit_const_iteratordeEv
FN:448,452,_ZNSt19_Bit_const_iteratorppEv
FN:456,461,_ZNSt19_Bit_const_iteratorppEi
FN:465,469,_ZNSt19_Bit_const_iteratormmEv
FN:473,478,_ZNSt19_Bit_const_iteratormmEi
FN:482,486,_ZNSt19_Bit_const_iteratorpLEl
FN:490,494,_ZNSt19_Bit_const_iteratormIEl
FN:498,499,_ZNKSt19_Bit_const_iteratorixEl
FN:503,508,_ZStplRKSt19_Bit_const_iteratorl
FN:512,517,_ZStmiRKSt19_Bit_const_iteratorl
FN:521,522,_ZStpllRKSt19_Bit_const_iterator
FN:551,553,_ZNSt13_Bvector_baseISaIbEE18_Bvector_impl_dataC2Ev
FN:577,578,_ZNSt13_Bvector_baseISaIbEE18_Bvector_impl_data8_M_resetEv
FN:603,605,_ZNSt13_Bvector_baseISaIbEE13_Bvector_implC2ERKSaImE
FN:623,628,_ZNKSt13_Bvector_baseISaIbEE13_Bvector_impl11_M_end_addrEv
FN:656,657,_ZNSt13_Bvector_baseISaIbEEC2ERKS0_
FN:669,670,_ZNSt13_Bvector_baseISaIbEED2Ev
FN:677,689,_ZNSt13_Bvector_baseISaIbEE11_M_allocateEm
FN:693,703,_ZNSt13_Bvector_baseISaIbEE13_M_deallocateEv
FN:714,715,_ZNSt13_Bvector_baseISaIbEE8_S_nwordEm
FN:857,863,_ZNSt6vectorIbSaIbEEC2ESt16initializer_listIbERKS0_
FN:870,876,_ZNSt6vectorIbSaIbEEC2ISt19_Bit_const_iteratorvEET_S4_RKS0_
FN:88,89,_ZNSt14_Bit_referenceC2EPmm
FN:890,890,_ZNSt6vectorIbSaIbEED2Ev
FN:92,92,_ZNSt14_Bit_referenceC2Ev
FN:99,100,_ZNKSt14_Bit_referencecvbEv
FN:995,996,_ZNSt6vectorIbSaIbEE5beginEv
FNDA:0,_ZNKSt6vectorIbSaIbEE5beginEv
FNDA:0,_ZNKSt6vectorIbSaIbEE3endEv
FNDA:0,_ZNSt14_Bit_referenceaSEb
FNDA:0,_ZNSt14_Bit_referenceaSERKS_
FNDA:0,_ZNKSt14_Bit_referenceeqERKS_
FNDA:0,_ZNSt6vectorIbSaIbEE13_M_initializeEm
FNDA:0,_ZNKSt14_Bit_referenceltERKS_
FNDA:0,_ZNSt6vectorIbSaIbEE19_M_initialize_rangeIPKbEEvT_S5_St20forward_iterator_tag
FNDA:0,_ZNSt6vectorIbSaIbEE19_M_initialize_rangeISt19_Bit_const_iteratorEEvT_S4_St20forward_iterator_tag
FNDA:0,_ZNSt14_Bit_reference4flipEv
FNDA:0,_ZSt4swapSt14_Bit_referenceS_
FNDA:0,_ZSt4swapSt14_Bit_referenceRb
FNDA:0,_ZSt14__fill_bvectorPmjjb
FNDA:0,_ZSt16__fill_bvector_nPmmb
FNDA:0,_ZSt9__fill_a1St13_Bit_iteratorS_RKb
FNDA:0,_ZSt4swapRbSt14_Bit_reference
FNDA:0,_ZNKSt18_Bit_iterator_base20_M_assume_normalizedEv
FNDA:0,_ZNSt18_Bit_iterator_baseC2EPmj
FNDA:0,_ZNSt18_Bit_iterator_base10_M_bump_upEv
FNDA:0,_ZNSt18_Bit_iterator_base12_M_bump_downEv
FNDA:0,_ZNSt18_Bit_iterator_base7_M_incrEl
FNDA:0,_ZSteqRKSt18_Bit_iterator_baseS1_
FNDA:0,_ZStltRKSt18_Bit_iterator_baseS1_
FNDA:0,_ZStneRKSt18_Bit_iterator_baseS1_
FNDA:0,_ZStgtRKSt18_Bit_iterator_baseS1_
FNDA:0,_ZStleRKSt18_Bit_iterator_baseS1_
FNDA:0,_ZStgeRKSt18_Bit_iterator_baseS1_
FNDA:0,_ZStmiRKSt18_Bit_iterator_baseS1_
FNDA:0,_ZNSt13_Bit_iteratorC2Ev
FNDA:0,_ZNSt13_Bit_iteratorC2EPmj
FNDA:0,_ZNKSt13_Bit_iterator13_M_const_castEv
FNDA:0,_ZNKSt13_Bit_iteratordeEv
FNDA:0,_ZNSt13_Bit_iteratorppEv
FNDA:0,_ZNSt13_Bit_iteratorppEi
FNDA:0,_ZNSt13_Bit_iteratormmEv
FNDA:0,_ZNSt13_Bit_iteratormmEi
FNDA:0,_ZNSt13_Bit_iteratorpLEl
FNDA:0,_ZNSt13_Bit_iteratormIEl
FNDA:0,_ZNKSt13_Bit_iteratorixEl
FNDA:0,_ZStplRKSt13_Bit_iteratorl
FNDA:0,_ZStpllRKSt13_Bit_iterator
FNDA:0,_ZStmiRKSt13_Bit_iteratorl
FNDA:0,_ZNSt19_Bit_const_iteratorC2Ev
FNDA:0,_ZNSt19_Bit_const_iteratorC2EPmj
FNDA:0,_ZNSt19_Bit_const_iteratorC2ERKSt13_Bit_iterator
FNDA:0,_ZNKSt19_Bit_const_iterator13_M_const_castEv
FNDA:0,_ZNKSt19_Bit_const_iteratordeEv
FNDA:0,_ZNSt19_Bit_const_iteratorppEv
FNDA:0,_ZNSt19_Bit_const_iteratorppEi
FNDA:0,_ZNSt19_Bit_const_iteratormmEv
FNDA:0,_ZNSt19_Bit_const_iteratormmEi
FNDA:0,_ZNSt19_Bit_const_iteratorpLEl
FNDA:0,_ZNSt19_Bit_const_iteratormIEl
FNDA:0,_ZNKSt19_Bit_const_iteratorixEl
FNDA:0,_ZStplRKSt19_Bit_const_iteratorl
FNDA:0,_ZStmiRKSt19_Bit_const_iteratorl
FNDA:0,_ZStpllRKSt19_Bit_const_iterator
FNDA:0,_ZNSt13_Bvector_baseISaIbEE18_Bvector_impl_dataC2Ev
FNDA:0,_ZNSt13_Bvector_baseISaIbEE18_Bvector_impl_data8_M_resetEv
FNDA:0,_ZNSt13_Bvector_baseISaIbEE13_Bvector_implC2ERKSaImE
FNDA:0,_ZNKSt13_Bvector_baseISaIbEE13_Bvector_impl11_M_end_addrEv
FNDA:0,_ZNSt13_Bvector_baseISaIbEEC2ERKS0_
FNDA:0,_ZNSt13_Bvector_baseISaIbEED2Ev
FNDA:0,_ZNSt13_Bvector_baseISaIbEE11_M_allocateEm
FNDA:0,_ZNSt13_Bvector_baseISaIbEE13_M_deallocateEv
FNDA:0,_ZNSt13_Bvector_baseISaIbEE8_S_nwordEm
FNDA:0,_ZNSt6vectorIbSaIbEEC2ESt16initializer_listIbERKS0_
FNDA:0,_ZNSt6vectorIbSaIbEEC2ISt19_Bit_const_iteratorvEET_S4_RKS0_
FNDA:0,_ZNSt14_Bit_referenceC2EPmm
FNDA:0,_ZNSt6vectorIbSaIbEED2Ev
FNDA:0,_ZNSt14_Bit_referenceC2Ev
FNDA:0,_ZNKSt14_Bit_referencecvbEv
FNDA:0,_ZNSt6vectorIbSaIbEE5beginEv
FNF:73
FNH:0
DA:88,0
DA:89,0
DA:92,0
DA:99,0
DA:100,0
DA:104,0
DA:106,0
DA:107,0
DA:109,0
DA:110,0
DA:127,0
DA:128,0
DA:132,0
DA:133,0
DA:137,0
DA:138,0
DA:142,0
DA:143,0
DA:148,0
DA:150,0
DA:151,0
DA:152,0
DA:153,0
DA:157,0
DA:159,0
DA:160,0
DA:161,0
DA:162,0
DA:166,0
DA:168,0
DA:169,0
DA:170,0
DA:171,0
DA:186,0
DA:189,0
DA:190,0
DA:192,0
DA:195,0
DA:196,0
DA:200,0
DA:203,0
DA:205,0
DA:206,0
DA:208,0
DA:212,0
DA:215,0
DA:217,0
DA:218,0
DA:220,0
DA:224,0
DA:227,0
DA:228,0
DA:229,0
DA:230,0
DA:232,0
DA:233,0
DA:235,0
DA:236,0
DA:240,0
DA:244,0
DA:262,0
DA:266,0
DA:267,0
DA:272,0
DA:273,0
DA:277,0
DA:278,0
DA:282,0
DA:283,0
DA:287,0
DA:288,0
DA:292,0
DA:296,0
DA:297,0
DA:313,0
DA:316,0
DA:317,0
DA:321,0
DA:322,0
DA:326,0
DA:328,0
DA:329,0
DA:334,0
DA:336,0
DA:337,0
DA:342,0
DA:344,0
DA:345,0
DA:346,0
DA:351,0
DA:353,0
DA:354,0
DA:359,0
DA:361,0
DA:362,0
DA:363,0
DA:368,0
DA:370,0
DA:371,0
DA:376,0
DA:378,0
DA:379,0
DA:384,0
DA:385,0
DA:389,0
DA:391,0
DA:392,0
DA:393,0
DA:398,0
DA:399,0
DA:403,0
DA:405,0
DA:406,0
DA:407,0
DA:423,0
DA:426,0
DA:427,0
DA:430,0
DA:431,0
DA:435,0
DA:436,0
DA:440,0
DA:442,0
DA:443,0
DA:448,0
DA:450,0
DA:451,0
DA:456,0
DA:458,0
DA:459,0
DA:460,0
DA:465,0
DA:467,0
DA:468,0
DA:473,0
DA:475,0
DA:476,0
DA:477,0
DA:482,0
DA:484,0
DA:485,0
DA:490,0
DA:492,0
DA:493,0
DA:498,0
DA:499,0
DA:503,0
DA:505,0
DA:506,0
DA:507,0
DA:512,0
DA:514,0
DA:515,0
DA:516,0
DA:521,0
DA:522,0
DA:551,0
DA:552,0
DA:553,0
DA:577,0
DA:578,0
DA:603,0
DA:604,0
DA:605,0
DA:623,0
DA:625,0
DA:626,0
DA:627,0
DA:656,0
DA:657,0
DA:669,0
DA:670,0
DA:677,0
DA:679,0
DA:688,0
DA:693,0
DA:695,0
DA:697,0
DA:698,0
DA:699,0
DA:701,0
DA:703,0
DA:714,0
DA:715,0
DA:857,0
DA:859,0
DA:861,0
DA:862,0
DA:863,0
DA:870,0
DA:872,0
DA:874,0
DA:875,0
DA:876,0
DA:890,0
DA:995,0
DA:996,0
DA:1000,0
DA:1001,0
DA:1010,0
DA:1011,0
DA:1349,0
DA:1351,0
DA:1353,0
DA:1354,0
DA:1355,0
DA:1356,0
DA:1357,0
DA:1359,0
DA:1411,0
DA:1414,0
DA:1415,0
DA:1416,0
DA:1417,0
DA:1570,0
DA:1573,0
DA:1574,0
DA:1575,0
DA:1577,0
DA:1578,0
DA:1580,0
DA:1581,0
DA:1587,0
DA:1597,0
DA:1598,0
DA:1603,0
DA:1606,0
DA:1608,0
DA:1609,0
DA:1610,0
DA:1612,0
DA:1614,0
DA:1615,0
DA:1617,0
DA:1618,0
DA:1619,0
LF:236
LH:0
end_of_record
TN:
SF:/usr/include/c++/13/bits/stl_construct.h
FN:109,120,_ZSt10_ConstructISt5mutexJEEvPT_DpOT0_
FN:146,153,_ZSt8_DestroyINSt7__cxx1112basic_stringIcSt11char_traitsIcESaIcEEEEvPT_
FN:146,153,_ZSt8_DestroyISt5mutexEvPT_
FN:160,164,_ZNSt12_Destroy_auxILb0EE9__destroyIPNSt7__cxx1112basic_stringIcSt11char_traitsIcESaIcEEEEEvT_S9_
FN:172,172,_ZNSt12_Destroy_auxILb1EE9__destroyIPPN7testing8internal30ParameterizedTestSuiteInfoBaseEEEvT_S7_
FN:172,172,_ZNSt12_Destroy_auxILb1EE9__destroyIPiEEvT_S3_
FN:182,197,_ZSt8_DestroyIPNSt7__cxx1112basic_stringIcSt11char_traitsIcESaIcEEEEvT_S7_
FN:182,197,_ZSt8_DestroyIPPN7testing8internal30ParameterizedTestSuiteInfoBaseEEvT_S5_
FN:182,197,_ZSt8_DestroyIPiEvT_S1_
FNDA:0,_ZSt10_ConstructISt5mutexJEEvPT_DpOT0_
FNDA:31,_ZSt8_DestroyINSt7__cxx1112basic_stringIcSt11char_traitsIcESaIcEEEEvPT_
FNDA:0,_ZSt8_DestroyISt5mutexEvPT_
FNDA:43,_ZNSt12_Destroy_auxILb0EE9__destroyIPNSt7__cxx1112basic_stringIcSt11char_traitsIcESaIcEEEEEvT_S9_
FNDA:4,_ZNSt12_Destroy_auxILb1EE9__destroyIPPN7testing8internal30ParameterizedTestSuiteInfoBaseEEEvT_S7_
FNDA:5,_ZNSt12_Destroy_auxILb1EE9__destroyIPiEEvT_S3_
FNDA:43,_ZSt8_DestroyIPNSt7__cxx1112basic_stringIcSt11char_traitsIcESaIcEEEEvT_S7_
FNDA:4,_ZSt8_DestroyIPPN7testing8internal30ParameterizedTestSuiteInfoBaseEEvT_S5_
FNDA:5,_ZSt8_DestroyIPiEvT_S1_
FNF:9
FNH:7
DA:109,0
DA:119,0
DA:120,0
DA:146,31
DA:151,31
DA:153,31
DA:160,43
DA:162,74
DA:163,31
DA:164,43
DA:172,9
DA:182,52
DA:196,52
DA:197,52
LF:14
LH:11
end_of_record
TN:
SF:/usr/include/c++/13/bits/stl_deque.h
FN:1027,1028,_ZNSt5dequeINSt7__cxx1112basic_stringIcSt11char_traitsIcESaIcEEESaIS5_EED2Ev
FN:1151,1152,_ZNSt5dequeINSt7__cxx1112basic_stringIcSt11char_traitsIcESaIcEEESaIS5_EE5beginEv
FN:1170,1171,_ZNSt5dequeINSt7__cxx1112basic_stringIcSt11char_traitsIcESaIcEEESaIS5_EE3endEv
FN:131,132,_ZNSt15_Deque_iteratorINSt7__cxx1112basic_stringIcSt11char_traitsIcESaIcEEERS5_PS5_E14_S_buffer_sizeEv
FN:151,152,_ZNSt15_Deque_iteratorINSt7__cxx1112basic_stringIcSt11char_traitsIcESaIcEEERS5_PS5_EC2Ev
FN:168,170,_ZNSt15_Deque_iteratorINSt7__cxx1112basic_stringIcSt11char_traitsIcESaIcEEERS5_PS5_EC2ERKS8_
FN:2087,2092,_ZNSt5dequeINSt7__cxx1112basic_stringIcSt11char_traitsIcESaIcEEESaIS5_EE15_M_destroy_dataESt15_Deque_iteratorIS5_RS5_PS5_ESB_RKS6_
FN:263,268,_ZNSt15_Deque_iteratorINSt7__cxx1112basic_stringIcSt11char_traitsIcESaIcEEERS5_PS5_E11_M_set_nodeEPS7_
FN:458,460,_ZNSt11_Deque_baseINSt7__cxx1112basic_stringIcSt11char_traitsIcESaIcEEESaIS5_EEC2Ev
FN:516,518,_ZNSt11_Deque_baseINSt7__cxx1112basic_stringIcSt11char_traitsIcESaIcEEESaIS5_EE16_Deque_impl_dataC2Ev
FN:545,548,_ZNSt11_Deque_baseINSt7__cxx1112basic_stringIcSt11char_traitsIcESaIcEEESaIS5_EE11_Deque_implC2Ev
FN:568,569,_ZNSt11_Deque_baseINSt7__cxx1112basic_stringIcSt11char_traitsIcESaIcEEESaIS5_EE19_M_get_Tp_allocatorEv
FN:572,573,_ZNKSt11_Deque_baseINSt7__cxx1112basic_stringIcSt11char_traitsIcESaIcEEESaIS5_EE19_M_get_Tp_allocatorEv
FN:576,577,_ZNKSt11_Deque_baseINSt7__cxx1112basic_stringIcSt11char_traitsIcESaIcEEESaIS5_EE20_M_get_map_allocatorEv
FN:580,584,_ZNSt11_Deque_baseINSt7__cxx1112basic_stringIcSt11char_traitsIcESaIcEEESaIS5_EE16_M_allocate_nodeEv
FN:587,591,_ZNSt11_Deque_baseINSt7__cxx1112basic_stringIcSt11char_traitsIcESaIcEEESaIS5_EE18_M_deallocate_nodeEPS5_
FN:594,598,_ZNSt11_Deque_baseINSt7__cxx1112basic_stringIcSt11char_traitsIcESaIcEEESaIS5_EE15_M_allocate_mapEm
FN:601,605,_ZNSt11_Deque_baseINSt7__cxx1112basic_stringIcSt11char_traitsIcESaIcEEESaIS5_EE17_M_deallocate_mapEPPS5_m
FN:617,626,_ZNSt11_Deque_baseINSt7__cxx1112basic_stringIcSt11char_traitsIcESaIcEEESaIS5_EED2Ev
FN:638,673,_ZNSt11_Deque_baseINSt7__cxx1112basic_stringIcSt11char_traitsIcESaIcEEESaIS5_EE17_M_initialize_mapEm
FN:677,691,_ZNSt11_Deque_baseINSt7__cxx1112basic_stringIcSt11char_traitsIcESaIcEEESaIS5_EE15_M_create_nodesEPPS5_S9_
FN:695,701,_ZNSt11_Deque_baseINSt7__cxx1112basic_stringIcSt11char_traitsIcESaIcEEESaIS5_EE16_M_destroy_nodesEPPS5_S9_
FN:828,829,_ZNSt5dequeINSt7__cxx1112basic_stringIcSt11char_traitsIcESaIcEEESaIS5_EE14_S_buffer_sizeEv
FN:855,855,_ZNSt5dequeINSt7__cxx1112basic_stringIcSt11char_traitsIcESaIcEEESaIS5_EEC2Ev
FN:96,98,_ZSt16__deque_buf_sizem
FNDA:1,_ZNSt5dequeINSt7__cxx1112basic_stringIcSt11char_traitsIcESaIcEEESaIS5_EED2Ev
FNDA:1,_ZNSt5dequeINSt7__cxx1112basic_stringIcSt11char_traitsIcESaIcEEESaIS5_EE5beginEv
FNDA:1,_ZNSt5dequeINSt7__cxx1112basic_stringIcSt11char_traitsIcESaIcEEESaIS5_EE3endEv
FNDA:2,_ZNSt15_Deque_iteratorINSt7__cxx1112basic_stringIcSt11char_traitsIcESaIcEEERS5_PS5_E14_S_buffer_sizeEv
FNDA:2,_ZNSt15_Deque_iteratorINSt7__cxx1112basic_stringIcSt11char_traitsIcESaIcEEERS5_PS5_EC2Ev
FNDA:4,_ZNSt15_Deque_iteratorINSt7__cxx1112basic_stringIcSt11char_traitsIcESaIcEEERS5_PS5_EC2ERKS8_
FNDA:1,_ZNSt5dequeINSt7__cxx1112basic_stringIcSt11char_traitsIcESaIcEEESaIS5_EE15_M_destroy_dataESt15_Deque_iteratorIS5_RS5_PS5_ESB_RKS6_
FNDA:2,_ZNSt15_Deque_iteratorINSt7__cxx1112basic_stringIcSt11char_traitsIcESaIcEEERS5_PS5_E11_M_set_nodeEPS7_
FNDA:1,_ZNSt11_Deque_baseINSt7__cxx1112basic_stringIcSt11char_traitsIcESaIcEEESaIS5_EEC2Ev
FNDA:1,_ZNSt11_Deque_baseINSt7__cxx1112basic_stringIcSt11char_traitsIcESaIcEEESaIS5_EE16_Deque_impl_dataC2Ev
FNDA:1,_ZNSt11_Deque_baseINSt7__cxx1112basic_stringIcSt11char_traitsIcESaIcEEESaIS5_EE11_Deque_implC2Ev
FNDA:2,_ZNSt11_Deque_baseINSt7__cxx1112basic_stringIcSt11char_traitsIcESaIcEEESaIS5_EE19_M_get_Tp_allocatorEv
FNDA:2,_ZNKSt11_Deque_baseINSt7__cxx1112basic_stringIcSt11char_traitsIcESaIcEEESaIS5_EE19_M_get_Tp_allocatorEv
FNDA:2,_ZNKSt11_Deque_baseINSt7__cxx1112basic_stringIcSt11char_traitsIcESaIcEEESaIS5_EE20_M_get_map_allocatorEv
FNDA:1,_ZNSt11_Deque_baseINSt7__cxx1112basic_stringIcSt11char_traitsIcESaIcEEESaIS5_EE16_M_allocate_nodeEv
FNDA:1,_ZNSt11_Deque_baseINSt7__cxx1112basic_stringIcSt11char_traitsIcESaIcEEESaIS5_EE18_M_deallocate_nodeEPS5_
FNDA:1,_ZNSt11_Deque_baseINSt7__cxx1112basic_stringIcSt11char_traitsIcESaIcEEESaIS5_EE15_M_allocate_mapEm
FNDA:1,_ZNSt11_Deque_baseINSt7__cxx1112basic_stringIcSt11char_traitsIcESaIcEEESaIS5_EE17_M_deallocate_mapEPPS5_m
FNDA:1,_ZNSt11_Deque_baseINSt7__cxx1112basic_stringIcSt11char_traitsIcESaIcEEESaIS5_EED2Ev
FNDA:1,_ZNSt11_Deque_baseINSt7__cxx1112basic_stringIcSt11char_traitsIcESaIcEEESaIS5_EE17_M_initialize_mapEm
FNDA:1,_ZNSt11_Deque_baseINSt7__cxx1112basic_stringIcSt11char_traitsIcESaIcEEESaIS5_EE15_M_create_nodesEPPS5_S9_
FNDA:1,_ZNSt11_Deque_baseINSt7__cxx1112basic_stringIcSt11char_traitsIcESaIcEEESaIS5_EE16_M_destroy_nodesEPPS5_S9_
FNDA:0,_ZNSt5dequeINSt7__cxx1112basic_stringIcSt11char_traitsIcESaIcEEESaIS5_EE14_S_buffer_sizeEv
FNDA:1,_ZNSt5dequeINSt7__cxx1112basic_stringIcSt11char_traitsIcESaIcEEESaIS5_EEC2Ev
FNDA:6,_ZSt16__deque_buf_sizem
FNF:25
FNH:24
DA:96,6
DA:98,6
DA:131,2
DA:132,2
DA:151,2
DA:152,2
DA:168,4
DA:169,4
DA:170,4
DA:263,2
DA:265,2
DA:266,2
DA:267,2
DA:268,2
DA:458,1
DA:459,1
DA:460,1
DA:516,1
DA:517,1
DA:518,1
DA:545,1
DA:547,1
DA:548,1
DA:568,2
DA:569,2
DA:572,2
DA:573,2
DA:576,2
DA:577,4
DA:580,1
DA:583,2
DA:587,1
DA:590,1
DA:591,1
DA:594,1
DA:596,1
DA:597,2
DA:601,1
DA:603,1
DA:605,1
DA:617,1
DA:620,1
DA:622,1
DA:623,1
DA:624,1
DA:626,1
DA:638,1
DA:641,1
DA:644,2
DA:645,1
DA:646,1
DA:653,1
DA:654,1
DA:655,1
DA:658,1
DA:659,0
DA:661,0
DA:662,0
DA:663,0
DA:664,0
DA:667,1
DA:668,1
DA:669,1
DA:670,2
DA:671,1
DA:672,1
DA:673,1
DA:677,1
DA:683,2
DA:684,1
DA:686,0
DA:688,0
DA:689,0
DA:691,1
DA:695,1
DA:699,2
DA:700,1
DA:701,1
DA:828,0
DA:829,0
DA:855,1
DA:1027,1
DA:1028,1
DA:1151,1
DA:1152,1
DA:1170,1
DA:1171,1
DA:2087,1
DA:2091,1
DA:2092,1
LF:90
LH:80
end_of_record
TN:
SF:/usr/include/c++/13/bits/stl_function.h
FN:1182,1183,_ZNKSt10_Select1stISt4pairIKNSt7__cxx1112basic_stringIcSt11char_traitsIcESaIcEEEN7testing8internal12CodeLocationEEEclERKSB_
FN:451,458,_ZNKSt4lessIPKNSt3_V214error_categoryEEclES3_S3_
FN:589,595,_ZNKSt4lessIvEclIRKNSt7__cxx1112basic_stringIcSt11char_traitsIcESaIcEEES9_EEDTltcl7forwardIT_Efp_Ecl7forwardIT0_Efp0_EEOSA_OSB_
FN:607,608,_ZNSt4lessIvE6_S_cmpIRKNSt7__cxx1112basic_stringIcSt11char_traitsIcESaIcEEES9_EEDcOT_OT0_St17integral_constantIbLb0EE
FNDA:0,_ZNKSt10_Select1stISt4pairIKNSt7__cxx1112basic_stringIcSt11char_traitsIcESaIcEEEN7testing8internal12CodeLocationEEEclERKSB_
FNDA:0,_ZNKSt4lessIPKNSt3_V214error_categoryEEclES3_S3_
FNDA:0,_ZNKSt4lessIvEclIRKNSt7__cxx1112basic_stringIcSt11char_traitsIcESaIcEEES9_EEDTltcl7forwardIT_Efp_Ecl7forwardIT0_Efp0_EEOSA_OSB_
FNDA:0,_ZNSt4lessIvE6_S_cmpIRKNSt7__cxx1112basic_stringIcSt11char_traitsIcESaIcEEES9_EEDcOT_OT0_St17integral_constantIbLb0EE
FNF:4
FNH:0
DA:451,0
DA:454,0
DA:455,0
DA:457,0
DA:589,0
DA:593,0
DA:594,0
DA:607,0
DA:608,0
DA:1182,0
DA:1183,0
LF:11
LH:0
end_of_record
TN:
SF:/usr/include/c++/13/bits/stl_iterator.h
FN:1076,1077,_ZN9__gnu_cxx17__normal_iteratorIPPN7testing8internal30ParameterizedTestSuiteInfoBaseESt6vectorIS4_SaIS4_EEEC2ERKS5_
FN:1076,1077,_ZN9__gnu_cxx17__normal_iteratorIPcNSt7__cxx1112basic_stringIcSt11char_traitsIcESaIcEEEEC2ERKS1_
FN:1083,1094,_ZN9__gnu_cxx17__normal_iteratorIPKcNSt7__cxx1112basic_stringIcSt11char_traitsIcESaIcEEEEC2IPcvEERKNS0_IT_S8_EE
FN:1099,1100,_ZNK9__gnu_cxx17__normal_iteratorIPPN7testing8internal30ParameterizedTestSuiteInfoBaseESt6vectorIS4_SaIS4_EEEdeEv
FN:1099,1100,_ZNK9__gnu_cxx17__normal_iteratorIPcNSt7__cxx1112basic_stringIcSt11char_traitsIcESaIcEEEEdeEv
FN:1109,1113,_ZN9__gnu_cxx17__normal_iteratorIPPN7testing8internal30ParameterizedTestSuiteInfoBaseESt6vectorIS4_SaIS4_EEEppEv
FN:1123,1127,_ZN9__gnu_cxx17__normal_iteratorIPcNSt7__cxx1112basic_stringIcSt11char_traitsIcESaIcEEEEmmEv
FN:1162,1163,_ZNK9__gnu_cxx17__normal_iteratorIPKcNSt7__cxx1112basic_stringIcSt11char_traitsIcESaIcEEEE4baseEv
FN:1162,1163,_ZNK9__gnu_cxx17__normal_iteratorIPPN7testing8internal30ParameterizedTestSuiteInfoBaseESt6vectorIS4_SaIS4_EEE4baseEv
FN:1162,1163,_ZNK9__gnu_cxx17__normal_iteratorIPcNSt7__cxx1112basic_stringIcSt11char_traitsIcESaIcEEEE4baseEv
FN:1241,1244,_ZN9__gnu_cxxneIPPN7testing8internal30ParameterizedTestSuiteInfoBaseESt6vectorIS4_SaIS4_EEEEbRKNS_17__normal_iteratorIT_T0_EESE_
FN:1241,1244,_ZN9__gnu_cxxneIPcNSt7__cxx1112basic_stringIcSt11char_traitsIcESaIcEEEEEbRKNS_17__normal_iteratorIT_T0_EESD_
FN:1321,1329,_ZN9__gnu_cxxmiIPKcPcNSt7__cxx1112basic_stringIcSt11char_traitsIcESaIcEEEEEDTmicldtfp_4baseEcldtfp0_4baseEERKNS_17__normal_iteratorIT_T1_EERKNSB_IT0_SD_EE
FN:1334,1337,_ZN9__gnu_cxxmiIPKcNSt7__cxx1112basic_stringIcSt11char_traitsIcESaIcEEEEENS_17__normal_iteratorIT_T0_E15difference_typeERKSC_SF_
FNDA:16,_ZN9__gnu_cxx17__normal_iteratorIPPN7testing8internal30ParameterizedTestSuiteInfoBaseESt6vectorIS4_SaIS4_EEEC2ERKS5_
FNDA:394,_ZN9__gnu_cxx17__normal_iteratorIPcNSt7__cxx1112basic_stringIcSt11char_traitsIcESaIcEEEEC2ERKS1_
FNDA:8,_ZN9__gnu_cxx17__normal_iteratorIPKcNSt7__cxx1112basic_stringIcSt11char_traitsIcESaIcEEEEC2IPcvEERKNS0_IT_S8_EE
FNDA:0,_ZNK9__gnu_cxx17__normal_iteratorIPPN7testing8internal30ParameterizedTestSuiteInfoBaseESt6vectorIS4_SaIS4_EEEdeEv
FNDA:426,_ZNK9__gnu_cxx17__normal_iteratorIPcNSt7__cxx1112basic_stringIcSt11char_traitsIcESaIcEEEEdeEv
FNDA:0,_ZN9__gnu_cxx17__normal_iteratorIPPN7testing8internal30ParameterizedTestSuiteInfoBaseESt6vectorIS4_SaIS4_EEEppEv
FNDA:0,_ZN9__gnu_cxx17__normal_iteratorIPcNSt7__cxx1112basic_stringIcSt11char_traitsIcESaIcEEEEmmEv
FNDA:586,_ZNK9__gnu_cxx17__normal_iteratorIPKcNSt7__cxx1112basic_stringIcSt11char_traitsIcESaIcEEEE4baseEv
FNDA:16,_ZNK9__gnu_cxx17__normal_iteratorIPPN7testing8internal30ParameterizedTestSuiteInfoBaseESt6vectorIS4_SaIS4_EEE4baseEv
FNDA:478,_ZNK9__gnu_cxx17__normal_iteratorIPcNSt7__cxx1112basic_stringIcSt11char_traitsIcESaIcEEEE4baseEv
FNDA:8,_ZN9__gnu_cxxneIPPN7testing8internal30ParameterizedTestSuiteInfoBaseESt6vectorIS4_SaIS4_EEEEbRKNS_17__normal_iteratorIT_T0_EESE_
FNDA:0,_ZN9__gnu_cxxneIPcNSt7__cxx1112basic_stringIcSt11char_traitsIcESaIcEEEEEbRKNS_17__normal_iteratorIT_T0_EESD_
FNDA:0,_ZN9__gnu_cxxmiIPKcPcNSt7__cxx1112basic_stringIcSt11char_traitsIcESaIcEEEEEDTmicldtfp_4baseEcldtfp0_4baseEERKNS_17__normal_iteratorIT_T1_EERKNSB_IT0_SD_EE
FNDA:52,_ZN9__gnu_cxxmiIPKcNSt7__cxx1112basic_stringIcSt11char_traitsIcESaIcEEEEENS_17__normal_iteratorIT_T0_E15difference_typeERKSC_SF_
FNF:14
FNH:9
DA:1076,410
DA:1077,410
DA:1083,8
DA:1094,8
DA:1099,426
DA:1100,426
DA:1109,0
DA:1111,0
DA:1112,0
DA:1123,0
DA:1125,0
DA:1126,0
DA:1162,1080
DA:1163,1080
DA:1241,8
DA:1244,8
DA:1321,0
DA:1329,0
DA:1334,52
DA:1337,52
LF:20
LH:12
end_of_record
TN:
SF:/usr/include/c++/13/bits/stl_iterator_base_funcs.h
FN:100,107,_ZSt10__distanceIPKDiENSt15iterator_traitsIT_E15difference_typeES3_S3_St26random_access_iterator_tag
FN:100,107,_ZSt10__distanceIPKDsENSt15iterator_traitsIT_E15difference_typeES3_S3_St26random_access_iterator_tag
FN:100,107,_ZSt10__distanceIPKbENSt15iterator_traitsIT_E15difference_typeES3_S3_St26random_access_iterator_tag
FN:100,107,_ZSt10__distanceIPKcENSt15iterator_traitsIT_E15difference_typeES3_S3_St26random_access_iterator_tag
FN:100,107,_ZSt10__distanceIPKwENSt15iterator_traitsIT_E15difference_typeES3_S3_St26random_access_iterator_tag
FN:100,107,_ZSt10__distanceIPcENSt15iterator_traitsIT_E15difference_typeES2_S2_St26random_access_iterator_tag
FN:100,107,_ZSt10__distanceIPwENSt15iterator_traitsIT_E15difference_typeES2_S2_St26random_access_iterator_tag
FN:100,107,_ZSt10__distanceISt19_Bit_const_iteratorENSt15iterator_traitsIT_E15difference_typeES2_S2_St26random_access_iterator_tag
FN:148,153,_ZSt8distanceIPKDiENSt15iterator_traitsIT_E15difference_typeES3_S3_
FN:148,153,_ZSt8distanceIPKDsENSt15iterator_traitsIT_E15difference_typeES3_S3_
FN:148,153,_ZSt8distanceIPKbENSt15iterator_traitsIT_E15difference_typeES3_S3_
FN:148,153,_ZSt8distanceIPKcENSt15iterator_traitsIT_E15difference_typeES3_S3_
FN:148,153,_ZSt8distanceIPKwENSt15iterator_traitsIT_E15difference_typeES3_S3_
FN:148,153,_ZSt8distanceIPcENSt15iterator_traitsIT_E15difference_typeES2_S2_
FN:148,153,_ZSt8distanceIPwENSt15iterator_traitsIT_E15difference_typeES2_S2_
FN:148,153,_ZSt8distanceISt19_Bit_const_iteratorENSt15iterator_traitsIT_E15difference_typeES2_S2_
FNDA:0,_ZSt10__distanceIPKDiENSt15iterator_traitsIT_E15difference_typeES3_S3_St26random_access_iterator_tag
FNDA:0,_ZSt10__distanceIPKDsENSt15iterator_traitsIT_E15difference_typeES3_S3_St26random_access_iterator_tag
FNDA:0,_ZSt10__distanceIPKbENSt15iterator_traitsIT_E15difference_typeES3_S3_St26random_access_iterator_tag
FNDA:0,_ZSt10__distanceIPKcENSt15iterator_traitsIT_E15difference_typeES3_S3_St26random_access_iterator_tag
FNDA:0,_ZSt10__distanceIPKwENSt15iterator_traitsIT_E15difference_typeES3_S3_St26random_access_iterator_tag
FNDA:0,_ZSt10__distanceIPcENSt15iterator_traitsIT_E15difference_typeES2_S2_St26random_access_iterator_tag
FNDA:0,_ZSt10__distanceIPwENSt15iterator_traitsIT_E15difference_typeES2_S2_St26random_access_iterator_tag
FNDA:0,_ZSt10__distanceISt19_Bit_const_iteratorENSt15iterator_traitsIT_E15difference_typeES2_S2_St26random_access_iterator_tag
FNDA:0,_ZSt8distanceIPKDiENSt15iterator_traitsIT_E15difference_typeES3_S3_
FNDA:0,_ZSt8distanceIPKDsENSt15iterator_traitsIT_E15difference_typeES3_S3_
FNDA:0,_ZSt8distanceIPKbENSt15iterator_traitsIT_E15difference_typeES3_S3_
FNDA:0,_ZSt8distanceIPKcENSt15iterator_traitsIT_E15difference_typeES3_S3_
FNDA:0,_ZSt8distanceIPKwENSt15iterator_traitsIT_E15difference_typeES3_S3_
FNDA:0,_ZSt8distanceIPcENSt15iterator_traitsIT_E15difference_typeES2_S2_
FNDA:0,_ZSt8distanceIPwENSt15iterator_traitsIT_E15difference_typeES2_S2_
FNDA:0,_ZSt8distanceISt19_Bit_const_iteratorENSt15iterator_traitsIT_E15difference_typeES2_S2_
FNF:16
FNH:0
DA:100,0
DA:106,0
DA:148,0
DA:151,946
DA:152,946
LF:5
LH:2
end_of_record
TN:
SF:/usr/include/c++/13/bits/stl_iterator_base_types.h
FN:239,240,_ZSt19__iterator_categoryIPKDiENSt15iterator_traitsIT_E17iterator_categoryERKS3_
FN:239,240,_ZSt19__iterator_categoryIPKDsENSt15iterator_traitsIT_E17iterator_categoryERKS3_
FN:239,240,_ZSt19__iterator_categoryIPKbENSt15iterator_traitsIT_E17iterator_categoryERKS3_
FN:239,240,_ZSt19__iterator_categoryIPKcENSt15iterator_traitsIT_E17iterator_categoryERKS3_
FN:239,240,_ZSt19__iterator_categoryIPKwENSt15iterator_traitsIT_E17iterator_categoryERKS3_
FN:239,240,_ZSt19__iterator_categoryIPcENSt15iterator_traitsIT_E17iterator_categoryERKS2_
FN:239,240,_ZSt19__iterator_categoryIPwENSt15iterator_traitsIT_E17iterator_categoryERKS2_
FN:239,240,_ZSt19__iterator_categoryISt19_Bit_const_iteratorENSt15iterator_traitsIT_E17iterator_categoryERKS2_
FNDA:0,_ZSt19__iterator_categoryIPKDiENSt15iterator_traitsIT_E17iterator_categoryERKS3_
FNDA:0,_ZSt19__iterator_categoryIPKDsENSt15iterator_traitsIT_E17iterator_categoryERKS3_
FNDA:0,_ZSt19__iterator_categoryIPKbENSt15iterator_traitsIT_E17iterator_categoryERKS3_
FNDA:0,_ZSt19__iterator_categoryIPKcENSt15iterator_traitsIT_E17iterator_categoryERKS3_
FNDA:0,_ZSt19__iterator_categoryIPKwENSt15iterator_traitsIT_E17iterator_categoryERKS3_
FNDA:0,_ZSt19__iterator_categoryIPcENSt15iterator_traitsIT_E17iterator_categoryERKS2_
FNDA:0,_ZSt19__iterator_categoryIPwENSt15iterator_traitsIT_E17iterator_categoryERKS2_
FNDA:0,_ZSt19__iterator_categoryISt19_Bit_const_iteratorENSt15iterator_traitsIT_E17iterator_categoryERKS2_
FNF:8
FNH:0
DA:239,0
DA:240,484
LF:2
LH:1
end_of_record
TN:
SF:/usr/include/c++/13/bits/stl_map.h
FN:1244,1245,_ZNKSt3mapINSt7__cxx1112basic_stringIcSt11char_traitsIcESaIcEEEN7testing8internal12CodeLocationESt4lessIvESaISt4pairIKS5_S8_EEE4findERSC_
FN:1265,1266,_ZNKSt3mapINSt7__cxx1112basic_stringIcSt11char_traitsIcESaIcEEEN7testing8internal12CodeLocationESt4lessIvESaISt4pairIKS5_S8_EEE5countERSC_
FN:197,197,_ZNSt3mapINSt7__cxx1112basic_stringIcSt11char_traitsIcESaIcEEEN7testing8internal12CodeLocationESt4lessIvESaISt4pairIKS5_S8_EEEC2Ev
FN:314,314,_ZNSt3mapINSt7__cxx1112basic_stringIcSt11char_traitsIcESaIcEEEN7testing8internal12CodeLocationESt4lessIvESaISt4pairIKS5_S8_EEED2Ev
FN:395,396,_ZNKSt3mapINSt7__cxx1112basic_stringIcSt11char_traitsIcESaIcEEEN7testing8internal12CodeLocationESt4lessIvESaISt4pairIKS5_S8_EEE3endEv
FN:588,609,_ZNSt3mapINSt7__cxx1112basic_stringIcSt11char_traitsIcESaIcEEEN7testing8internal12CodeLocationESt4lessIvESaISt4pairIKS5_S8_EEE7emplaceIJRPKcS8_EEESB_ISt17_Rb_tree_iteratorISD_EbEDpOT_
FNDA:0,_ZNKSt3mapINSt7__cxx1112basic_stringIcSt11char_traitsIcESaIcEEEN7testing8internal12CodeLocationESt4lessIvESaISt4pairIKS5_S8_EEE4findERSC_
FNDA:0,_ZNKSt3mapINSt7__cxx1112basic_stringIcSt11char_traitsIcESaIcEEEN7testing8internal12CodeLocationESt4lessIvESaISt4pairIKS5_S8_EEE5countERSC_
FNDA:0,_ZNSt3mapINSt7__cxx1112basic_stringIcSt11char_traitsIcESaIcEEEN7testing8internal12CodeLocationESt4lessIvESaISt4pairIKS5_S8_EEEC2Ev
FNDA:0,_ZNSt3mapINSt7__cxx1112basic_stringIcSt11char_traitsIcESaIcEEEN7testing8internal12CodeLocationESt4lessIvESaISt4pairIKS5_S8_EEED2Ev
FNDA:0,_ZNKSt3mapINSt7__cxx1112basic_stringIcSt11char_traitsIcESaIcEEEN7testing8internal12CodeLocationESt4lessIvESaISt4pairIKS5_S8_EEE3endEv
FNDA:0,_ZNSt3mapINSt7__cxx1112basic_stringIcSt11char_traitsIcESaIcEEEN7testing8internal12CodeLocationESt4lessIvESaISt4pairIKS5_S8_EEE7emplaceIJRPKcS8_EEESB_ISt17_Rb_tree_iteratorISD_EbEDpOT_
FNF:6
FNH:0
DA:197,0
DA:314,0
DA:395,0
DA:396,0
DA:588,0
DA:594,0
DA:608,0
DA:1244,0
DA:1245,0
DA:1265,0
DA:1266,0
LF:11
LH:0
end_of_record
TN:
SF:/usr/include/c++/13/bits/stl_pair.h
FN:1014,1015,_ZNSt10__pair_getILm1EE10__move_getIRPKcRN7testing8internal12CodeLocationEEEOT0_OSt4pairIT_S9_E
FN:1040,1041,_ZSt3getILm0ERPKcRN7testing8internal12CodeLocationEEONSt13tuple_elementIXT_ESt4pairIT0_T1_EE4typeEOSB_
FN:1040,1041,_ZSt3getILm1ERPKcRN7testing8internal12CodeLocationEEONSt13tuple_elementIXT_ESt4pairIT0_T1_EE4typeEOSB_
FN:105,109,_ZNSt4_PCCILb1EKNSt7__cxx1112basic_stringIcSt11char_traitsIcESaIcEEEN7testing8internal12CodeLocationEE18_ConstructiblePairIS6_S9_EEbv
FN:105,109,_ZNSt4_PCCILb1EPSt18_Rb_tree_node_baseS1_E18_ConstructiblePairIS1_S1_EEbv
FN:105,109,_ZNSt4_PCCILb1ERPKcRN7testing8internal12CodeLocationEE18_ConstructiblePairIS2_S6_EEbv
FN:105,109,_ZNSt4_PCCILb1ESt17_Rb_tree_iteratorISt4pairIKNSt7__cxx1112basic_stringIcSt11char_traitsIcESaIcEEEN7testing8internal12CodeLocationEEEbE18_ConstructiblePairISD_bEEbv
FN:105,109,_ZNSt4_PCCILb1EbmE18_ConstructiblePairIbmEEbv
FN:112,116,_ZNSt4_PCCILb1EKNSt7__cxx1112basic_stringIcSt11char_traitsIcESaIcEEEN7testing8internal12CodeLocationEE26_ImplicitlyConvertiblePairIS6_S9_EEbv
FN:112,116,_ZNSt4_PCCILb1EPSt18_Rb_tree_node_baseS1_E26_ImplicitlyConvertiblePairIS1_S1_EEbv
FN:112,116,_ZNSt4_PCCILb1ERPKcRN7testing8internal12CodeLocationEE26_ImplicitlyConvertiblePairIS2_S6_EEbv
FN:112,116,_ZNSt4_PCCILb1ESt17_Rb_tree_iteratorISt4pairIKNSt7__cxx1112basic_stringIcSt11char_traitsIcESaIcEEEN7testing8internal12CodeLocationEEEbE26_ImplicitlyConvertiblePairISD_bEEbv
FN:112,116,_ZNSt4_PCCILb1EbmE26_ImplicitlyConvertiblePairIbmEEbv
FN:119,123,_ZNSt4_PCCILb1EKNSt7__cxx1112basic_stringIcSt11char_traitsIcESaIcEEEN7testing8internal12CodeLocationEE22_MoveConstructiblePairIRPKcS9_EEbv
FN:119,123,_ZNSt4_PCCILb1EPSt18_Rb_tree_node_baseS1_E22_MoveConstructiblePairIRPSt13_Rb_tree_nodeISt4pairIKNSt7__cxx1112basic_stringIcSt11char_traitsIcESaIcEEEN7testing8internal12CodeLocationEEERS1_EEbv
FN:119,123,_ZNSt4_PCCILb1EPSt18_Rb_tree_node_baseS1_E22_MoveConstructiblePairIRS1_iEEbv
FN:119,123,_ZNSt4_PCCILb1ERPKcRN7testing8internal12CodeLocationEE22_MoveConstructiblePairIS2_S6_EEbv
FN:119,123,_ZNSt4_PCCILb1ESt17_Rb_tree_iteratorISt4pairIKNSt7__cxx1112basic_stringIcSt11char_traitsIcESaIcEEEN7testing8internal12CodeLocationEEEbE22_MoveConstructiblePairISD_bEEbv
FN:119,123,_ZNSt4_PCCILb1EbmE22_MoveConstructiblePairIbiEEbv
FN:119,123,_ZNSt4_PCCILb1EbmE22_MoveConstructiblePairIbmEEbv
FN:126,130,_ZNSt4_PCCILb1EKNSt7__cxx1112basic_stringIcSt11char_traitsIcESaIcEEEN7testing8internal12CodeLocationEE30_ImplicitlyMoveConvertiblePairIRPKcS9_EEbv
FN:126,130,_ZNSt4_PCCILb1EPSt18_Rb_tree_node_baseS1_E30_ImplicitlyMoveConvertiblePairIRPSt13_Rb_tree_nodeISt4pairIKNSt7__cxx1112basic_stringIcSt11char_traitsIcESaIcEEEN7testing8internal12CodeLocationEEERS1_EEbv
FN:126,130,_ZNSt4_PCCILb1EPSt18_Rb_tree_node_baseS1_E30_ImplicitlyMoveConvertiblePairIRS1_iEEbv
FN:126,130,_ZNSt4_PCCILb1ERPKcRN7testing8internal12CodeLocationEE30_ImplicitlyMoveConvertiblePairIS2_S6_EEbv
FN:126,130,_ZNSt4_PCCILb1ESt17_Rb_tree_iteratorISt4pairIKNSt7__cxx1112basic_stringIcSt11char_traitsIcESaIcEEEN7testing8internal12CodeLocationEEEbE30_ImplicitlyMoveConvertiblePairISD_bEEbv
FN:126,130,_ZNSt4_PCCILb1EbmE30_ImplicitlyMoveConvertiblePairIbiEEbv
FN:126,130,_ZNSt4_PCCILb1EbmE30_ImplicitlyMoveConvertiblePairIbmEEbv
FN:137,140,_ZNSt4_PCCILb0EPSt18_Rb_tree_node_baseS1_E18_ConstructiblePairIS1_S1_EEbv
FN:143,146,_ZNSt4_PCCILb0EPSt18_Rb_tree_node_baseS1_E26_ImplicitlyConvertiblePairIS1_S1_EEbv
FN:149,152,_ZNSt4_PCCILb0EPSt18_Rb_tree_node_baseS1_E22_MoveConstructiblePairIS1_S1_EEbv
FN:155,158,_ZNSt4_PCCILb0EPSt18_Rb_tree_node_baseS1_E30_ImplicitlyMoveConvertiblePairIS1_S1_EEbv
FN:558,559,_ZNSt4pairIPSt18_Rb_tree_node_baseS1_EC2IS1_S1_Lb1EEERKS1_S5_
FN:558,559,_ZNSt4pairIRPKcRN7testing8internal12CodeLocationEEC2IS2_S6_Lb1EEES2_S6_
FN:687,689,_ZNSt4pairIKNSt7__cxx1112basic_stringIcSt11char_traitsIcESaIcEEEN7testing8internal12CodeLocationEEC2IRPKcS9_Lb1EEEOT_OT0_
FN:687,689,_ZNSt4pairIPSt18_Rb_tree_node_baseS1_EC2IRPSt13_Rb_tree_nodeIS_IKNSt7__cxx1112basic_stringIcSt11char_traitsIcESaIcEEEN7testing8internal12CodeLocationEEERS1_Lb1EEEOT_OT0_
FN:687,689,_ZNSt4pairISt17_Rb_tree_iteratorIS_IKNSt7__cxx1112basic_stringIcSt11char_traitsIcESaIcEEEN7testing8internal12CodeLocationEEEbEC2ISC_bLb1EEEOT_OT0_
FN:687,689,_ZNSt4pairIbmEC2IbiLb1EEEOT_OT0_
FN:687,689,_ZNSt4pairIbmEC2IbmLb1EEEOT_OT0_
FN:990,991,_ZNSt10__pair_getILm0EE10__move_getIRPKcRN7testing8internal12CodeLocationEEEOT_OSt4pairIS9_T0_E
FNDA:0,_ZNSt10__pair_getILm1EE10__move_getIRPKcRN7testing8internal12CodeLocationEEEOT0_OSt4pairIT_S9_E
FNDA:0,_ZSt3getILm0ERPKcRN7testing8internal12CodeLocationEEONSt13tuple_elementIXT_ESt4pairIT0_T1_EE4typeEOSB_
FNDA:0,_ZSt3getILm1ERPKcRN7testing8internal12CodeLocationEEONSt13tuple_elementIXT_ESt4pairIT0_T1_EE4typeEOSB_
FNDA:0,_ZNSt4_PCCILb1EKNSt7__cxx1112basic_stringIcSt11char_traitsIcESaIcEEEN7testing8internal12CodeLocationEE18_ConstructiblePairIS6_S9_EEbv
FNDA:0,_ZNSt4_PCCILb1EPSt18_Rb_tree_node_baseS1_E18_ConstructiblePairIS1_S1_EEbv
FNDA:0,_ZNSt4_PCCILb1ERPKcRN7testing8internal12CodeLocationEE18_ConstructiblePairIS2_S6_EEbv
FNDA:0,_ZNSt4_PCCILb1ESt17_Rb_tree_iteratorISt4pairIKNSt7__cxx1112basic_stringIcSt11char_traitsIcESaIcEEEN7testing8internal12CodeLocationEEEbE18_ConstructiblePairISD_bEEbv
FNDA:0,_ZNSt4_PCCILb1EbmE18_ConstructiblePairIbmEEbv
FNDA:0,_ZNSt4_PCCILb1EKNSt7__cxx1112basic_stringIcSt11char_traitsIcESaIcEEEN7testing8internal12CodeLocationEE26_ImplicitlyConvertiblePairIS6_S9_EEbv
FNDA:0,_ZNSt4_PCCILb1EPSt18_Rb_tree_node_baseS1_E26_ImplicitlyConvertiblePairIS1_S1_EEbv
FNDA:0,_ZNSt4_PCCILb1ERPKcRN7testing8internal12CodeLocationEE26_ImplicitlyConvertiblePairIS2_S6_EEbv
FNDA:0,_ZNSt4_PCCILb1ESt17_Rb_tree_iteratorISt4pairIKNSt7__cxx1112basic_stringIcSt11char_traitsIcESaIcEEEN7testing8internal12CodeLocationEEEbE26_ImplicitlyConvertiblePairISD_bEEbv
FNDA:0,_ZNSt4_PCCILb1EbmE26_ImplicitlyConvertiblePairIbmEEbv
FNDA:0,_ZNSt4_PCCILb1EKNSt7__cxx1112basic_stringIcSt11char_traitsIcESaIcEEEN7testing8internal12CodeLocationEE22_MoveConstructiblePairIRPKcS9_EEbv
FNDA:0,_ZNSt4_PCCILb1EPSt18_Rb_tree_node_baseS1_E22_MoveConstructiblePairIRPSt13_Rb_tree_nodeISt4pairIKNSt7__cxx1112basic_stringIcSt11char_traitsIcESaIcEEEN7testing8internal12CodeLocationEEERS1_EEbv
FNDA:0,_ZNSt4_PCCILb1EPSt18_Rb_tree_node_baseS1_E22_MoveConstructiblePairIRS1_iEEbv
FNDA:0,_ZNSt4_PCCILb1ERPKcRN7testing8internal12CodeLocationEE22_MoveConstructiblePairIS2_S6_EEbv
FNDA:0,_ZNSt4_PCCILb1ESt17_Rb_tree_iteratorISt4pairIKNSt7__cxx1112basic_stringIcSt11char_traitsIcESaIcEEEN7testing8internal12CodeLocationEEEbE22_MoveConstructiblePairISD_bEEbv
FNDA:0,_ZNSt4_PCCILb1EbmE22_MoveConstructiblePairIbiEEbv
FNDA:0,_ZNSt4_PCCILb1EbmE22_MoveConstructiblePairIbmEEbv
FNDA:0,_ZNSt4_PCCILb1EKNSt7__cxx1112basic_stringIcSt11char_traitsIcESaIcEEEN7testing8internal12CodeLocationEE30_ImplicitlyMoveConvertiblePairIRPKcS9_EEbv
FNDA:0,_ZNSt4_PCCILb1EPSt18_Rb_tree_node_baseS1_E30_ImplicitlyMoveConvertiblePairIRPSt13_Rb_tree_nodeISt4pairIKNSt7__cxx1112basic_stringIcSt11char_traitsIcESaIcEEEN7testing8internal12CodeLocationEEERS1_EEbv
FNDA:0,_ZNSt4_PCCILb1EPSt18_Rb_tree_node_baseS1_E30_ImplicitlyMoveConvertiblePairIRS1_iEEbv
FNDA:0,_ZNSt4_PCCILb1ERPKcRN7testing8internal12CodeLocationEE30_ImplicitlyMoveConvertiblePairIS2_S6_EEbv
FNDA:0,_ZNSt4_PCCILb1ESt17_Rb_tree_iteratorISt4pairIKNSt7__cxx1112basic_stringIcSt11char_traitsIcESaIcEEEN7testing8internal12CodeLocationEEEbE30_ImplicitlyMoveConvertiblePairISD_bEEbv
FNDA:0,_ZNSt4_PCCILb1EbmE30_ImplicitlyMoveConvertiblePairIbiEEbv
FNDA:0,_ZNSt4_PCCILb1EbmE30_ImplicitlyMoveConvertiblePairIbmEEbv
FNDA:0,_ZNSt4_PCCILb0EPSt18_Rb_tree_node_baseS1_E18_ConstructiblePairIS1_S1_EEbv
FNDA:0,_ZNSt4_PCCILb0EPSt18_Rb_tree_node_baseS1_E26_ImplicitlyConvertiblePairIS1_S1_EEbv
FNDA:0,_ZNSt4_PCCILb0EPSt18_Rb_tree_node_baseS1_E22_MoveConstructiblePairIS1_S1_EEbv
FNDA:0,_ZNSt4_PCCILb0EPSt18_Rb_tree_node_baseS1_E30_ImplicitlyMoveConvertiblePairIS1_S1_EEbv
FNDA:0,_ZNSt4pairIPSt18_Rb_tree_node_baseS1_EC2IS1_S1_Lb1EEERKS1_S5_
FNDA:0,_ZNSt4pairIRPKcRN7testing8internal12CodeLocationEEC2IS2_S6_Lb1EEES2_S6_
FNDA:0,_ZNSt4pairIKNSt7__cxx1112basic_stringIcSt11char_traitsIcESaIcEEEN7testing8internal12CodeLocationEEC2IRPKcS9_Lb1EEEOT_OT0_
FNDA:0,_ZNSt4pairIPSt18_Rb_tree_node_baseS1_EC2IRPSt13_Rb_tree_nodeIS_IKNSt7__cxx1112basic_stringIcSt11char_traitsIcESaIcEEEN7testing8internal12CodeLocationEEERS1_Lb1EEEOT_OT0_
FNDA:0,_ZNSt4pairISt17_Rb_tree_iteratorIS_IKNSt7__cxx1112basic_stringIcSt11char_traitsIcESaIcEEEN7testing8internal12CodeLocationEEEbEC2ISC_bLb1EEEOT_OT0_
FNDA:0,_ZNSt4pairIbmEC2IbiLb1EEEOT_OT0_
FNDA:0,_ZNSt4pairIbmEC2IbmLb1EEEOT_OT0_
FNDA:0,_ZNSt10__pair_getILm0EE10__move_getIRPKcRN7testing8internal12CodeLocationEEEOT_OSt4pairIS9_T0_E
FNF:39
FNH:0
DA:105,0
DA:108,0
DA:112,0
DA:115,0
DA:119,0
DA:122,0
DA:126,0
DA:129,0
DA:137,0
DA:139,0
DA:143,0
DA:145,0
DA:149,0
DA:151,0
DA:155,0
DA:157,0
DA:558,0
DA:559,0
DA:687,0
DA:688,0
DA:689,0
DA:990,0
DA:991,0
DA:1014,0
DA:1015,0
DA:1040,0
DA:1041,0
LF:27
LH:0
end_of_record
TN:
SF:/usr/include/c++/13/bits/stl_tree.h
FN:1009,1010,_ZNKSt8_Rb_treeINSt7__cxx1112basic_stringIcSt11char_traitsIcESaIcEEESt4pairIKS5_N7testing8internal12CodeLocationEESt10_Select1stISB_ESt4lessIvESaISB_EE3endEv
FN:112,116,_ZNSt18_Rb_tree_node_base10_S_minimumEPS_
FN:119,123,_ZNSt18_Rb_tree_node_base10_S_minimumEPKS_
FN:126,130,_ZNSt18_Rb_tree_node_base10_S_maximumEPS_
FN:133,137,_ZNSt18_Rb_tree_node_base10_S_maximumEPKS_
FN:146,150,_ZNSt20_Rb_tree_key_compareISt4lessIvEEC2Ev
FN:1635,1638,_ZNSt8_Rb_treeINSt7__cxx1112basic_stringIcSt11char_traitsIcESaIcEEESt4pairIKS5_N7testing8internal12CodeLocationEESt10_Select1stISB_ESt4lessIvESaISB_EE10_Auto_nodeC2IJRPKcSA_EEERSH_DpOT_
FN:1640,1644,_ZNSt8_Rb_treeINSt7__cxx1112basic_stringIcSt11char_traitsIcESaIcEEESt4pairIKS5_N7testing8internal12CodeLocationEESt10_Select1stISB_ESt4lessIvESaISB_EE10_Auto_nodeD2Ev
FN:1651,1652,_ZNKSt8_Rb_treeINSt7__cxx1112basic_stringIcSt11char_traitsIcESaIcEEESt4pairIKS5_N7testing8internal12CodeLocationEESt10_Select1stISB_ESt4lessIvESaISB_EE10_Auto_node6_M_keyEv
FN:1655,1660,_ZNSt8_Rb_treeINSt7__cxx1112basic_stringIcSt11char_traitsIcESaIcEEESt4pairIKS5_N7testing8internal12CodeLocationEESt10_Select1stISB_ESt4lessIvESaISB_EE10_Auto_node9_M_insertES6_IPSt18_Rb_tree_node_baseSK_E
FN:173,177,_ZNSt15_Rb_tree_headerC2Ev
FN:180,189,_ZNSt15_Rb_tree_headerC2EOS_
FN:193,203,_ZNSt15_Rb_tree_header12_M_move_dataERS_
FN:1930,1941,_ZNSt8_Rb_treeINSt7__cxx1112basic_stringIcSt11char_traitsIcESaIcEEESt4pairIKS5_N7testing8internal12CodeLocationEESt10_Select1stISB_ESt4lessIvESaISB_EE8_M_eraseEPSt13_Rb_tree_nodeISB_E
FN:1963,1973,_ZNKSt8_Rb_treeINSt7__cxx1112basic_stringIcSt11char_traitsIcESaIcEEESt4pairIKS5_N7testing8internal12CodeLocationEESt10_Select1stISB_ESt4lessIvESaISB_EE14_M_lower_boundEPKSt13_Rb_tree_nodeISB_EPKSt18_Rb_tree_node_baseRS7_
FN:206,212,_ZNSt15_Rb_tree_header8_M_resetEv
FN:2108,2132,_ZNSt8_Rb_treeINSt7__cxx1112basic_stringIcSt11char_traitsIcESaIcEEESt4pairIKS5_N7testing8internal12CodeLocationEESt10_Select1stISB_ESt4lessIvESaISB_EE24_M_get_insert_unique_posERS7_
FN:234,235,_ZNSt13_Rb_tree_nodeISt4pairIKNSt7__cxx1112basic_stringIcSt11char_traitsIcESaIcEEEN7testing8internal12CodeLocationEEE9_M_valptrEv
FN:2377,2389,_ZNSt8_Rb_treeINSt7__cxx1112basic_stringIcSt11char_traitsIcESaIcEEESt4pairIKS5_N7testing8internal12CodeLocationEESt10_Select1stISB_ESt4lessIvESaISB_EE14_M_insert_nodeEPSt18_Rb_tree_node_baseSJ_PSt13_Rb_tree_nodeISB_E
FN:238,239,_ZNKSt13_Rb_tree_nodeISt4pairIKNSt7__cxx1112basic_stringIcSt11char_traitsIcESaIcEEEN7testing8internal12CodeLocationEEE9_M_valptrEv
FN:2430,2439,_ZNSt8_Rb_treeINSt7__cxx1112basic_stringIcSt11char_traitsIcESaIcEEESt4pairIKS5_N7testing8internal12CodeLocationEESt10_Select1stISB_ESt4lessIvESaISB_EE17_M_emplace_uniqueIJRPKcSA_EEES6_ISt17_Rb_tree_iteratorISB_EbEDpOT_
FN:2542,2549,_ZNKSt8_Rb_treeINSt7__cxx1112basic_stringIcSt11char_traitsIcESaIcEEESt4pairIKS5_N7testing8internal12CodeLocationEESt10_Select1stISB_ESt4lessIvESaISB_EE4findERS7_
FN:273,274,_ZNSt17_Rb_tree_iteratorISt4pairIKNSt7__cxx1112basic_stringIcSt11char_traitsIcESaIcEEEN7testing8internal12CodeLocationEEEC2EPSt18_Rb_tree_node_base
FN:300,304,_ZNSt17_Rb_tree_iteratorISt4pairIKNSt7__cxx1112basic_stringIcSt11char_traitsIcESaIcEEEN7testing8internal12CodeLocationEEEmmEv
FN:315,316,_ZSteqRKSt17_Rb_tree_iteratorISt4pairIKNSt7__cxx1112basic_stringIcSt11char_traitsIcESaIcEEEN7testing8internal12CodeLocationEEESE_
FN:347,348,_ZNSt23_Rb_tree_const_iteratorISt4pairIKNSt7__cxx1112basic_stringIcSt11char_traitsIcESaIcEEEN7testing8internal12CodeLocationEEEC2EPKSt18_Rb_tree_node_base
FN:362,363,_ZNKSt23_Rb_tree_const_iteratorISt4pairIKNSt7__cxx1112basic_stringIcSt11char_traitsIcESaIcEEEN7testing8internal12CodeLocationEEEptEv
FN:396,397,_ZSteqRKSt23_Rb_tree_const_iteratorISt4pairIKNSt7__cxx1112basic_stringIcSt11char_traitsIcESaIcEEEN7testing8internal12CodeLocationEEESE_
FN:401,402,_ZStneRKSt23_Rb_tree_const_iteratorISt4pairIKNSt7__cxx1112basic_stringIcSt11char_traitsIcESaIcEEEN7testing8internal12CodeLocationEEESE_
FN:549,550,_ZNSt8_Rb_treeINSt7__cxx1112basic_stringIcSt11char_traitsIcESaIcEEESt4pairIKS5_N7testing8internal12CodeLocationEESt10_Select1stISB_ESt4lessIvESaISB_EE21_M_get_Node_allocatorEv
FN:562,563,_ZNSt8_Rb_treeINSt7__cxx1112basic_stringIcSt11char_traitsIcESaIcEEESt4pairIKS5_N7testing8internal12CodeLocationEESt10_Select1stISB_ESt4lessIvESaISB_EE11_M_get_nodeEv
FN:566,567,_ZNSt8_Rb_treeINSt7__cxx1112basic_stringIcSt11char_traitsIcESaIcEEESt4pairIKS5_N7testing8internal12CodeLocationEESt10_Select1stISB_ESt4lessIvESaISB_EE11_M_put_nodeEPSt13_Rb_tree_nodeISB_E
FN:592,607,_ZNSt8_Rb_treeINSt7__cxx1112basic_stringIcSt11char_traitsIcESaIcEEESt4pairIKS5_N7testing8internal12CodeLocationEESt10_Select1stISB_ESt4lessIvESaISB_EE17_M_construct_nodeIJRPKcSA_EEEvPSt13_Rb_tree_nodeISB_EDpOT_
FN:611,616,_ZNSt8_Rb_treeINSt7__cxx1112basic_stringIcSt11char_traitsIcESaIcEEESt4pairIKS5_N7testing8internal12CodeLocationEESt10_Select1stISB_ESt4lessIvESaISB_EE14_M_create_nodeIJRPKcSA_EEEPSt13_Rb_tree_nodeISB_EDpOT_
FN:620,628,_ZNSt8_Rb_treeINSt7__cxx1112basic_stringIcSt11char_traitsIcESaIcEEESt4pairIKS5_N7testing8internal12CodeLocationEESt10_Select1stISB_ESt4lessIvESaISB_EE15_M_destroy_nodeEPSt13_Rb_tree_nodeISB_E
FN:631,635,_ZNSt8_Rb_treeINSt7__cxx1112basic_stringIcSt11char_traitsIcESaIcEEESt4pairIKS5_N7testing8internal12CodeLocationEESt10_Select1stISB_ESt4lessIvESaISB_EE12_M_drop_nodeEPSt13_Rb_tree_nodeISB_E
FN:669,674,_ZNSt8_Rb_treeINSt7__cxx1112basic_stringIcSt11char_traitsIcESaIcEEESt4pairIKS5_N7testing8internal12CodeLocationEESt10_Select1stISB_ESt4lessIvESaISB_EE13_Rb_tree_implISF_Lb1EEC2Ev
FN:736,737,_ZNKSt8_Rb_treeINSt7__cxx1112basic_stringIcSt11char_traitsIcESaIcEEESt4pairIKS5_N7testing8internal12CodeLocationEESt10_Select1stISB_ESt4lessIvESaISB_EE9_M_mbeginEv
FN:740,741,_ZNSt8_Rb_treeINSt7__cxx1112basic_stringIcSt11char_traitsIcESaIcEEESt4pairIKS5_N7testing8internal12CodeLocationEESt10_Select1stISB_ESt4lessIvESaISB_EE8_M_beginEv
FN:744,748,_ZNKSt8_Rb_treeINSt7__cxx1112basic_stringIcSt11char_traitsIcESaIcEEESt4pairIKS5_N7testing8internal12CodeLocationEESt10_Select1stISB_ESt4lessIvESaISB_EE8_M_beginEv
FN:751,752,_ZNSt8_Rb_treeINSt7__cxx1112basic_stringIcSt11char_traitsIcESaIcEEESt4pairIKS5_N7testing8internal12CodeLocationEESt10_Select1stISB_ESt4lessIvESaISB_EE6_M_endEv
FN:755,756,_ZNKSt8_Rb_treeINSt7__cxx1112basic_stringIcSt11char_traitsIcESaIcEEESt4pairIKS5_N7testing8internal12CodeLocationEESt10_Select1stISB_ESt4lessIvESaISB_EE6_M_endEv
FN:759,778,_ZNSt8_Rb_treeINSt7__cxx1112basic_stringIcSt11char_traitsIcESaIcEEESt4pairIKS5_N7testing8internal12CodeLocationEESt10_Select1stISB_ESt4lessIvESaISB_EE6_S_keyEPKSt13_Rb_tree_nodeISB_E
FN:781,782,_ZNSt8_Rb_treeINSt7__cxx1112basic_stringIcSt11char_traitsIcESaIcEEESt4pairIKS5_N7testing8internal12CodeLocationEESt10_Select1stISB_ESt4lessIvESaISB_EE7_S_leftEPSt18_Rb_tree_node_base
FN:785,786,_ZNSt8_Rb_treeINSt7__cxx1112basic_stringIcSt11char_traitsIcESaIcEEESt4pairIKS5_N7testing8internal12CodeLocationEESt10_Select1stISB_ESt4lessIvESaISB_EE7_S_leftEPKSt18_Rb_tree_node_base
FN:789,790,_ZNSt8_Rb_treeINSt7__cxx1112basic_stringIcSt11char_traitsIcESaIcEEESt4pairIKS5_N7testing8internal12CodeLocationEESt10_Select1stISB_ESt4lessIvESaISB_EE8_S_rightEPSt18_Rb_tree_node_base
FN:793,794,_ZNSt8_Rb_treeINSt7__cxx1112basic_stringIcSt11char_traitsIcESaIcEEESt4pairIKS5_N7testing8internal12CodeLocationEESt10_Select1stISB_ESt4lessIvESaISB_EE8_S_rightEPKSt18_Rb_tree_node_base
FN:797,798,_ZNSt8_Rb_treeINSt7__cxx1112basic_stringIcSt11char_traitsIcESaIcEEESt4pairIKS5_N7testing8internal12CodeLocationEESt10_Select1stISB_ESt4lessIvESaISB_EE6_S_keyEPKSt18_Rb_tree_node_base
FN:930,930,_ZNSt8_Rb_treeINSt7__cxx1112basic_stringIcSt11char_traitsIcESaIcEEESt4pairIKS5_N7testing8internal12CodeLocationEESt10_Select1stISB_ESt4lessIvESaISB_EEC2Ev
FN:985,986,_ZNSt8_Rb_treeINSt7__cxx1112basic_stringIcSt11char_traitsIcESaIcEEESt4pairIKS5_N7testing8internal12CodeLocationEESt10_Select1stISB_ESt4lessIvESaISB_EED2Ev
FN:997,998,_ZNSt8_Rb_treeINSt7__cxx1112basic_stringIcSt11char_traitsIcESaIcEEESt4pairIKS5_N7testing8internal12CodeLocationEESt10_Select1stISB_ESt4lessIvESaISB_EE5beginEv
FNDA:0,_ZNKSt8_Rb_treeINSt7__cxx1112basic_stringIcSt11char_traitsIcESaIcEEESt4pairIKS5_N7testing8internal12CodeLocationEESt10_Select1stISB_ESt4lessIvESaISB_EE3endEv
FNDA:0,_ZNSt18_Rb_tree_node_base10_S_minimumEPS_
FNDA:0,_ZNSt18_Rb_tree_node_base10_S_minimumEPKS_
FNDA:0,_ZNSt18_Rb_tree_node_base10_S_maximumEPS_
FNDA:0,_ZNSt18_Rb_tree_node_base10_S_maximumEPKS_
FNDA:0,_ZNSt20_Rb_tree_key_compareISt4lessIvEEC2Ev
FNDA:0,_ZNSt8_Rb_treeINSt7__cxx1112basic_stringIcSt11char_traitsIcESaIcEEESt4pairIKS5_N7testing8internal12CodeLocationEESt10_Select1stISB_ESt4lessIvESaISB_EE10_Auto_nodeC2IJRPKcSA_EEERSH_DpOT_
FNDA:0,_ZNSt8_Rb_treeINSt7__cxx1112basic_stringIcSt11char_traitsIcESaIcEEESt4pairIKS5_N7testing8internal12CodeLocationEESt10_Select1stISB_ESt4lessIvESaISB_EE10_Auto_nodeD2Ev
FNDA:0,_ZNKSt8_Rb_treeINSt7__cxx1112basic_stringIcSt11char_traitsIcESaIcEEESt4pairIKS5_N7testing8internal12CodeLocationEESt10_Select1stISB_ESt4lessIvESaISB_EE10_Auto_node6_M_keyEv
FNDA:0,_ZNSt8_Rb_treeINSt7__cxx1112basic_stringIcSt11char_traitsIcESaIcEEESt4pairIKS5_N7testing8internal12CodeLocationEESt10_Select1stISB_ESt4lessIvESaISB_EE10_Auto_node9_M_insertES6_IPSt18_Rb_tree_node_baseSK_E
FNDA:8,_ZNSt15_Rb_tree_headerC2Ev
FNDA:0,_ZNSt15_Rb_tree_headerC2EOS_
FNDA:0,_ZNSt15_Rb_tree_header12_M_move_dataERS_
FNDA:0,_ZNSt8_Rb_treeINSt7__cxx1112basic_stringIcSt11char_traitsIcESaIcEEESt4pairIKS5_N7testing8internal12CodeLocationEESt10_Select1stISB_ESt4lessIvESaISB_EE8_M_eraseEPSt13_Rb_tree_nodeISB_E
FNDA:0,_ZNKSt8_Rb_treeINSt7__cxx1112basic_stringIcSt11char_traitsIcESaIcEEESt4pairIKS5_N7testing8internal12CodeLocationEESt10_Select1stISB_ESt4lessIvESaISB_EE14_M_lower_boundEPKSt13_Rb_tree_nodeISB_EPKSt18_Rb_tree_node_baseRS7_
FNDA:8,_ZNSt15_Rb_tree_header8_M_resetEv
FNDA:0,_ZNSt8_Rb_treeINSt7__cxx1112basic_stringIcSt11char_traitsIcESaIcEEESt4pairIKS5_N7testing8internal12CodeLocationEESt10_Select1stISB_ESt4lessIvESaISB_EE24_M_get_insert_unique_posERS7_
FNDA:0,_ZNSt13_Rb_tree_nodeISt4pairIKNSt7__cxx1112basic_stringIcSt11char_traitsIcESaIcEEEN7testing8internal12CodeLocationEEE9_M_valptrEv
FNDA:0,_ZNSt8_Rb_treeINSt7__cxx1112basic_stringIcSt11char_traitsIcESaIcEEESt4pairIKS5_N7testing8internal12CodeLocationEESt10_Select1stISB_ESt4lessIvESaISB_EE14_M_insert_nodeEPSt18_Rb_tree_node_baseSJ_PSt13_Rb_tree_nodeISB_E
FNDA:0,_ZNKSt13_Rb_tree_nodeISt4pairIKNSt7__cxx1112basic_stringIcSt11char_traitsIcESaIcEEEN7testing8internal12CodeLocationEEE9_M_valptrEv
FNDA:0,_ZNSt8_Rb_treeINSt7__cxx1112basic_stringIcSt11char_traitsIcESaIcEEESt4pairIKS5_N7testing8internal12CodeLocationEESt10_Select1stISB_ESt4lessIvESaISB_EE17_M_emplace_uniqueIJRPKcSA_EEES6_ISt17_Rb_tree_iteratorISB_EbEDpOT_
FNDA:0,_ZNKSt8_Rb_treeINSt7__cxx1112basic_stringIcSt11char_traitsIcESaIcEEESt4pairIKS5_N7testing8internal12CodeLocationEESt10_Select1stISB_ESt4lessIvESaISB_EE4findERS7_
FNDA:0,_ZNSt17_Rb_tree_iteratorISt4pairIKNSt7__cxx1112basic_stringIcSt11char_traitsIcESaIcEEEN7testing8internal12CodeLocationEEEC2EPSt18_Rb_tree_node_base
FNDA:0,_ZNSt17_Rb_tree_iteratorISt4pairIKNSt7__cxx1112basic_stringIcSt11char_traitsIcESaIcEEEN7testing8internal12CodeLocationEEEmmEv
FNDA:0,_ZSteqRKSt17_Rb_tree_iteratorISt4pairIKNSt7__cxx1112basic_stringIcSt11char_traitsIcESaIcEEEN7testing8internal12CodeLocationEEESE_
FNDA:0,_ZNSt23_Rb_tree_const_iteratorISt4pairIKNSt7__cxx1112basic_stringIcSt11char_traitsIcESaIcEEEN7testing8internal12CodeLocationEEEC2EPKSt18_Rb_tree_node_base
FNDA:0,_ZNKSt23_Rb_tree_const_iteratorISt4pairIKNSt7__cxx1112basic_stringIcSt11char_traitsIcESaIcEEEN7testing8internal12CodeLocationEEEptEv
FNDA:0,_ZSteqRKSt23_Rb_tree_const_iteratorISt4pairIKNSt7__cxx1112basic_stringIcSt11char_traitsIcESaIcEEEN7testing8internal12CodeLocationEEESE_
FNDA:0,_ZStneRKSt23_Rb_tree_const_iteratorISt4pairIKNSt7__cxx1112basic_stringIcSt11char_traitsIcESaIcEEEN7testing8internal12CodeLocationEEESE_
FNDA:0,_ZNSt8_Rb_treeINSt7__cxx1112basic_stringIcSt11char_traitsIcESaIcEEESt4pairIKS5_N7testing8internal12CodeLocationEESt10_Select1stISB_ESt4lessIvESaISB_EE21_M_get_Node_allocatorEv
FNDA:0,_ZNSt8_Rb_treeINSt7__cxx1112basic_stringIcSt11char_traitsIcESaIcEEESt4pairIKS5_N7testing8internal12CodeLocationEESt10_Select1stISB_ESt4lessIvESaISB_EE11_M_get_nodeEv
FNDA:0,_ZNSt8_Rb_treeINSt7__cxx1112basic_stringIcSt11char_traitsIcESaIcEEESt4pairIKS5_N7testing8internal12CodeLocationEESt10_Select1stISB_ESt4lessIvESaISB_EE11_M_put_nodeEPSt13_Rb_tree_nodeISB_E
FNDA:0,_ZNSt8_Rb_treeINSt7__cxx1112basic_stringIcSt11char_traitsIcESaIcEEESt4pairIKS5_N7testing8internal12CodeLocationEESt10_Select1stISB_ESt4lessIvESaISB_EE17_M_construct_nodeIJRPKcSA_EEEvPSt13_Rb_tree_nodeISB_EDpOT_
FNDA:0,_ZNSt8_Rb_treeINSt7__cxx1112basic_stringIcSt11char_traitsIcESaIcEEESt4pairIKS5_N7testing8internal12CodeLocationEESt10_Select1stISB_ESt4lessIvESaISB_EE14_M_create_nodeIJRPKcSA_EEEPSt13_Rb_tree_nodeISB_EDpOT_
FNDA:0,_ZNSt8_Rb_treeINSt7__cxx1112basic_stringIcSt11char_traitsIcESaIcEEESt4pairIKS5_N7testing8internal12CodeLocationEESt10_Select1stISB_ESt4lessIvESaISB_EE15_M_destroy_nodeEPSt13_Rb_tree_nodeISB_E
FNDA:0,_ZNSt8_Rb_treeINSt7__cxx1112basic_stringIcSt11char_traitsIcESaIcEEESt4pairIKS5_N7testing8internal12CodeLocationEESt10_Select1stISB_ESt4lessIvESaISB_EE12_M_drop_nodeEPSt13_Rb_tree_nodeISB_E
FNDA:0,_ZNSt8_Rb_treeINSt7__cxx1112basic_stringIcSt11char_traitsIcESaIcEEESt4pairIKS5_N7testing8internal12CodeLocationEESt10_Select1stISB_ESt4lessIvESaISB_EE13_Rb_tree_implISF_Lb1EEC2Ev
FNDA:0,_ZNKSt8_Rb_treeINSt7__cxx1112basic_stringIcSt11char_traitsIcESaIcEEESt4pairIKS5_N7testing8internal12CodeLocationEESt10_Select1stISB_ESt4lessIvESaISB_EE9_M_mbeginEv
FNDA:0,_ZNSt8_Rb_treeINSt7__cxx1112basic_stringIcSt11char_traitsIcESaIcEEESt4pairIKS5_N7testing8internal12CodeLocationEESt10_Select1stISB_ESt4lessIvESaISB_EE8_M_beginEv
FNDA:0,_ZNKSt8_Rb_treeINSt7__cxx1112basic_stringIcSt11char_traitsIcESaIcEEESt4pairIKS5_N7testing8internal12CodeLocationEESt10_Select1stISB_ESt4lessIvESaISB_EE8_M_beginEv
FNDA:0,_ZNSt8_Rb_treeINSt7__cxx1112basic_stringIcSt11char_traitsIcESaIcEEESt4pairIKS5_N7testing8internal12CodeLocationEESt10_Select1stISB_ESt4lessIvESaISB_EE6_M_endEv
FNDA:0,_ZNKSt8_Rb_treeINSt7__cxx1112basic_stringIcSt11char_traitsIcESaIcEEESt4pairIKS5_N7testing8internal12CodeLocationEESt10_Select1stISB_ESt4lessIvESaISB_EE6_M_endEv
FNDA:0,_ZNSt8_Rb_treeINSt7__cxx1112basic_stringIcSt11char_traitsIcESaIcEEESt4pairIKS5_N7testing8internal12CodeLocationEESt10_Select1stISB_ESt4lessIvESaISB_EE6_S_keyEPKSt13_Rb_tree_nodeISB_E
FNDA:0,_ZNSt8_Rb_treeINSt7__cxx1112basic_stringIcSt11char_traitsIcESaIcEEESt4pairIKS5_N7testing8internal12CodeLocationEESt10_Select1stISB_ESt4lessIvESaISB_EE7_S_leftEPSt18_Rb_tree_node_base
FNDA:0,_ZNSt8_Rb_treeINSt7__cxx1112basic_stringIcSt11char_traitsIcESaIcEEESt4pairIKS5_N7testing8internal12CodeLocationEESt10_Select1stISB_ESt4lessIvESaISB_EE7_S_leftEPKSt18_Rb_tree_node_base
FNDA:0,_ZNSt8_Rb_treeINSt7__cxx1112basic_stringIcSt11char_traitsIcESaIcEEESt4pairIKS5_N7testing8internal12CodeLocationEESt10_Select1stISB_ESt4lessIvESaISB_EE8_S_rightEPSt18_Rb_tree_node_base
FNDA:0,_ZNSt8_Rb_treeINSt7__cxx1112basic_stringIcSt11char_traitsIcESaIcEEESt4pairIKS5_N7testing8internal12CodeLocationEESt10_Select1stISB_ESt4lessIvESaISB_EE8_S_rightEPKSt18_Rb_tree_node_base
FNDA:0,_ZNSt8_Rb_treeINSt7__cxx1112basic_stringIcSt11char_traitsIcESaIcEEESt4pairIKS5_N7testing8internal12CodeLocationEESt10_Select1stISB_ESt4lessIvESaISB_EE6_S_keyEPKSt18_Rb_tree_node_base
FNDA:0,_ZNSt8_Rb_treeINSt7__cxx1112basic_stringIcSt11char_traitsIcESaIcEEESt4pairIKS5_N7testing8internal12CodeLocationEESt10_Select1stISB_ESt4lessIvESaISB_EEC2Ev
FNDA:0,_ZNSt8_Rb_treeINSt7__cxx1112basic_stringIcSt11char_traitsIcESaIcEEESt4pairIKS5_N7testing8internal12CodeLocationEESt10_Select1stISB_ESt4lessIvESaISB_EED2Ev
FNDA:0,_ZNSt8_Rb_treeINSt7__cxx1112basic_stringIcSt11char_traitsIcESaIcEEESt4pairIKS5_N7testing8internal12CodeLocationEESt10_Select1stISB_ESt4lessIvESaISB_EE5beginEv
FNF:51
FNH:2
DA:112,0
DA:114,0
DA:115,0
DA:119,0
DA:121,0
DA:122,0
DA:126,0
DA:128,0
DA:129,0
DA:133,0
DA:135,0
DA:136,0
DA:146,0
DA:150,0
DA:173,8
DA:174,8
DA:175,8
DA:176,8
DA:177,8
DA:180,0
DA:181,0
DA:182,0
DA:183,0
DA:186,0
DA:187,0
DA:189,0
DA:193,0
DA:195,0
DA:196,0
DA:197,0
DA:198,0
DA:199,0
DA:200,0
DA:202,0
DA:203,0
DA:206,8
DA:208,8
DA:209,8
DA:210,8
DA:211,8
DA:212,8
DA:234,0
DA:235,0
DA:238,0
DA:239,0
DA:273,0
DA:274,0
DA:300,0
DA:302,0
DA:303,0
DA:315,0
DA:316,0
DA:347,0
DA:348,0
DA:362,0
DA:363,0
DA:396,0
DA:397,0
DA:401,0
DA:402,0
DA:549,0
DA:550,0
DA:562,0
DA:563,0
DA:566,0
DA:567,0
DA:592,0
DA:596,0
DA:597,0
DA:601,0
DA:603,0
DA:604,0
DA:605,0
DA:607,0
DA:611,0
DA:613,0
DA:614,0
DA:615,0
DA:620,0
DA:625,0
DA:626,0
DA:628,0
DA:631,0
DA:633,0
DA:634,0
DA:635,0
DA:669,0
DA:673,0
DA:674,0
DA:736,0
DA:737,0
DA:740,0
DA:741,0
DA:744,0
DA:747,0
DA:751,0
DA:752,0
DA:755,0
DA:756,0
DA:759,0
DA:777,0
DA:781,0
DA:782,0
DA:785,0
DA:786,0
DA:789,0
DA:790,0
DA:793,0
DA:794,0
DA:797,0
DA:798,0
DA:930,0
DA:985,0
DA:986,0
DA:997,0
DA:998,0
DA:1009,0
DA:1010,0
DA:1635,0
DA:1636,0
DA:1637,0
DA:1638,0
DA:1640,0
DA:1642,0
DA:1643,0
DA:1644,0
DA:1651,0
DA:1652,0
DA:1655,0
DA:1657,0
DA:1658,0
DA:1659,0
DA:1930,0
DA:1934,0
DA:1936,0
DA:1937,0
DA:1938,0
DA:1939,0
DA:1941,0
DA:1963,0
DA:1967,0
DA:1968,0
DA:1969,0
DA:1971,0
DA:1972,0
DA:2108,0
DA:2112,0
DA:2113,0
DA:2114,0
DA:2115,0
DA:2117,0
DA:2118,0
DA:2119,0
DA:2121,0
DA:2122,0
DA:2124,0
DA:2125,0
DA:2127,0
DA:2129,0
DA:2130,0
DA:2131,0
DA:2377,0
DA:2381,0
DA:2382,0
DA:2385,0
DA:2386,0
DA:2387,0
DA:2388,0
DA:2430,0
DA:2434,0
DA:2435,0
DA:2436,0
DA:2437,0
DA:2438,0
DA:2439,0
DA:2542,0
DA:2545,0
DA:2546,0
DA:2547,0
DA:2548,0
LF:180
LH:11
end_of_record
TN:
SF:/usr/include/c++/13/bits/stl_vector.h
FN:137,143,_ZNSt12_Vector_baseIiSaIiEE12_Vector_implC2Ev
FN:301,302,_ZNSt12_Vector_baseIPN7testing8internal30ParameterizedTestSuiteInfoBaseESaIS3_EE19_M_get_Tp_allocatorEv
FN:301,302,_ZNSt12_Vector_baseIiSaIiEE19_M_get_Tp_allocatorEv
FN:315,315,_ZNSt12_Vector_baseIiSaIiEEC2Ev
FN:367,371,_ZNSt12_Vector_baseIPN7testing8internal30ParameterizedTestSuiteInfoBaseESaIS3_EED2Ev
FN:367,371,_ZNSt12_Vector_baseIiSaIiEED2Ev
FN:386,391,_ZNSt12_Vector_baseIPN7testing8internal30ParameterizedTestSuiteInfoBaseESaIS3_EE13_M_deallocateEPS3_m
FN:386,391,_ZNSt12_Vector_baseIiSaIiEE13_M_deallocateEPim
FN:531,531,_ZNSt6vectorIiSaIiEEC2Ev
FN:733,738,_ZNSt6vectorIPN7testing8internal30ParameterizedTestSuiteInfoBaseESaIS3_EED2Ev
FN:733,738,_ZNSt6vectorIiSaIiEED2Ev
FN:873,874,_ZNSt6vectorIPN7testing8internal30ParameterizedTestSuiteInfoBaseESaIS3_EE5beginEv
FN:893,894,_ZNSt6vectorIPN7testing8internal30ParameterizedTestSuiteInfoBaseESaIS3_EE3endEv
FN:99,101,_ZNSt12_Vector_baseIiSaIiEE17_Vector_impl_dataC2Ev
FNDA:5,_ZNSt12_Vector_baseIiSaIiEE12_Vector_implC2Ev
FNDA:4,_ZNSt12_Vector_baseIPN7testing8internal30ParameterizedTestSuiteInfoBaseESaIS3_EE19_M_get_Tp_allocatorEv
FNDA:25,_ZNSt12_Vector_baseIiSaIiEE19_M_get_Tp_allocatorEv
FNDA:5,_ZNSt12_Vector_baseIiSaIiEEC2Ev
FNDA:4,_ZNSt12_Vector_baseIPN7testing8internal30ParameterizedTestSuiteInfoBaseESaIS3_EED2Ev
FNDA:5,_ZNSt12_Vector_baseIiSaIiEED2Ev
FNDA:4,_ZNSt12_Vector_baseIPN7testing8internal30ParameterizedTestSuiteInfoBaseESaIS3_EE13_M_deallocateEPS3_m
FNDA:15,_ZNSt12_Vector_baseIiSaIiEE13_M_deallocateEPim
FNDA:5,_ZNSt6vectorIiSaIiEEC2Ev
FNDA:4,_ZNSt6vectorIPN7testing8internal30ParameterizedTestSuiteInfoBaseESaIS3_EED2Ev
FNDA:5,_ZNSt6vectorIiSaIiEED2Ev
FNDA:8,_ZNSt6vectorIPN7testing8internal30ParameterizedTestSuiteInfoBaseESaIS3_EE5beginEv
FNDA:8,_ZNSt6vectorIPN7testing8internal30ParameterizedTestSuiteInfoBaseESaIS3_EE3endEv
FNDA:5,_ZNSt12_Vector_baseIiSaIiEE17_Vector_impl_dataC2Ev
FNF:14
FNH:14
DA:99,5
DA:100,5
DA:101,5
DA:137,5
DA:142,5
DA:143,5
DA:301,29
DA:302,29
DA:315,5
DA:367,9
DA:369,9
DA:370,9
DA:371,9
DA:386,19
DA:389,19
DA:390,10
DA:391,19
DA:531,5
DA:733,9
DA:735,9
DA:736,9
DA:738,9
DA:873,8
DA:874,8
DA:893,8
DA:894,8
LF:26
LH:26
end_of_record
TN:
SF:/usr/include/c++/13/bits/unique_lock.h
FN:103,107,_ZNSt11unique_lockISt5mutexED2Ev
FN:133,144,_ZNSt11unique_lockISt5mutexE4lockEv
FN:194,203,_ZNSt11unique_lockISt5mutexE6unlockEv
FN:68,73,_ZNSt11unique_lockISt5mutexEC2ERS0_
FNDA:0,_ZNSt11unique_lockISt5mutexED2Ev
FNDA:0,_ZNSt11unique_lockISt5mutexE4lockEv
FNDA:0,_ZNSt11unique_lockISt5mutexE6unlockEv
FNDA:0,_ZNSt11unique_lockISt5mutexEC2ERS0_
FNF:4
FNH:0
DA:68,0
DA:69,0
DA:71,0
DA:72,0
DA:73,0
DA:103,0
DA:105,0
DA:106,0
DA:107,0
DA:133,0
DA:135,0
DA:136,0
DA:137,0
DA:138,0
DA:141,0
DA:142,0
DA:144,0
DA:194,0
DA:196,0
DA:197,0
DA:198,0
DA:200,0
DA:201,0
DA:203,0
LF:24
LH:0
end_of_record
TN:
SF:/usr/include/c++/13/bits/unique_ptr.h
FN:1069,1070,_ZSt11make_uniqueINSt7__cxx1112basic_stringIcSt11char_traitsIcESaIcEEEJEENSt8__detail9_MakeUniqIT_E15__single_objectEDpOT0_
FN:174,174,_ZNSt15__uniq_ptr_implIKbSt14default_deleteIS0_EEC2Ev
FN:174,174,_ZNSt15__uniq_ptr_implINSt7__cxx1112basic_stringIcSt11char_traitsIcESaIcEEESt14default_deleteIS5_EEC2Ev
FN:176,176,_ZNSt15__uniq_ptr_implIKN7testing16MatcherInterfaceINSt7__cxx1112basic_stringIcSt11char_traitsIcESaIcEEEEESt14default_deleteIS9_EEC2EPS9_
FN:176,176,_ZNSt15__uniq_ptr_implIKN7testing16MatcherInterfaceIRKNSt7__cxx1112basic_stringIcSt11char_traitsIcESaIcEEEEESt14default_deleteISB_EEC2EPSB_
FN:176,176,_ZNSt15__uniq_ptr_implIKN7testing16MatcherInterfaceIRKSt17basic_string_viewIcSt11char_traitsIcEEEESt14default_deleteIS9_EEC2EPS9_
FN:176,176,_ZNSt15__uniq_ptr_implIKN7testing16MatcherInterfaceISt17basic_string_viewIcSt11char_traitsIcEEEESt14default_deleteIS7_EEC2EPS7_
FN:176,176,_ZNSt15__uniq_ptr_implINSt7__cxx1112basic_stringIcSt11char_traitsIcESaIcEEESt14default_deleteIS5_EEC2EPS5_
FN:176,176,_ZNSt15__uniq_ptr_implINSt7__cxx1118basic_stringstreamIcSt11char_traitsIcESaIcEEESt14default_deleteIS5_EEC2EPS5_
FN:184,186,_ZNSt15__uniq_ptr_implIKN7testing16MatcherInterfaceINSt7__cxx1112basic_stringIcSt11char_traitsIcESaIcEEEEESt14default_deleteIS9_EEC2EOSC_
FN:184,186,_ZNSt15__uniq_ptr_implIKN7testing16MatcherInterfaceIRKNSt7__cxx1112basic_stringIcSt11char_traitsIcESaIcEEEEESt14default_deleteISB_EEC2EOSE_
FN:184,186,_ZNSt15__uniq_ptr_implIKN7testing16MatcherInterfaceIRKSt17basic_string_viewIcSt11char_traitsIcEEEESt14default_deleteIS9_EEC2EOSC_
FN:184,186,_ZNSt15__uniq_ptr_implIKN7testing16MatcherInterfaceISt17basic_string_viewIcSt11char_traitsIcEEEESt14default_deleteIS7_EEC2EOSA_
FN:189,194,_ZNSt15__uniq_ptr_implINSt7__cxx1112basic_stringIcSt11char_traitsIcESaIcEEESt14default_deleteIS5_EEaSEOS8_
FN:197,197,_ZNSt15__uniq_ptr_implIKN7testing16MatcherInterfaceINSt7__cxx1112basic_stringIcSt11char_traitsIcESaIcEEEEESt14default_deleteIS9_EE6_M_ptrEv
FN:197,197,_ZNSt15__uniq_ptr_implIKN7testing16MatcherInterfaceIRKNSt7__cxx1112basic_stringIcSt11char_traitsIcESaIcEEEEESt14default_deleteISB_EE6_M_ptrEv
FN:197,197,_ZNSt15__uniq_ptr_implIKN7testing16MatcherInterfaceIRKSt17basic_string_viewIcSt11char_traitsIcEEEESt14default_deleteIS9_EE6_M_ptrEv
FN:197,197,_ZNSt15__uniq_ptr_implIKN7testing16MatcherInterfaceISt17basic_string_viewIcSt11char_traitsIcEEEESt14default_deleteIS7_EE6_M_ptrEv
FN:197,197,_ZNSt15__uniq_ptr_implIKbSt14default_deleteIS0_EE6_M_ptrEv
FN:197,197,_ZNSt15__uniq_ptr_implINSt7__cxx1112basic_stringIcSt11char_traitsIcESaIcEEESt14default_deleteIS5_EE6_M_ptrEv
FN:197,197,_ZNSt15__uniq_ptr_implINSt7__cxx1118basic_stringstreamIcSt11char_traitsIcESaIcEEESt14default_deleteIS5_EE6_M_ptrEv
FN:199,199,_ZNKSt15__uniq_ptr_implIKN7testing16MatcherInterfaceINSt7__cxx1112basic_stringIcSt11char_traitsIcESaIcEEEEESt14default_deleteIS9_EE6_M_ptrEv
FN:199,199,_ZNKSt15__uniq_ptr_implIKN7testing16MatcherInterfaceIRKNSt7__cxx1112basic_stringIcSt11char_traitsIcESaIcEEEEESt14default_deleteISB_EE6_M_ptrEv
FN:199,199,_ZNKSt15__uniq_ptr_implIKN7testing16MatcherInterfaceIRKSt17basic_string_viewIcSt11char_traitsIcEEEESt14default_deleteIS9_EE6_M_ptrEv
FN:199,199,_ZNKSt15__uniq_ptr_implIKN7testing16MatcherInterfaceISt17basic_string_viewIcSt11char_traitsIcEEEESt14default_deleteIS7_EE6_M_ptrEv
FN:199,199,_ZNKSt15__uniq_ptr_implIKNSt7__cxx1112basic_stringIcSt11char_traitsIcESaIcEEESt14default_deleteIS6_EE6_M_ptrEv
FN:199,199,_ZNKSt15__uniq_ptr_implIKbSt14default_deleteIS0_EE6_M_ptrEv
FN:199,199,_ZNKSt15__uniq_ptr_implINSt7__cxx1112basic_stringIcSt11char_traitsIcESaIcEEESt14default_deleteIS5_EE6_M_ptrEv
FN:199,199,_ZNKSt15__uniq_ptr_implINSt7__cxx1118basic_stringstreamIcSt11char_traitsIcESaIcEEESt14default_deleteIS5_EE6_M_ptrEv
FN:201,201,_ZNSt15__uniq_ptr_implIKN7testing16MatcherInterfaceINSt7__cxx1112basic_stringIcSt11char_traitsIcESaIcEEEEESt14default_deleteIS9_EE10_M_deleterEv
FN:201,201,_ZNSt15__uniq_ptr_implIKN7testing16MatcherInterfaceIRKNSt7__cxx1112basic_stringIcSt11char_traitsIcESaIcEEEEESt14default_deleteISB_EE10_M_deleterEv
FN:201,201,_ZNSt15__uniq_ptr_implIKN7testing16MatcherInterfaceIRKSt17basic_string_viewIcSt11char_traitsIcEEEESt14default_deleteIS9_EE10_M_deleterEv
FN:201,201,_ZNSt15__uniq_ptr_implIKN7testing16MatcherInterfaceISt17basic_string_viewIcSt11char_traitsIcEEEESt14default_deleteIS7_EE10_M_deleterEv
FN:201,201,_ZNSt15__uniq_ptr_implIKbSt14default_deleteIS0_EE10_M_deleterEv
FN:201,201,_ZNSt15__uniq_ptr_implINSt7__cxx1112basic_stringIcSt11char_traitsIcESaIcEEESt14default_deleteIS5_EE10_M_deleterEv
FN:201,201,_ZNSt15__uniq_ptr_implINSt7__cxx1118basic_stringstreamIcSt11char_traitsIcESaIcEEESt14default_deleteIS5_EE10_M_deleterEv
FN:206,212,_ZNSt15__uniq_ptr_implIKbSt14default_deleteIS0_EE5resetEPS0_
FN:206,212,_ZNSt15__uniq_ptr_implINSt7__cxx1112basic_stringIcSt11char_traitsIcESaIcEEESt14default_deleteIS5_EE5resetEPS5_
FN:215,220,_ZNSt15__uniq_ptr_implINSt7__cxx1112basic_stringIcSt11char_traitsIcESaIcEEESt14default_deleteIS5_EE7releaseEv
FN:242,242,_ZNSt15__uniq_ptr_dataIKN7testing16MatcherInterfaceINSt7__cxx1112basic_stringIcSt11char_traitsIcESaIcEEEEESt14default_deleteIS9_ELb1ELb1EEC2EOSC_
FN:242,242,_ZNSt15__uniq_ptr_dataIKN7testing16MatcherInterfaceIRKNSt7__cxx1112basic_stringIcSt11char_traitsIcESaIcEEEEESt14default_deleteISB_ELb1ELb1EEC2EOSE_
FN:242,242,_ZNSt15__uniq_ptr_dataIKN7testing16MatcherInterfaceIRKSt17basic_string_viewIcSt11char_traitsIcEEEESt14default_deleteIS9_ELb1ELb1EEC2EOSC_
FN:242,242,_ZNSt15__uniq_ptr_dataIKN7testing16MatcherInterfaceISt17basic_string_viewIcSt11char_traitsIcEEEESt14default_deleteIS7_ELb1ELb1EEC2EOSA_
FN:243,243,_ZNSt15__uniq_ptr_dataINSt7__cxx1112basic_stringIcSt11char_traitsIcESaIcEEESt14default_deleteIS5_ELb1ELb1EEaSEOS8_
FN:304,306,_ZNSt10unique_ptrIKbSt14default_deleteIS0_EEC2IS2_vEEv
FN:304,306,_ZNSt10unique_ptrINSt7__cxx1112basic_stringIcSt11char_traitsIcESaIcEEESt14default_deleteIS5_EEC2IS7_vEEv
FN:317,319,_ZNSt10unique_ptrIKN7testing16MatcherInterfaceINSt7__cxx1112basic_stringIcSt11char_traitsIcESaIcEEEEESt14default_deleteIS9_EEC2ISB_vEEPS9_
FN:317,319,_ZNSt10unique_ptrIKN7testing16MatcherInterfaceIRKNSt7__cxx1112basic_stringIcSt11char_traitsIcESaIcEEEEESt14default_deleteISB_EEC2ISD_vEEPSB_
FN:317,319,_ZNSt10unique_ptrIKN7testing16MatcherInterfaceIRKSt17basic_string_viewIcSt11char_traitsIcEEEESt14default_deleteIS9_EEC2ISB_vEEPS9_
FN:317,319,_ZNSt10unique_ptrIKN7testing16MatcherInterfaceISt17basic_string_viewIcSt11char_traitsIcEEEESt14default_deleteIS7_EEC2IS9_vEEPS7_
FN:317,319,_ZNSt10unique_ptrINSt7__cxx1112basic_stringIcSt11char_traitsIcESaIcEEESt14default_deleteIS5_EEC2IS7_vEEPS5_
FN:317,319,_ZNSt10unique_ptrINSt7__cxx1118basic_stringstreamIcSt11char_traitsIcESaIcEEESt14default_deleteIS5_EEC2IS7_vEEPS5_
FN:366,366,_ZNSt10unique_ptrIKN7testing16MatcherInterfaceINSt7__cxx1112basic_stringIcSt11char_traitsIcESaIcEEEEESt14default_deleteIS9_EEC2EOSC_
FN:366,366,_ZNSt10unique_ptrIKN7testing16MatcherInterfaceIRKNSt7__cxx1112basic_stringIcSt11char_traitsIcESaIcEEEEESt14default_deleteISB_EEC2EOSE_
FN:366,366,_ZNSt10unique_ptrIKN7testing16MatcherInterfaceIRKSt17basic_string_viewIcSt11char_traitsIcEEEESt14default_deleteIS9_EEC2EOSC_
FN:366,366,_ZNSt10unique_ptrIKN7testing16MatcherInterfaceISt17basic_string_viewIcSt11char_traitsIcEEEESt14default_deleteIS7_EEC2EOSA_
FN:398,406,_ZNSt10unique_ptrIKN7testing16MatcherInterfaceINSt7__cxx1112basic_stringIcSt11char_traitsIcESaIcEEEEESt14default_deleteIS9_EED2Ev
FN:398,406,_ZNSt10unique_ptrIKN7testing16MatcherInterfaceIRKNSt7__cxx1112basic_stringIcSt11char_traitsIcESaIcEEEEESt14default_deleteISB_EED2Ev
FN:398,406,_ZNSt10unique_ptrIKN7testing16MatcherInterfaceIRKSt17basic_string_viewIcSt11char_traitsIcEEEESt14default_deleteIS9_EED2Ev
FN:398,406,_ZNSt10unique_ptrIKN7testing16MatcherInterfaceISt17basic_string_viewIcSt11char_traitsIcEEEESt14default_deleteIS7_EED2Ev
FN:398,406,_ZNSt10unique_ptrIKbSt14default_deleteIS0_EED2Ev
FN:398,406,_ZNSt10unique_ptrINSt7__cxx1112basic_stringIcSt11char_traitsIcESaIcEEESt14default_deleteIS5_EED2Ev
FN:398,406,_ZNSt10unique_ptrINSt7__cxx1118basic_stringstreamIcSt11char_traitsIcESaIcEEESt14default_deleteIS5_EED2Ev
FN:414,414,_ZNSt10unique_ptrINSt7__cxx1112basic_stringIcSt11char_traitsIcESaIcEEESt14default_deleteIS5_EEaSEOS8_
FN:451,455,_ZNKSt10unique_ptrIKN7testing16MatcherInterfaceINSt7__cxx1112basic_stringIcSt11char_traitsIcESaIcEEEEESt14default_deleteIS9_EEdeEv
FN:451,455,_ZNKSt10unique_ptrIKN7testing16MatcherInterfaceIRKNSt7__cxx1112basic_stringIcSt11char_traitsIcESaIcEEEEESt14default_deleteISB_EEdeEv
FN:451,455,_ZNKSt10unique_ptrIKN7testing16MatcherInterfaceIRKSt17basic_string_viewIcSt11char_traitsIcEEEESt14default_deleteIS9_EEdeEv
FN:451,455,_ZNKSt10unique_ptrIKN7testing16MatcherInterfaceISt17basic_string_viewIcSt11char_traitsIcEEEESt14default_deleteIS7_EEdeEv
FN:451,455,_ZNKSt10unique_ptrINSt7__cxx1118basic_stringstreamIcSt11char_traitsIcESaIcEEESt14default_deleteIS5_EEdeEv
FN:460,464,_ZNKSt10unique_ptrIKNSt7__cxx1112basic_stringIcSt11char_traitsIcESaIcEEESt14default_deleteIS6_EEptEv
FN:460,464,_ZNKSt10unique_ptrINSt7__cxx1112basic_stringIcSt11char_traitsIcESaIcEEESt14default_deleteIS5_EEptEv
FN:469,470,_ZNKSt10unique_ptrIKN7testing16MatcherInterfaceINSt7__cxx1112basic_stringIcSt11char_traitsIcESaIcEEEEESt14default_deleteIS9_EE3getEv
FN:469,470,_ZNKSt10unique_ptrIKN7testing16MatcherInterfaceIRKNSt7__cxx1112basic_stringIcSt11char_traitsIcESaIcEEEEESt14default_deleteISB_EE3getEv
FN:469,470,_ZNKSt10unique_ptrIKN7testing16MatcherInterfaceIRKSt17basic_string_viewIcSt11char_traitsIcEEEESt14default_deleteIS9_EE3getEv
FN:469,470,_ZNKSt10unique_ptrIKN7testing16MatcherInterfaceISt17basic_string_viewIcSt11char_traitsIcEEEESt14default_deleteIS7_EE3getEv
FN:469,470,_ZNKSt10unique_ptrIKNSt7__cxx1112basic_stringIcSt11char_traitsIcESaIcEEESt14default_deleteIS6_EE3getEv
FN:469,470,_ZNKSt10unique_ptrIKbSt14default_deleteIS0_EE3getEv
FN:469,470,_ZNKSt10unique_ptrINSt7__cxx1112basic_stringIcSt11char_traitsIcESaIcEEESt14default_deleteIS5_EE3getEv
FN:469,470,_ZNKSt10unique_ptrINSt7__cxx1118basic_stringstreamIcSt11char_traitsIcESaIcEEESt14default_deleteIS5_EE3getEv
FN:475,476,_ZNSt10unique_ptrIKN7testing16MatcherInterfaceINSt7__cxx1112basic_stringIcSt11char_traitsIcESaIcEEEEESt14default_deleteIS9_EE11get_deleterEv
FN:475,476,_ZNSt10unique_ptrIKN7testing16MatcherInterfaceIRKNSt7__cxx1112basic_stringIcSt11char_traitsIcESaIcEEEEESt14default_deleteISB_EE11get_deleterEv
FN:475,476,_ZNSt10unique_ptrIKN7testing16MatcherInterfaceIRKSt17basic_string_viewIcSt11char_traitsIcEEEESt14default_deleteIS9_EE11get_deleterEv
FN:475,476,_ZNSt10unique_ptrIKN7testing16MatcherInterfaceISt17basic_string_viewIcSt11char_traitsIcEEEESt14default_deleteIS7_EE11get_deleterEv
FN:475,476,_ZNSt10unique_ptrIKbSt14default_deleteIS0_EE11get_deleterEv
FN:475,476,_ZNSt10unique_ptrINSt7__cxx1112basic_stringIcSt11char_traitsIcESaIcEEESt14default_deleteIS5_EE11get_deleterEv
FN:475,476,_ZNSt10unique_ptrINSt7__cxx1118basic_stringstreamIcSt11char_traitsIcESaIcEEESt14default_deleteIS5_EE11get_deleterEv
FN:486,487,_ZNKSt10unique_ptrIKNSt7__cxx1112basic_stringIcSt11char_traitsIcESaIcEEESt14default_deleteIS6_EEcvbEv
FN:486,487,_ZNKSt10unique_ptrINSt7__cxx1112basic_stringIcSt11char_traitsIcESaIcEEESt14default_deleteIS5_EEcvbEv
FN:505,510,_ZNSt10unique_ptrIKbSt14default_deleteIS0_EE5resetEPS0_
FN:837,838,_ZSteqINSt7__cxx1112basic_stringIcSt11char_traitsIcESaIcEEESt14default_deleteIS5_EEbRKSt10unique_ptrIT_T0_EDn
FN:861,862,_ZStneIKNSt7__cxx1112basic_stringIcSt11char_traitsIcESaIcEEESt14default_deleteIS6_EEbRKSt10unique_ptrIT_T0_EDn
FN:861,862,_ZStneINSt7__cxx1112basic_stringIcSt11char_traitsIcESaIcEEESt14default_deleteIS5_EEbRKSt10unique_ptrIT_T0_EDn
FN:93,100,_ZNKSt14default_deleteIKN7testing16MatcherInterfaceINSt7__cxx1112basic_stringIcSt11char_traitsIcESaIcEEEEEEclEPS9_
FN:93,100,_ZNKSt14default_deleteIKN7testing16MatcherInterfaceIRKNSt7__cxx1112basic_stringIcSt11char_traitsIcESaIcEEEEEEclEPSB_
FN:93,100,_ZNKSt14default_deleteIKN7testing16MatcherInterfaceIRKSt17basic_string_viewIcSt11char_traitsIcEEEEEclEPS9_
FN:93,100,_ZNKSt14default_deleteIKN7testing16MatcherInterfaceISt17basic_string_viewIcSt11char_traitsIcEEEEEclEPS7_
FN:93,100,_ZNKSt14default_deleteIKbEclEPS0_
FN:93,100,_ZNKSt14default_deleteINSt7__cxx1112basic_stringIcSt11char_traitsIcESaIcEEEEclEPS5_
FN:93,100,_ZNKSt14default_deleteINSt7__cxx1118basic_stringstreamIcSt11char_traitsIcESaIcEEEEclEPS5_
FNDA:0,_ZSt11make_uniqueINSt7__cxx1112basic_stringIcSt11char_traitsIcESaIcEEEJEENSt8__detail9_MakeUniqIT_E15__single_objectEDpOT0_
FNDA:0,_ZNSt15__uniq_ptr_implIKbSt14default_deleteIS0_EEC2Ev
FNDA:146,_ZNSt15__uniq_ptr_implINSt7__cxx1112basic_stringIcSt11char_traitsIcESaIcEEESt14default_deleteIS5_EEC2Ev
FNDA:0,_ZNSt15__uniq_ptr_implIKN7testing16MatcherInterfaceINSt7__cxx1112basic_stringIcSt11char_traitsIcESaIcEEEEESt14default_deleteIS9_EEC2EPS9_
FNDA:0,_ZNSt15__uniq_ptr_implIKN7testing16MatcherInterfaceIRKNSt7__cxx1112basic_stringIcSt11char_traitsIcESaIcEEEEESt14default_deleteISB_EEC2EPSB_
FNDA:0,_ZNSt15__uniq_ptr_implIKN7testing16MatcherInterfaceIRKSt17basic_string_viewIcSt11char_traitsIcEEEESt14default_deleteIS9_EEC2EPS9_
FNDA:0,_ZNSt15__uniq_ptr_implIKN7testing16MatcherInterfaceISt17basic_string_viewIcSt11char_traitsIcEEEESt14default_deleteIS7_EEC2EPS7_
FNDA:0,_ZNSt15__uniq_ptr_implINSt7__cxx1112basic_stringIcSt11char_traitsIcESaIcEEESt14default_deleteIS5_EEC2EPS5_
FNDA:253,_ZNSt15__uniq_ptr_implINSt7__cxx1118basic_stringstreamIcSt11char_traitsIcESaIcEEESt14default_deleteIS5_EEC2EPS5_
FNDA:0,_ZNSt15__uniq_ptr_implIKN7testing16MatcherInterfaceINSt7__cxx1112basic_stringIcSt11char_traitsIcESaIcEEEEESt14default_deleteIS9_EEC2EOSC_
FNDA:0,_ZNSt15__uniq_ptr_implIKN7testing16MatcherInterfaceIRKNSt7__cxx1112basic_stringIcSt11char_traitsIcESaIcEEEEESt14default_deleteISB_EEC2EOSE_
FNDA:0,_ZNSt15__uniq_ptr_implIKN7testing16MatcherInterfaceIRKSt17basic_string_viewIcSt11char_traitsIcEEEESt14default_deleteIS9_EEC2EOSC_
FNDA:0,_ZNSt15__uniq_ptr_implIKN7testing16MatcherInterfaceISt17basic_string_viewIcSt11char_traitsIcEEEESt14default_deleteIS7_EEC2EOSA_
FNDA:0,_ZNSt15__uniq_ptr_implINSt7__cxx1112basic_stringIcSt11char_traitsIcESaIcEEESt14default_deleteIS5_EEaSEOS8_
FNDA:0,_ZNSt15__uniq_ptr_implIKN7testing16MatcherInterfaceINSt7__cxx1112basic_stringIcSt11char_traitsIcESaIcEEEEESt14default_deleteIS9_EE6_M_ptrEv
FNDA:0,_ZNSt15__uniq_ptr_implIKN7testing16MatcherInterfaceIRKNSt7__cxx1112basic_stringIcSt11char_traitsIcESaIcEEEEESt14default_deleteISB_EE6_M_ptrEv
FNDA:0,_ZNSt15__uniq_ptr_implIKN7testing16MatcherInterfaceIRKSt17basic_string_viewIcSt11char_traitsIcEEEESt14default_deleteIS9_EE6_M_ptrEv
FNDA:0,_ZNSt15__uniq_ptr_implIKN7testing16MatcherInterfaceISt17basic_string_viewIcSt11char_traitsIcEEEESt14default_deleteIS7_EE6_M_ptrEv
FNDA:0,_ZNSt15__uniq_ptr_implIKbSt14default_deleteIS0_EE6_M_ptrEv
FNDA:146,_ZNSt15__uniq_ptr_implINSt7__cxx1112basic_stringIcSt11char_traitsIcESaIcEEESt14default_deleteIS5_EE6_M_ptrEv
FNDA:506,_ZNSt15__uniq_ptr_implINSt7__cxx1118basic_stringstreamIcSt11char_traitsIcESaIcEEESt14default_deleteIS5_EE6_M_ptrEv
FNDA:0,_ZNKSt15__uniq_ptr_implIKN7testing16MatcherInterfaceINSt7__cxx1112basic_stringIcSt11char_traitsIcESaIcEEEEESt14default_deleteIS9_EE6_M_ptrEv
FNDA:0,_ZNKSt15__uniq_ptr_implIKN7testing16MatcherInterfaceIRKNSt7__cxx1112basic_stringIcSt11char_traitsIcESaIcEEEEESt14default_deleteISB_EE6_M_ptrEv
FNDA:0,_ZNKSt15__uniq_ptr_implIKN7testing16MatcherInterfaceIRKSt17basic_string_viewIcSt11char_traitsIcEEEESt14default_deleteIS9_EE6_M_ptrEv
FNDA:0,_ZNKSt15__uniq_ptr_implIKN7testing16MatcherInterfaceISt17basic_string_viewIcSt11char_traitsIcEEEESt14default_deleteIS7_EE6_M_ptrEv
FNDA:122,_ZNKSt15__uniq_ptr_implIKNSt7__cxx1112basic_stringIcSt11char_traitsIcESaIcEEESt14default_deleteIS6_EE6_M_ptrEv
FNDA:0,_ZNKSt15__uniq_ptr_implIKbSt14default_deleteIS0_EE6_M_ptrEv
FNDA:0,_ZNKSt15__uniq_ptr_implINSt7__cxx1112basic_stringIcSt11char_traitsIcESaIcEEESt14default_deleteIS5_EE6_M_ptrEv
FNDA:2527,_ZNKSt15__uniq_ptr_implINSt7__cxx1118basic_stringstreamIcSt11char_traitsIcESaIcEEESt14default_deleteIS5_EE6_M_ptrEv
FNDA:0,_ZNSt15__uniq_ptr_implIKN7testing16MatcherInterfaceINSt7__cxx1112basic_stringIcSt11char_traitsIcESaIcEEEEESt14default_deleteIS9_EE10_M_deleterEv
FNDA:0,_ZNSt15__uniq_ptr_implIKN7testing16MatcherInterfaceIRKNSt7__cxx1112basic_stringIcSt11char_traitsIcESaIcEEEEESt14default_deleteISB_EE10_M_deleterEv
FNDA:0,_ZNSt15__uniq_ptr_implIKN7testing16MatcherInterfaceIRKSt17basic_string_viewIcSt11char_traitsIcEEEESt14default_deleteIS9_EE10_M_deleterEv
FNDA:0,_ZNSt15__uniq_ptr_implIKN7testing16MatcherInterfaceISt17basic_string_viewIcSt11char_traitsIcEEEESt14default_deleteIS7_EE10_M_deleterEv
FNDA:0,_ZNSt15__uniq_ptr_implIKbSt14default_deleteIS0_EE10_M_deleterEv
FNDA:0,_ZNSt15__uniq_ptr_implINSt7__cxx1112basic_stringIcSt11char_traitsIcESaIcEEESt14default_deleteIS5_EE10_M_deleterEv
FNDA:253,_ZNSt15__uniq_ptr_implINSt7__cxx1118basic_stringstreamIcSt11char_traitsIcESaIcEEESt14default_deleteIS5_EE10_M_deleterEv
FNDA:0,_ZNSt15__uniq_ptr_implIKbSt14default_deleteIS0_EE5resetEPS0_
FNDA:0,_ZNSt15__uniq_ptr_implINSt7__cxx1112basic_stringIcSt11char_traitsIcESaIcEEESt14default_deleteIS5_EE5resetEPS5_
FNDA:0,_ZNSt15__uniq_ptr_implINSt7__cxx1112basic_stringIcSt11char_traitsIcESaIcEEESt14default_deleteIS5_EE7releaseEv
FNDA:0,_ZNSt15__uniq_ptr_dataIKN7testing16MatcherInterfaceINSt7__cxx1112basic_stringIcSt11char_traitsIcESaIcEEEEESt14default_deleteIS9_ELb1ELb1EEC2EOSC_
FNDA:0,_ZNSt15__uniq_ptr_dataIKN7testing16MatcherInterfaceIRKNSt7__cxx1112basic_stringIcSt11char_traitsIcESaIcEEEEESt14default_deleteISB_ELb1ELb1EEC2EOSE_
FNDA:0,_ZNSt15__uniq_ptr_dataIKN7testing16MatcherInterfaceIRKSt17basic_string_viewIcSt11char_traitsIcEEEESt14default_deleteIS9_ELb1ELb1EEC2EOSC_
FNDA:0,_ZNSt15__uniq_ptr_dataIKN7testing16MatcherInterfaceISt17basic_string_viewIcSt11char_traitsIcEEEESt14default_deleteIS7_ELb1ELb1EEC2EOSA_
FNDA:0,_ZNSt15__uniq_ptr_dataINSt7__cxx1112basic_stringIcSt11char_traitsIcESaIcEEESt14default_deleteIS5_ELb1ELb1EEaSEOS8_
FNDA:0,_ZNSt10unique_ptrIKbSt14default_deleteIS0_EEC2IS2_vEEv
FNDA:146,_ZNSt10unique_ptrINSt7__cxx1112basic_stringIcSt11char_traitsIcESaIcEEESt14default_deleteIS5_EEC2IS7_vEEv
FNDA:0,_ZNSt10unique_ptrIKN7testing16MatcherInterfaceINSt7__cxx1112basic_stringIcSt11char_traitsIcESaIcEEEEESt14default_deleteIS9_EEC2ISB_vEEPS9_
FNDA:0,_ZNSt10unique_ptrIKN7testing16MatcherInterfaceIRKNSt7__cxx1112basic_stringIcSt11char_traitsIcESaIcEEEEESt14default_deleteISB_EEC2ISD_vEEPSB_
FNDA:0,_ZNSt10unique_ptrIKN7testing16MatcherInterfaceIRKSt17basic_string_viewIcSt11char_traitsIcEEEESt14default_deleteIS9_EEC2ISB_vEEPS9_
FNDA:0,_ZNSt10unique_ptrIKN7testing16MatcherInterfaceISt17basic_string_viewIcSt11char_traitsIcEEEESt14default_deleteIS7_EEC2IS9_vEEPS7_
FNDA:0,_ZNSt10unique_ptrINSt7__cxx1112basic_stringIcSt11char_traitsIcESaIcEEESt14default_deleteIS5_EEC2IS7_vEEPS5_
FNDA:253,_ZNSt10unique_ptrINSt7__cxx1118basic_stringstreamIcSt11char_traitsIcESaIcEEESt14default_deleteIS5_EEC2IS7_vEEPS5_
FNDA:0,_ZNSt10unique_ptrIKN7testing16MatcherInterfaceINSt7__cxx1112basic_stringIcSt11char_traitsIcESaIcEEEEESt14default_deleteIS9_EEC2EOSC_
FNDA:0,_ZNSt10unique_ptrIKN7testing16MatcherInterfaceIRKNSt7__cxx1112basic_stringIcSt11char_traitsIcESaIcEEEEESt14default_deleteISB_EEC2EOSE_
FNDA:0,_ZNSt10unique_ptrIKN7testing16MatcherInterfaceIRKSt17basic_string_viewIcSt11char_traitsIcEEEESt14default_deleteIS9_EEC2EOSC_
FNDA:0,_ZNSt10unique_ptrIKN7testing16MatcherInterfaceISt17basic_string_viewIcSt11char_traitsIcEEEESt14default_deleteIS7_EEC2EOSA_
FNDA:0,_ZNSt10unique_ptrIKN7testing16MatcherInterfaceINSt7__cxx1112basic_stringIcSt11char_traitsIcESaIcEEEEESt14default_deleteIS9_EED2Ev
FNDA:0,_ZNSt10unique_ptrIKN7testing16MatcherInterfaceIRKNSt7__cxx1112basic_stringIcSt11char_traitsIcESaIcEEEEESt14default_deleteISB_EED2Ev
FNDA:0,_ZNSt10unique_ptrIKN7testing16MatcherInterfaceIRKSt17basic_string_viewIcSt11char_traitsIcEEEESt14default_deleteIS9_EED2Ev
FNDA:0,_ZNSt10unique_ptrIKN7testing16MatcherInterfaceISt17basic_string_viewIcSt11char_traitsIcEEEESt14default_deleteIS7_EED2Ev
FNDA:0,_ZNSt10unique_ptrIKbSt14default_deleteIS0_EED2Ev
FNDA:146,_ZNSt10unique_ptrINSt7__cxx1112basic_stringIcSt11char_traitsIcESaIcEEESt14default_deleteIS5_EED2Ev
FNDA:253,_ZNSt10unique_ptrINSt7__cxx1118basic_stringstreamIcSt11char_traitsIcESaIcEEESt14default_deleteIS5_EED2Ev
FNDA:0,_ZNSt10unique_ptrINSt7__cxx1112basic_stringIcSt11char_traitsIcESaIcEEESt14default_deleteIS5_EEaSEOS8_
FNDA:0,_ZNKSt10unique_ptrIKN7testing16MatcherInterfaceINSt7__cxx1112basic_stringIcSt11char_traitsIcESaIcEEEEESt14default_deleteIS9_EEdeEv
FNDA:0,_ZNKSt10unique_ptrIKN7testing16MatcherInterfaceIRKNSt7__cxx1112basic_stringIcSt11char_traitsIcESaIcEEEEESt14default_deleteISB_EEdeEv
FNDA:0,_ZNKSt10unique_ptrIKN7testing16MatcherInterfaceIRKSt17basic_string_viewIcSt11char_traitsIcEEEESt14default_deleteIS9_EEdeEv
FNDA:0,_ZNKSt10unique_ptrIKN7testing16MatcherInterfaceISt17basic_string_viewIcSt11char_traitsIcEEEESt14default_deleteIS7_EEdeEv
FNDA:2274,_ZNKSt10unique_ptrINSt7__cxx1118basic_stringstreamIcSt11char_traitsIcESaIcEEESt14default_deleteIS5_EEdeEv
FNDA:0,_ZNKSt10unique_ptrIKNSt7__cxx1112basic_stringIcSt11char_traitsIcESaIcEEESt14default_deleteIS6_EEptEv
FNDA:0,_ZNKSt10unique_ptrINSt7__cxx1112basic_stringIcSt11char_traitsIcESaIcEEESt14default_deleteIS5_EEptEv
FNDA:0,_ZNKSt10unique_ptrIKN7testing16MatcherInterfaceINSt7__cxx1112basic_stringIcSt11char_traitsIcESaIcEEEEESt14default_deleteIS9_EE3getEv
FNDA:0,_ZNKSt10unique_ptrIKN7testing16MatcherInterfaceIRKNSt7__cxx1112basic_stringIcSt11char_traitsIcESaIcEEEEESt14default_deleteISB_EE3getEv
FNDA:0,_ZNKSt10unique_ptrIKN7testing16MatcherInterfaceIRKSt17basic_string_viewIcSt11char_traitsIcEEEESt14default_deleteIS9_EE3getEv
FNDA:0,_ZNKSt10unique_ptrIKN7testing16MatcherInterfaceISt17basic_string_viewIcSt11char_traitsIcEEEESt14default_deleteIS7_EE3getEv
FNDA:122,_ZNKSt10unique_ptrIKNSt7__cxx1112basic_stringIcSt11char_traitsIcESaIcEEESt14default_deleteIS6_EE3getEv
FNDA:0,_ZNKSt10unique_ptrIKbSt14default_deleteIS0_EE3getEv
FNDA:0,_ZNKSt10unique_ptrINSt7__cxx1112basic_stringIcSt11char_traitsIcESaIcEEESt14default_deleteIS5_EE3getEv
FNDA:2527,_ZNKSt10unique_ptrINSt7__cxx1118basic_stringstreamIcSt11char_traitsIcESaIcEEESt14default_deleteIS5_EE3getEv
FNDA:0,_ZNSt10unique_ptrIKN7testing16MatcherInterfaceINSt7__cxx1112basic_stringIcSt11char_traitsIcESaIcEEEEESt14default_deleteIS9_EE11get_deleterEv
FNDA:0,_ZNSt10unique_ptrIKN7testing16MatcherInterfaceIRKNSt7__cxx1112basic_stringIcSt11char_traitsIcESaIcEEEEESt14default_deleteISB_EE11get_deleterEv
FNDA:0,_ZNSt10unique_ptrIKN7testing16MatcherInterfaceIRKSt17basic_string_viewIcSt11char_traitsIcEEEESt14default_deleteIS9_EE11get_deleterEv
FNDA:0,_ZNSt10unique_ptrIKN7testing16MatcherInterfaceISt17basic_string_viewIcSt11char_traitsIcEEEESt14default_deleteIS7_EE11get_deleterEv
FNDA:0,_ZNSt10unique_ptrIKbSt14default_deleteIS0_EE11get_deleterEv
FNDA:0,_ZNSt10unique_ptrINSt7__cxx1112basic_stringIcSt11char_traitsIcESaIcEEESt14default_deleteIS5_EE11get_deleterEv
FNDA:253,_ZNSt10unique_ptrINSt7__cxx1118basic_stringstreamIcSt11char_traitsIcESaIcEEESt14default_deleteIS5_EE11get_deleterEv
FNDA:122,_ZNKSt10unique_ptrIKNSt7__cxx1112basic_stringIcSt11char_traitsIcESaIcEEESt14default_deleteIS6_EEcvbEv
FNDA:0,_ZNKSt10unique_ptrINSt7__cxx1112basic_stringIcSt11char_traitsIcESaIcEEESt14default_deleteIS5_EEcvbEv
FNDA:0,_ZNSt10unique_ptrIKbSt14default_deleteIS0_EE5resetEPS0_
FNDA:0,_ZSteqINSt7__cxx1112basic_stringIcSt11char_traitsIcESaIcEEESt14default_deleteIS5_EEbRKSt10unique_ptrIT_T0_EDn
FNDA:122,_ZStneIKNSt7__cxx1112basic_stringIcSt11char_traitsIcESaIcEEESt14default_deleteIS6_EEbRKSt10unique_ptrIT_T0_EDn
FNDA:0,_ZStneINSt7__cxx1112basic_stringIcSt11char_traitsIcESaIcEEESt14default_deleteIS5_EEbRKSt10unique_ptrIT_T0_EDn
FNDA:0,_ZNKSt14default_deleteIKN7testing16MatcherInterfaceINSt7__cxx1112basic_stringIcSt11char_traitsIcESaIcEEEEEEclEPS9_
FNDA:0,_ZNKSt14default_deleteIKN7testing16MatcherInterfaceIRKNSt7__cxx1112basic_stringIcSt11char_traitsIcESaIcEEEEEEclEPSB_
FNDA:0,_ZNKSt14default_deleteIKN7testing16MatcherInterfaceIRKSt17basic_string_viewIcSt11char_traitsIcEEEEEclEPS9_
FNDA:0,_ZNKSt14default_deleteIKN7testing16MatcherInterfaceISt17basic_string_viewIcSt11char_traitsIcEEEEEclEPS7_
FNDA:0,_ZNKSt14default_deleteIKbEclEPS0_
FNDA:0,_ZNKSt14default_deleteINSt7__cxx1112basic_stringIcSt11char_traitsIcESaIcEEEEclEPS5_
FNDA:253,_ZNKSt14default_deleteINSt7__cxx1118basic_stringstreamIcSt11char_traitsIcESaIcEEEEclEPS5_
FNF:99
FNH:18
DA:93,253
DA:99,253
DA:100,253
DA:174,146
DA:176,253
DA:184,0
DA:185,0
DA:186,0
DA:189,0
DA:191,0
DA:192,0
DA:193,0
DA:197,652
DA:199,2649
DA:201,253
DA:206,0
DA:208,0
DA:209,0
DA:210,0
DA:211,0
DA:212,0
DA:215,0
DA:217,0
DA:218,0
DA:219,0
DA:242,0
DA:243,0
DA:304,146
DA:305,146
DA:306,146
DA:317,253
DA:318,253
DA:319,253
DA:366,0
DA:398,399
DA:402,399
DA:403,399
DA:404,253
DA:405,399
DA:406,399
DA:414,0
DA:451,2274
DA:453,2274
DA:454,2274
DA:460,0
DA:463,0
DA:469,2649
DA:470,2649
DA:475,253
DA:476,253
DA:486,122
DA:487,122
DA:505,0
DA:509,0
DA:510,0
DA:837,0
DA:838,0
DA:861,122
DA:862,122
DA:1069,0
DA:1070,0
LF:61
LH:31
end_of_record
TN:
SF:/usr/include/c++/13/bits/unordered_map.h
FNF:0
FNH:0
LF:0
LH:0
end_of_record
TN:
SF:/usr/include/c++/13/bits/uses_allocator.h
FN:81,81,_ZNSt13__uses_alloc05_SinkaSEPKv
FNDA:0,_ZNSt13__uses_alloc05_SinkaSEPKv
FNF:1
FNH:0
DA:81,0
LF:1
LH:0
end_of_record
TN:
SF:/usr/include/c++/13/condition_variable
FN:102,106,_ZNSt18condition_variable4waitIZN7testing8internal12Notification19WaitForNotificationEvEUlvE_EEvRSt11unique_lockISt5mutexET_
FN:184,185,_ZNSt18condition_variable13native_handleEv
FN:285,285,_ZNSt3_V222condition_variable_anyC2Ev
FN:292,296,_ZNSt3_V222condition_variable_any10notify_oneEv
FN:299,303,_ZNSt3_V222condition_variable_any10notify_allEv
FNDA:0,_ZNSt18condition_variable4waitIZN7testing8internal12Notification19WaitForNotificationEvEUlvE_EEvRSt11unique_lockISt5mutexET_
FNDA:0,_ZNSt18condition_variable13native_handleEv
FNDA:0,_ZNSt3_V222condition_variable_anyC2Ev
FNDA:0,_ZNSt3_V222condition_variable_any10notify_oneEv
FNDA:0,_ZNSt3_V222condition_variable_any10notify_allEv
FNF:5
FNH:0
DA:102,0
DA:104,0
DA:105,0
DA:106,0
DA:184,0
DA:185,0
DA:285,0
DA:292,0
DA:294,0
DA:295,0
DA:296,0
DA:299,0
DA:301,0
DA:302,0
DA:303,0
LF:15
LH:0
end_of_record
TN:
SF:/usr/include/c++/13/cstddef
FN:135,136,_ZStorSt4byteS_
FN:140,141,_ZStanSt4byteS_
FN:145,146,_ZSteoSt4byteS_
FN:150,151,_ZStcoSt4byte
FN:167,168,_ZStoRRSt4byteS_
FN:172,173,_ZStaNRSt4byteS_
FN:177,178,_ZSteORSt4byteS_
FNDA:0,_ZStorSt4byteS_
FNDA:0,_ZStanSt4byteS_
FNDA:0,_ZSteoSt4byteS_
FNDA:0,_ZStcoSt4byte
FNDA:0,_ZStoRRSt4byteS_
FNDA:0,_ZStaNRSt4byteS_
FNDA:0,_ZSteORSt4byteS_
FNF:7
FNH:0
DA:135,0
DA:136,0
DA:140,0
DA:141,0
DA:145,0
DA:146,0
DA:150,0
DA:151,0
DA:167,0
DA:168,0
DA:172,0
DA:173,0
DA:177,0
DA:178,0
LF:14
LH:0
end_of_record
TN:
SF:/usr/include/c++/13/cstdlib
FN:181,181,_ZSt3divll
FN:217,218,_ZN9__gnu_cxx3divExx
FNDA:0,_ZSt3divll
FNDA:0,_ZN9__gnu_cxx3divExx
FNF:2
FNH:0
DA:181,0
DA:217,0
DA:218,0
LF:3
LH:0
end_of_record
TN:
SF:/usr/include/c++/13/cxxabi.h
FN:223,223,_ZN10__cxxabiv123__fundamental_type_infoC2EPKc
FN:234,234,_ZN10__cxxabiv117__array_type_infoC2EPKc
FN:245,245,_ZN10__cxxabiv120__function_type_infoC2EPKc
FN:261,261,_ZN10__cxxabiv116__enum_type_infoC2EPKc
FN:275,278,_ZN10__cxxabiv117__pbase_type_infoC2EPKciPKSt9type_info
FN:311,317,_ZNK10__cxxabiv117__pbase_type_info15__pointer_catchEPKS0_PPvj
FN:324,326,_ZN10__cxxabiv119__pointer_type_infoC2EPKciPKSt9type_info
FN:351,354,_ZN10__cxxabiv129__pointer_to_member_type_infoC2EPKciPKSt9type_infoPNS_17__class_type_infoE
FN:392,393,_ZNK10__cxxabiv122__base_class_type_info14__is_virtual_pEv
FN:396,397,_ZNK10__cxxabiv122__base_class_type_info13__is_public_pEv
FN:400,406,_ZNK10__cxxabiv122__base_class_type_info8__offsetEv
FN:414,414,_ZN10__cxxabiv117__class_type_infoC2EPKc
FN:509,510,_ZN10__cxxabiv120__si_class_type_infoC2EPKcPKNS_17__class_type_infoE
FN:551,552,_ZN10__cxxabiv121__vmi_class_type_infoC2EPKci
FNDA:0,_ZN10__cxxabiv123__fundamental_type_infoC2EPKc
FNDA:0,_ZN10__cxxabiv117__array_type_infoC2EPKc
FNDA:0,_ZN10__cxxabiv120__function_type_infoC2EPKc
FNDA:0,_ZN10__cxxabiv116__enum_type_infoC2EPKc
FNDA:0,_ZN10__cxxabiv117__pbase_type_infoC2EPKciPKSt9type_info
FNDA:0,_ZNK10__cxxabiv117__pbase_type_info15__pointer_catchEPKS0_PPvj
FNDA:0,_ZN10__cxxabiv119__pointer_type_infoC2EPKciPKSt9type_info
FNDA:0,_ZN10__cxxabiv129__pointer_to_member_type_infoC2EPKciPKSt9type_infoPNS_17__class_type_infoE
FNDA:0,_ZNK10__cxxabiv122__base_class_type_info14__is_virtual_pEv
FNDA:0,_ZNK10__cxxabiv122__base_class_type_info13__is_public_pEv
FNDA:0,_ZNK10__cxxabiv122__base_class_type_info8__offsetEv
FNDA:0,_ZN10__cxxabiv117__class_type_infoC2EPKc
FNDA:0,_ZN10__cxxabiv120__si_class_type_infoC2EPKcPKNS_17__class_type_infoE
FNDA:0,_ZN10__cxxabiv121__vmi_class_type_infoC2EPKci
FNF:14
FNH:0
DA:223,0
DA:234,0
DA:245,0
DA:261,0
DA:275,0
DA:277,0
DA:278,0
DA:311,0
DA:316,0
DA:324,0
DA:326,0
DA:351,0
DA:354,0
DA:392,0
DA:393,0
DA:396,0
DA:397,0
DA:400,0
DA:405,0
DA:414,0
DA:509,0
DA:510,0
DA:551,0
DA:552,0
LF:24
LH:0
end_of_record
TN:
SF:/usr/include/c++/13/exception
FN:54,54,_ZNSt13bad_exceptionC2Ev
FNDA:0,_ZNSt13bad_exceptionC2Ev
FNF:1
FNH:0
DA:54,0
LF:1
LH:0
end_of_record
TN:
SF:/usr/include/c++/13/ext/aligned_buffer.h
FN:104,107,_ZN9__gnu_cxx16__aligned_bufferISt4pairIKNSt7__cxx1112basic_stringIcSt11char_traitsIcESaIcEEEmEE7_M_addrEv
FN:104,107,_ZN9__gnu_cxx16__aligned_bufferISt5mutexE7_M_addrEv
FN:116,117,_ZN9__gnu_cxx16__aligned_bufferISt4pairIKNSt7__cxx1112basic_stringIcSt11char_traitsIcESaIcEEEmEE6_M_ptrEv
FN:116,117,_ZN9__gnu_cxx16__aligned_bufferISt5mutexE6_M_ptrEv
FN:64,65,_ZN9__gnu_cxx16__aligned_membufISt4pairIKNSt7__cxx1112basic_stringIcSt11char_traitsIcESaIcEEEN7testing8internal12CodeLocationEEE7_M_addrEv
FN:68,69,_ZNK9__gnu_cxx16__aligned_membufISt4pairIKNSt7__cxx1112basic_stringIcSt11char_traitsIcESaIcEEEN7testing8internal12CodeLocationEEE7_M_addrEv
FN:72,73,_ZN9__gnu_cxx16__aligned_membufISt4pairIKNSt7__cxx1112basic_stringIcSt11char_traitsIcESaIcEEEN7testing8internal12CodeLocationEEE6_M_ptrEv
FN:76,77,_ZNK9__gnu_cxx16__aligned_membufISt4pairIKNSt7__cxx1112basic_stringIcSt11char_traitsIcESaIcEEEN7testing8internal12CodeLocationEEE6_M_ptrEv
FNDA:0,_ZN9__gnu_cxx16__aligned_bufferISt4pairIKNSt7__cxx1112basic_stringIcSt11char_traitsIcESaIcEEEmEE7_M_addrEv
FNDA:0,_ZN9__gnu_cxx16__aligned_bufferISt5mutexE7_M_addrEv
FNDA:0,_ZN9__gnu_cxx16__aligned_bufferISt4pairIKNSt7__cxx1112basic_stringIcSt11char_traitsIcESaIcEEEmEE6_M_ptrEv
FNDA:0,_ZN9__gnu_cxx16__aligned_bufferISt5mutexE6_M_ptrEv
FNDA:0,_ZN9__gnu_cxx16__aligned_membufISt4pairIKNSt7__cxx1112basic_stringIcSt11char_traitsIcESaIcEEEN7testing8internal12CodeLocationEEE7_M_addrEv
FNDA:0,_ZNK9__gnu_cxx16__aligned_membufISt4pairIKNSt7__cxx1112basic_stringIcSt11char_traitsIcESaIcEEEN7testing8internal12CodeLocationEEE7_M_addrEv
FNDA:0,_ZN9__gnu_cxx16__aligned_membufISt4pairIKNSt7__cxx1112basic_stringIcSt11char_traitsIcESaIcEEEN7testing8internal12CodeLocationEEE6_M_ptrEv
FNDA:0,_ZNK9__gnu_cxx16__aligned_membufISt4pairIKNSt7__cxx1112basic_stringIcSt11char_traitsIcESaIcEEEN7testing8internal12CodeLocationEEE6_M_ptrEv
FNF:8
FNH:0
DA:64,0
DA:65,0
DA:68,0
DA:69,0
DA:72,0
DA:73,0
DA:76,0
DA:77,0
DA:104,0
DA:106,0
DA:116,0
DA:117,0
LF:12
LH:0
end_of_record
TN:
SF:/usr/include/c++/13/ext/alloc_traits.h
FN:105,106,_ZN9__gnu_cxx14__alloc_traitsISaIcEcE27_S_propagate_on_copy_assignEv
FN:109,110,_ZN9__gnu_cxx14__alloc_traitsISaIcEcE27_S_propagate_on_move_assignEv
FN:117,118,_ZN9__gnu_cxx14__alloc_traitsISaIcEcE15_S_always_equalEv
FN:121,122,_ZN9__gnu_cxx14__alloc_traitsISaIcEcE15_S_nothrow_moveEv
FN:97,98,_ZN9__gnu_cxx14__alloc_traitsISaIcEcE17_S_select_on_copyERKS1_
FNDA:0,_ZN9__gnu_cxx14__alloc_traitsISaIcEcE27_S_propagate_on_copy_assignEv
FNDA:0,_ZN9__gnu_cxx14__alloc_traitsISaIcEcE27_S_propagate_on_move_assignEv
FNDA:0,_ZN9__gnu_cxx14__alloc_traitsISaIcEcE15_S_always_equalEv
FNDA:0,_ZN9__gnu_cxx14__alloc_traitsISaIcEcE15_S_nothrow_moveEv
FNDA:0,_ZN9__gnu_cxx14__alloc_traitsISaIcEcE17_S_select_on_copyERKS1_
FNF:5
FNH:0
DA:97,0
DA:98,0
DA:105,0
DA:106,0
DA:109,0
DA:110,0
DA:117,0
DA:118,0
DA:121,0
DA:122,0
LF:10
LH:0
end_of_record
TN:
SF:/usr/include/c++/13/ext/atomicity.h
FN:106,112,_ZN9__gnu_cxx21__atomic_add_dispatchEPii
FN:47,56,_ZN9__gnu_cxx20__is_single_threadedEv
FN:65,66,_ZN9__gnu_cxx18__exchange_and_addEPVii
FN:70,71,_ZN9__gnu_cxx12__atomic_addEPVii
FN:82,87,_ZN9__gnu_cxx25__exchange_and_add_singleEPii
FN:91,92,_ZN9__gnu_cxx19__atomic_add_singleEPii
FN:96,102,_ZN9__gnu_cxx27__exchange_and_add_dispatchEPii
FNDA:0,_ZN9__gnu_cxx21__atomic_add_dispatchEPii
FNDA:0,_ZN9__gnu_cxx20__is_single_threadedEv
FNDA:0,_ZN9__gnu_cxx18__exchange_and_addEPVii
FNDA:0,_ZN9__gnu_cxx12__atomic_addEPVii
FNDA:0,_ZN9__gnu_cxx25__exchange_and_add_singleEPii
FNDA:0,_ZN9__gnu_cxx19__atomic_add_singleEPii
FNDA:0,_ZN9__gnu_cxx27__exchange_and_add_dispatchEPii
FNF:7
FNH:0
DA:47,0
DA:52,0
DA:65,0
DA:66,0
DA:70,0
DA:71,0
DA:82,0
DA:84,0
DA:85,0
DA:86,0
DA:91,0
DA:92,0
DA:96,0
DA:98,0
DA:99,0
DA:101,0
DA:106,0
DA:108,0
DA:112,0
LF:19
LH:0
end_of_record
TN:
SF:/usr/include/c++/13/ext/concurrence.h
FN:102,103,_ZN9__gnu_cxx32__throw_concurrence_unlock_errorEv
FN:107,108,_ZN9__gnu_cxx35__throw_concurrence_broadcast_errorEv
FN:111,112,_ZN9__gnu_cxx30__throw_concurrence_wait_errorEv
FN:128,134,_ZN9__gnu_cxx7__mutexC2Ev
FN:144,153,_ZN9__gnu_cxx7__mutex4lockEv
FN:155,164,_ZN9__gnu_cxx7__mutex6unlockEv
FN:166,167,_ZN9__gnu_cxx7__mutex13gthread_mutexEv
FN:183,189,_ZN9__gnu_cxx17__recursive_mutexC2Ev
FN:199,208,_ZN9__gnu_cxx17__recursive_mutex4lockEv
FN:210,219,_ZN9__gnu_cxx17__recursive_mutex6unlockEv
FN:221,222,_ZN9__gnu_cxx17__recursive_mutex23gthread_recursive_mutexEv
FN:240,241,_ZN9__gnu_cxx13__scoped_lockC2ERNS_7__mutexE
FN:243,244,_ZN9__gnu_cxx13__scoped_lockD2Ev
FN:261,267,_ZN9__gnu_cxx6__condC2Ev
FN:277,286,_ZN9__gnu_cxx6__cond9broadcastEv
FN:288,296,_ZN9__gnu_cxx6__cond4waitEPNS_7__mutexE
FN:298,308,_ZN9__gnu_cxx6__cond14wait_recursiveEPNS_17__recursive_mutexE
FN:68,69,_ZNK9__gnu_cxx24__concurrence_lock_error4whatEv
FN:76,77,_ZNK9__gnu_cxx26__concurrence_unlock_error4whatEv
FN:84,85,_ZNK9__gnu_cxx29__concurrence_broadcast_error4whatEv
FN:92,93,_ZNK9__gnu_cxx24__concurrence_wait_error4whatEv
FN:98,99,_ZN9__gnu_cxx30__throw_concurrence_lock_errorEv
FNDA:0,_ZN9__gnu_cxx32__throw_concurrence_unlock_errorEv
FNDA:0,_ZN9__gnu_cxx35__throw_concurrence_broadcast_errorEv
FNDA:0,_ZN9__gnu_cxx30__throw_concurrence_wait_errorEv
FNDA:0,_ZN9__gnu_cxx7__mutexC2Ev
FNDA:0,_ZN9__gnu_cxx7__mutex4lockEv
FNDA:0,_ZN9__gnu_cxx7__mutex6unlockEv
FNDA:0,_ZN9__gnu_cxx7__mutex13gthread_mutexEv
FNDA:0,_ZN9__gnu_cxx17__recursive_mutexC2Ev
FNDA:0,_ZN9__gnu_cxx17__recursive_mutex4lockEv
FNDA:0,_ZN9__gnu_cxx17__recursive_mutex6unlockEv
FNDA:0,_ZN9__gnu_cxx17__recursive_mutex23gthread_recursive_mutexEv
FNDA:0,_ZN9__gnu_cxx13__scoped_lockC2ERNS_7__mutexE
FNDA:0,_ZN9__gnu_cxx13__scoped_lockD2Ev
FNDA:0,_ZN9__gnu_cxx6__condC2Ev
FNDA:0,_ZN9__gnu_cxx6__cond9broadcastEv
FNDA:0,_ZN9__gnu_cxx6__cond4waitEPNS_7__mutexE
FNDA:0,_ZN9__gnu_cxx6__cond14wait_recursiveEPNS_17__recursive_mutexE
FNDA:0,_ZNK9__gnu_cxx24__concurrence_lock_error4whatEv
FNDA:0,_ZNK9__gnu_cxx26__concurrence_unlock_error4whatEv
FNDA:0,_ZNK9__gnu_cxx29__concurrence_broadcast_error4whatEv
FNDA:0,_ZNK9__gnu_cxx24__concurrence_wait_error4whatEv
FNDA:0,_ZN9__gnu_cxx30__throw_concurrence_lock_errorEv
FNF:22
FNH:0
DA:68,0
DA:69,0
DA:76,0
DA:77,0
DA:84,0
DA:85,0
DA:92,0
DA:93,0
DA:98,0
DA:99,0
DA:102,0
DA:103,0
DA:107,0
DA:108,0
DA:111,0
DA:112,0
DA:128,0
DA:129,0
DA:134,0
DA:144,0
DA:147,0
DA:149,0
DA:150,0
DA:153,0
DA:155,0
DA:158,0
DA:160,0
DA:161,0
DA:164,0
DA:166,0
DA:167,0
DA:183,0
DA:184,0
DA:189,0
DA:199,0
DA:202,0
DA:204,0
DA:205,0
DA:208,0
DA:210,0
DA:213,0
DA:215,0
DA:216,0
DA:219,0
DA:221,0
DA:222,0
DA:240,0
DA:241,0
DA:243,0
DA:244,0
DA:261,0
DA:262,0
DA:267,0
DA:277,0
DA:280,0
DA:282,0
DA:283,0
DA:286,0
DA:288,0
DA:292,0
DA:293,0
DA:296,0
DA:298,0
DA:302,0
DA:304,0
DA:305,0
DA:308,0
LF:67
LH:0
end_of_record
TN:
SF:/usr/include/c++/13/ext/string_conversions.h
FN:101,118,_ZN9__gnu_cxx12__to_xstringINSt7__cxx1112basic_stringIcSt11char_traitsIcESaIcEEEcEET_PFiPT0_mPKS8_P13__va_list_tagEmSB_z
FN:101,118,_ZN9__gnu_cxx12__to_xstringINSt7__cxx1112basic_stringIwSt11char_traitsIwESaIwEEEwEET_PFiPT0_mPKS8_P13__va_list_tagEmSB_z
FN:56,96,_ZN9__gnu_cxx6__stoaIddcJEEET0_PFT_PKT1_PPS3_DpT2_EPKcS5_PmS9_
FN:56,96,_ZN9__gnu_cxx6__stoaIddwJEEET0_PFT_PKT1_PPS3_DpT2_EPKcS5_PmS9_
FN:56,96,_ZN9__gnu_cxx6__stoaIeecJEEET0_PFT_PKT1_PPS3_DpT2_EPKcS5_PmS9_
FN:56,96,_ZN9__gnu_cxx6__stoaIeewJEEET0_PFT_PKT1_PPS3_DpT2_EPKcS5_PmS9_
FN:56,96,_ZN9__gnu_cxx6__stoaIffcJEEET0_PFT_PKT1_PPS3_DpT2_EPKcS5_PmS9_
FN:56,96,_ZN9__gnu_cxx6__stoaIffwJEEET0_PFT_PKT1_PPS3_DpT2_EPKcS5_PmS9_
FN:56,96,_ZN9__gnu_cxx6__stoaIlicJiEEET0_PFT_PKT1_PPS3_DpT2_EPKcS5_PmS9_
FN:56,96,_ZN9__gnu_cxx6__stoaIliwJiEEET0_PFT_PKT1_PPS3_DpT2_EPKcS5_PmS9_
FN:56,96,_ZN9__gnu_cxx6__stoaIllcJiEEET0_PFT_PKT1_PPS3_DpT2_EPKcS5_PmS9_
FN:56,96,_ZN9__gnu_cxx6__stoaIllwJiEEET0_PFT_PKT1_PPS3_DpT2_EPKcS5_PmS9_
FN:56,96,_ZN9__gnu_cxx6__stoaImmcJiEEET0_PFT_PKT1_PPS3_DpT2_EPKcS5_PmS9_
FN:56,96,_ZN9__gnu_cxx6__stoaImmwJiEEET0_PFT_PKT1_PPS3_DpT2_EPKcS5_PmS9_
FN:56,96,_ZN9__gnu_cxx6__stoaIxxcJiEEET0_PFT_PKT1_PPS3_DpT2_EPKcS5_PmS9_
FN:56,96,_ZN9__gnu_cxx6__stoaIxxwJiEEET0_PFT_PKT1_PPS3_DpT2_EPKcS5_PmS9_
FN:56,96,_ZN9__gnu_cxx6__stoaIyycJiEEET0_PFT_PKT1_PPS3_DpT2_EPKcS5_PmS9_
FN:56,96,_ZN9__gnu_cxx6__stoaIyywJiEEET0_PFT_PKT1_PPS3_DpT2_EPKcS5_PmS9_
FN:65,65,_ZZN9__gnu_cxx6__stoaIddcJEEET0_PFT_PKT1_PPS3_DpT2_EPKcS5_PmS9_EN11_Save_errnoC2Ev
FN:65,65,_ZZN9__gnu_cxx6__stoaIddwJEEET0_PFT_PKT1_PPS3_DpT2_EPKcS5_PmS9_EN11_Save_errnoC2Ev
FN:65,65,_ZZN9__gnu_cxx6__stoaIeecJEEET0_PFT_PKT1_PPS3_DpT2_EPKcS5_PmS9_EN11_Save_errnoC2Ev
FN:65,65,_ZZN9__gnu_cxx6__stoaIeewJEEET0_PFT_PKT1_PPS3_DpT2_EPKcS5_PmS9_EN11_Save_errnoC2Ev
FN:65,65,_ZZN9__gnu_cxx6__stoaIffcJEEET0_PFT_PKT1_PPS3_DpT2_EPKcS5_PmS9_EN11_Save_errnoC2Ev
FN:65,65,_ZZN9__gnu_cxx6__stoaIffwJEEET0_PFT_PKT1_PPS3_DpT2_EPKcS5_PmS9_EN11_Save_errnoC2Ev
FN:65,65,_ZZN9__gnu_cxx6__stoaIlicJiEEET0_PFT_PKT1_PPS3_DpT2_EPKcS5_PmS9_EN11_Save_errnoC2Ev
FN:65,65,_ZZN9__gnu_cxx6__stoaIliwJiEEET0_PFT_PKT1_PPS3_DpT2_EPKcS5_PmS9_EN11_Save_errnoC2Ev
FN:65,65,_ZZN9__gnu_cxx6__stoaIllcJiEEET0_PFT_PKT1_PPS3_DpT2_EPKcS5_PmS9_EN11_Save_errnoC2Ev
FN:65,65,_ZZN9__gnu_cxx6__stoaIllwJiEEET0_PFT_PKT1_PPS3_DpT2_EPKcS5_PmS9_EN11_Save_errnoC2Ev
FN:65,65,_ZZN9__gnu_cxx6__stoaImmcJiEEET0_PFT_PKT1_PPS3_DpT2_EPKcS5_PmS9_EN11_Save_errnoC2Ev
FN:65,65,_ZZN9__gnu_cxx6__stoaImmwJiEEET0_PFT_PKT1_PPS3_DpT2_EPKcS5_PmS9_EN11_Save_errnoC2Ev
FN:65,65,_ZZN9__gnu_cxx6__stoaIxxcJiEEET0_PFT_PKT1_PPS3_DpT2_EPKcS5_PmS9_EN11_Save_errnoC2Ev
FN:65,65,_ZZN9__gnu_cxx6__stoaIxxwJiEEET0_PFT_PKT1_PPS3_DpT2_EPKcS5_PmS9_EN11_Save_errnoC2Ev
FN:65,65,_ZZN9__gnu_cxx6__stoaIyycJiEEET0_PFT_PKT1_PPS3_DpT2_EPKcS5_PmS9_EN11_Save_errnoC2Ev
FN:65,65,_ZZN9__gnu_cxx6__stoaIyywJiEEET0_PFT_PKT1_PPS3_DpT2_EPKcS5_PmS9_EN11_Save_errnoC2Ev
FN:66,66,_ZZN9__gnu_cxx6__stoaIddcJEEET0_PFT_PKT1_PPS3_DpT2_EPKcS5_PmS9_EN11_Save_errnoD2Ev
FN:66,66,_ZZN9__gnu_cxx6__stoaIddwJEEET0_PFT_PKT1_PPS3_DpT2_EPKcS5_PmS9_EN11_Save_errnoD2Ev
FN:66,66,_ZZN9__gnu_cxx6__stoaIeecJEEET0_PFT_PKT1_PPS3_DpT2_EPKcS5_PmS9_EN11_Save_errnoD2Ev
FN:66,66,_ZZN9__gnu_cxx6__stoaIeewJEEET0_PFT_PKT1_PPS3_DpT2_EPKcS5_PmS9_EN11_Save_errnoD2Ev
FN:66,66,_ZZN9__gnu_cxx6__stoaIffcJEEET0_PFT_PKT1_PPS3_DpT2_EPKcS5_PmS9_EN11_Save_errnoD2Ev
FN:66,66,_ZZN9__gnu_cxx6__stoaIffwJEEET0_PFT_PKT1_PPS3_DpT2_EPKcS5_PmS9_EN11_Save_errnoD2Ev
FN:66,66,_ZZN9__gnu_cxx6__stoaIlicJiEEET0_PFT_PKT1_PPS3_DpT2_EPKcS5_PmS9_EN11_Save_errnoD2Ev
FN:66,66,_ZZN9__gnu_cxx6__stoaIliwJiEEET0_PFT_PKT1_PPS3_DpT2_EPKcS5_PmS9_EN11_Save_errnoD2Ev
FN:66,66,_ZZN9__gnu_cxx6__stoaIllcJiEEET0_PFT_PKT1_PPS3_DpT2_EPKcS5_PmS9_EN11_Save_errnoD2Ev
FN:66,66,_ZZN9__gnu_cxx6__stoaIllwJiEEET0_PFT_PKT1_PPS3_DpT2_EPKcS5_PmS9_EN11_Save_errnoD2Ev
FN:66,66,_ZZN9__gnu_cxx6__stoaImmcJiEEET0_PFT_PKT1_PPS3_DpT2_EPKcS5_PmS9_EN11_Save_errnoD2Ev
FN:66,66,_ZZN9__gnu_cxx6__stoaImmwJiEEET0_PFT_PKT1_PPS3_DpT2_EPKcS5_PmS9_EN11_Save_errnoD2Ev
FN:66,66,_ZZN9__gnu_cxx6__stoaIxxcJiEEET0_PFT_PKT1_PPS3_DpT2_EPKcS5_PmS9_EN11_Save_errnoD2Ev
FN:66,66,_ZZN9__gnu_cxx6__stoaIxxwJiEEET0_PFT_PKT1_PPS3_DpT2_EPKcS5_PmS9_EN11_Save_errnoD2Ev
FN:66,66,_ZZN9__gnu_cxx6__stoaIyycJiEEET0_PFT_PKT1_PPS3_DpT2_EPKcS5_PmS9_EN11_Save_errnoD2Ev
FN:66,66,_ZZN9__gnu_cxx6__stoaIyywJiEEET0_PFT_PKT1_PPS3_DpT2_EPKcS5_PmS9_EN11_Save_errnoD2Ev
FN:72,72,_ZZN9__gnu_cxx6__stoaIddcJEEET0_PFT_PKT1_PPS3_DpT2_EPKcS5_PmS9_EN10_Range_chk6_S_chkEdSt17integral_constantIbLb0EE
FN:72,72,_ZZN9__gnu_cxx6__stoaIddwJEEET0_PFT_PKT1_PPS3_DpT2_EPKcS5_PmS9_EN10_Range_chk6_S_chkEdSt17integral_constantIbLb0EE
FN:72,72,_ZZN9__gnu_cxx6__stoaIeecJEEET0_PFT_PKT1_PPS3_DpT2_EPKcS5_PmS9_EN10_Range_chk6_S_chkEeSt17integral_constantIbLb0EE
FN:72,72,_ZZN9__gnu_cxx6__stoaIeewJEEET0_PFT_PKT1_PPS3_DpT2_EPKcS5_PmS9_EN10_Range_chk6_S_chkEeSt17integral_constantIbLb0EE
FN:72,72,_ZZN9__gnu_cxx6__stoaIffcJEEET0_PFT_PKT1_PPS3_DpT2_EPKcS5_PmS9_EN10_Range_chk6_S_chkEfSt17integral_constantIbLb0EE
FN:72,72,_ZZN9__gnu_cxx6__stoaIffwJEEET0_PFT_PKT1_PPS3_DpT2_EPKcS5_PmS9_EN10_Range_chk6_S_chkEfSt17integral_constantIbLb0EE
FN:72,72,_ZZN9__gnu_cxx6__stoaIlicJiEEET0_PFT_PKT1_PPS3_DpT2_EPKcS5_PmS9_EN10_Range_chk6_S_chkElSt17integral_constantIbLb0EE
FN:72,72,_ZZN9__gnu_cxx6__stoaIliwJiEEET0_PFT_PKT1_PPS3_DpT2_EPKcS5_PmS9_EN10_Range_chk6_S_chkElSt17integral_constantIbLb0EE
FN:72,72,_ZZN9__gnu_cxx6__stoaIllcJiEEET0_PFT_PKT1_PPS3_DpT2_EPKcS5_PmS9_EN10_Range_chk6_S_chkElSt17integral_constantIbLb0EE
FN:72,72,_ZZN9__gnu_cxx6__stoaIllwJiEEET0_PFT_PKT1_PPS3_DpT2_EPKcS5_PmS9_EN10_Range_chk6_S_chkElSt17integral_constantIbLb0EE
FN:72,72,_ZZN9__gnu_cxx6__stoaImmcJiEEET0_PFT_PKT1_PPS3_DpT2_EPKcS5_PmS9_EN10_Range_chk6_S_chkEmSt17integral_constantIbLb0EE
FN:72,72,_ZZN9__gnu_cxx6__stoaImmwJiEEET0_PFT_PKT1_PPS3_DpT2_EPKcS5_PmS9_EN10_Range_chk6_S_chkEmSt17integral_constantIbLb0EE
FN:72,72,_ZZN9__gnu_cxx6__stoaIxxcJiEEET0_PFT_PKT1_PPS3_DpT2_EPKcS5_PmS9_EN10_Range_chk6_S_chkExSt17integral_constantIbLb0EE
FN:72,72,_ZZN9__gnu_cxx6__stoaIxxwJiEEET0_PFT_PKT1_PPS3_DpT2_EPKcS5_PmS9_EN10_Range_chk6_S_chkExSt17integral_constantIbLb0EE
FN:72,72,_ZZN9__gnu_cxx6__stoaIyycJiEEET0_PFT_PKT1_PPS3_DpT2_EPKcS5_PmS9_EN10_Range_chk6_S_chkEySt17integral_constantIbLb0EE
FN:72,72,_ZZN9__gnu_cxx6__stoaIyywJiEEET0_PFT_PKT1_PPS3_DpT2_EPKcS5_PmS9_EN10_Range_chk6_S_chkEySt17integral_constantIbLb0EE
FN:75,79,_ZZN9__gnu_cxx6__stoaIddcJEEET0_PFT_PKT1_PPS3_DpT2_EPKcS5_PmS9_EN10_Range_chk6_S_chkEdSt17integral_constantIbLb1EE
FN:75,79,_ZZN9__gnu_cxx6__stoaIddwJEEET0_PFT_PKT1_PPS3_DpT2_EPKcS5_PmS9_EN10_Range_chk6_S_chkEdSt17integral_constantIbLb1EE
FN:75,79,_ZZN9__gnu_cxx6__stoaIeecJEEET0_PFT_PKT1_PPS3_DpT2_EPKcS5_PmS9_EN10_Range_chk6_S_chkEeSt17integral_constantIbLb1EE
FN:75,79,_ZZN9__gnu_cxx6__stoaIeewJEEET0_PFT_PKT1_PPS3_DpT2_EPKcS5_PmS9_EN10_Range_chk6_S_chkEeSt17integral_constantIbLb1EE
FN:75,79,_ZZN9__gnu_cxx6__stoaIffcJEEET0_PFT_PKT1_PPS3_DpT2_EPKcS5_PmS9_EN10_Range_chk6_S_chkEfSt17integral_constantIbLb1EE
FN:75,79,_ZZN9__gnu_cxx6__stoaIffwJEEET0_PFT_PKT1_PPS3_DpT2_EPKcS5_PmS9_EN10_Range_chk6_S_chkEfSt17integral_constantIbLb1EE
FN:75,79,_ZZN9__gnu_cxx6__stoaIlicJiEEET0_PFT_PKT1_PPS3_DpT2_EPKcS5_PmS9_EN10_Range_chk6_S_chkElSt17integral_constantIbLb1EE
FN:75,79,_ZZN9__gnu_cxx6__stoaIliwJiEEET0_PFT_PKT1_PPS3_DpT2_EPKcS5_PmS9_EN10_Range_chk6_S_chkElSt17integral_constantIbLb1EE
FN:75,79,_ZZN9__gnu_cxx6__stoaIllcJiEEET0_PFT_PKT1_PPS3_DpT2_EPKcS5_PmS9_EN10_Range_chk6_S_chkElSt17integral_constantIbLb1EE
FN:75,79,_ZZN9__gnu_cxx6__stoaIllwJiEEET0_PFT_PKT1_PPS3_DpT2_EPKcS5_PmS9_EN10_Range_chk6_S_chkElSt17integral_constantIbLb1EE
FN:75,79,_ZZN9__gnu_cxx6__stoaImmcJiEEET0_PFT_PKT1_PPS3_DpT2_EPKcS5_PmS9_EN10_Range_chk6_S_chkEmSt17integral_constantIbLb1EE
FN:75,79,_ZZN9__gnu_cxx6__stoaImmwJiEEET0_PFT_PKT1_PPS3_DpT2_EPKcS5_PmS9_EN10_Range_chk6_S_chkEmSt17integral_constantIbLb1EE
FN:75,79,_ZZN9__gnu_cxx6__stoaIxxcJiEEET0_PFT_PKT1_PPS3_DpT2_EPKcS5_PmS9_EN10_Range_chk6_S_chkExSt17integral_constantIbLb1EE
FN:75,79,_ZZN9__gnu_cxx6__stoaIxxwJiEEET0_PFT_PKT1_PPS3_DpT2_EPKcS5_PmS9_EN10_Range_chk6_S_chkExSt17integral_constantIbLb1EE
FN:75,79,_ZZN9__gnu_cxx6__stoaIyycJiEEET0_PFT_PKT1_PPS3_DpT2_EPKcS5_PmS9_EN10_Range_chk6_S_chkEySt17integral_constantIbLb1EE
FN:75,79,_ZZN9__gnu_cxx6__stoaIyywJiEEET0_PFT_PKT1_PPS3_DpT2_EPKcS5_PmS9_EN10_Range_chk6_S_chkEySt17integral_constantIbLb1EE
FNDA:11,_ZN9__gnu_cxx12__to_xstringINSt7__cxx1112basic_stringIcSt11char_traitsIcESaIcEEEcEET_PFiPT0_mPKS8_P13__va_list_tagEmSB_z
FNDA:0,_ZN9__gnu_cxx12__to_xstringINSt7__cxx1112basic_stringIwSt11char_traitsIwESaIwEEEwEET_PFiPT0_mPKS8_P13__va_list_tagEmSB_z
FNDA:0,_ZN9__gnu_cxx6__stoaIddcJEEET0_PFT_PKT1_PPS3_DpT2_EPKcS5_PmS9_
FNDA:0,_ZN9__gnu_cxx6__stoaIddwJEEET0_PFT_PKT1_PPS3_DpT2_EPKcS5_PmS9_
FNDA:0,_ZN9__gnu_cxx6__stoaIeecJEEET0_PFT_PKT1_PPS3_DpT2_EPKcS5_PmS9_
FNDA:0,_ZN9__gnu_cxx6__stoaIeewJEEET0_PFT_PKT1_PPS3_DpT2_EPKcS5_PmS9_
FNDA:0,_ZN9__gnu_cxx6__stoaIffcJEEET0_PFT_PKT1_PPS3_DpT2_EPKcS5_PmS9_
FNDA:0,_ZN9__gnu_cxx6__stoaIffwJEEET0_PFT_PKT1_PPS3_DpT2_EPKcS5_PmS9_
FNDA:0,_ZN9__gnu_cxx6__stoaIlicJiEEET0_PFT_PKT1_PPS3_DpT2_EPKcS5_PmS9_
FNDA:0,_ZN9__gnu_cxx6__stoaIliwJiEEET0_PFT_PKT1_PPS3_DpT2_EPKcS5_PmS9_
FNDA:0,_ZN9__gnu_cxx6__stoaIllcJiEEET0_PFT_PKT1_PPS3_DpT2_EPKcS5_PmS9_
FNDA:0,_ZN9__gnu_cxx6__stoaIllwJiEEET0_PFT_PKT1_PPS3_DpT2_EPKcS5_PmS9_
FNDA:0,_ZN9__gnu_cxx6__stoaImmcJiEEET0_PFT_PKT1_PPS3_DpT2_EPKcS5_PmS9_
FNDA:0,_ZN9__gnu_cxx6__stoaImmwJiEEET0_PFT_PKT1_PPS3_DpT2_EPKcS5_PmS9_
FNDA:0,_ZN9__gnu_cxx6__stoaIxxcJiEEET0_PFT_PKT1_PPS3_DpT2_EPKcS5_PmS9_
FNDA:0,_ZN9__gnu_cxx6__stoaIxxwJiEEET0_PFT_PKT1_PPS3_DpT2_EPKcS5_PmS9_
FNDA:0,_ZN9__gnu_cxx6__stoaIyycJiEEET0_PFT_PKT1_PPS3_DpT2_EPKcS5_PmS9_
FNDA:0,_ZN9__gnu_cxx6__stoaIyywJiEEET0_PFT_PKT1_PPS3_DpT2_EPKcS5_PmS9_
FNDA:0,_ZZN9__gnu_cxx6__stoaIddcJEEET0_PFT_PKT1_PPS3_DpT2_EPKcS5_PmS9_EN11_Save_errnoC2Ev
FNDA:0,_ZZN9__gnu_cxx6__stoaIddwJEEET0_PFT_PKT1_PPS3_DpT2_EPKcS5_PmS9_EN11_Save_errnoC2Ev
FNDA:0,_ZZN9__gnu_cxx6__stoaIeecJEEET0_PFT_PKT1_PPS3_DpT2_EPKcS5_PmS9_EN11_Save_errnoC2Ev
FNDA:0,_ZZN9__gnu_cxx6__stoaIeewJEEET0_PFT_PKT1_PPS3_DpT2_EPKcS5_PmS9_EN11_Save_errnoC2Ev
FNDA:0,_ZZN9__gnu_cxx6__stoaIffcJEEET0_PFT_PKT1_PPS3_DpT2_EPKcS5_PmS9_EN11_Save_errnoC2Ev
FNDA:0,_ZZN9__gnu_cxx6__stoaIffwJEEET0_PFT_PKT1_PPS3_DpT2_EPKcS5_PmS9_EN11_Save_errnoC2Ev
FNDA:0,_ZZN9__gnu_cxx6__stoaIlicJiEEET0_PFT_PKT1_PPS3_DpT2_EPKcS5_PmS9_EN11_Save_errnoC2Ev
FNDA:0,_ZZN9__gnu_cxx6__stoaIliwJiEEET0_PFT_PKT1_PPS3_DpT2_EPKcS5_PmS9_EN11_Save_errnoC2Ev
FNDA:0,_ZZN9__gnu_cxx6__stoaIllcJiEEET0_PFT_PKT1_PPS3_DpT2_EPKcS5_PmS9_EN11_Save_errnoC2Ev
FNDA:0,_ZZN9__gnu_cxx6__stoaIllwJiEEET0_PFT_PKT1_PPS3_DpT2_EPKcS5_PmS9_EN11_Save_errnoC2Ev
FNDA:0,_ZZN9__gnu_cxx6__stoaImmcJiEEET0_PFT_PKT1_PPS3_DpT2_EPKcS5_PmS9_EN11_Save_errnoC2Ev
FNDA:0,_ZZN9__gnu_cxx6__stoaImmwJiEEET0_PFT_PKT1_PPS3_DpT2_EPKcS5_PmS9_EN11_Save_errnoC2Ev
FNDA:0,_ZZN9__gnu_cxx6__stoaIxxcJiEEET0_PFT_PKT1_PPS3_DpT2_EPKcS5_PmS9_EN11_Save_errnoC2Ev
FNDA:0,_ZZN9__gnu_cxx6__stoaIxxwJiEEET0_PFT_PKT1_PPS3_DpT2_EPKcS5_PmS9_EN11_Save_errnoC2Ev
FNDA:0,_ZZN9__gnu_cxx6__stoaIyycJiEEET0_PFT_PKT1_PPS3_DpT2_EPKcS5_PmS9_EN11_Save_errnoC2Ev
FNDA:0,_ZZN9__gnu_cxx6__stoaIyywJiEEET0_PFT_PKT1_PPS3_DpT2_EPKcS5_PmS9_EN11_Save_errnoC2Ev
FNDA:0,_ZZN9__gnu_cxx6__stoaIddcJEEET0_PFT_PKT1_PPS3_DpT2_EPKcS5_PmS9_EN11_Save_errnoD2Ev
FNDA:0,_ZZN9__gnu_cxx6__stoaIddwJEEET0_PFT_PKT1_PPS3_DpT2_EPKcS5_PmS9_EN11_Save_errnoD2Ev
FNDA:0,_ZZN9__gnu_cxx6__stoaIeecJEEET0_PFT_PKT1_PPS3_DpT2_EPKcS5_PmS9_EN11_Save_errnoD2Ev
FNDA:0,_ZZN9__gnu_cxx6__stoaIeewJEEET0_PFT_PKT1_PPS3_DpT2_EPKcS5_PmS9_EN11_Save_errnoD2Ev
FNDA:0,_ZZN9__gnu_cxx6__stoaIffcJEEET0_PFT_PKT1_PPS3_DpT2_EPKcS5_PmS9_EN11_Save_errnoD2Ev
FNDA:0,_ZZN9__gnu_cxx6__stoaIffwJEEET0_PFT_PKT1_PPS3_DpT2_EPKcS5_PmS9_EN11_Save_errnoD2Ev
FNDA:0,_ZZN9__gnu_cxx6__stoaIlicJiEEET0_PFT_PKT1_PPS3_DpT2_EPKcS5_PmS9_EN11_Save_errnoD2Ev
FNDA:0,_ZZN9__gnu_cxx6__stoaIliwJiEEET0_PFT_PKT1_PPS3_DpT2_EPKcS5_PmS9_EN11_Save_errnoD2Ev
FNDA:0,_ZZN9__gnu_cxx6__stoaIllcJiEEET0_PFT_PKT1_PPS3_DpT2_EPKcS5_PmS9_EN11_Save_errnoD2Ev
FNDA:0,_ZZN9__gnu_cxx6__stoaIllwJiEEET0_PFT_PKT1_PPS3_DpT2_EPKcS5_PmS9_EN11_Save_errnoD2Ev
FNDA:0,_ZZN9__gnu_cxx6__stoaImmcJiEEET0_PFT_PKT1_PPS3_DpT2_EPKcS5_PmS9_EN11_Save_errnoD2Ev
FNDA:0,_ZZN9__gnu_cxx6__stoaImmwJiEEET0_PFT_PKT1_PPS3_DpT2_EPKcS5_PmS9_EN11_Save_errnoD2Ev
FNDA:0,_ZZN9__gnu_cxx6__stoaIxxcJiEEET0_PFT_PKT1_PPS3_DpT2_EPKcS5_PmS9_EN11_Save_errnoD2Ev
FNDA:0,_ZZN9__gnu_cxx6__stoaIxxwJiEEET0_PFT_PKT1_PPS3_DpT2_EPKcS5_PmS9_EN11_Save_errnoD2Ev
FNDA:0,_ZZN9__gnu_cxx6__stoaIyycJiEEET0_PFT_PKT1_PPS3_DpT2_EPKcS5_PmS9_EN11_Save_errnoD2Ev
FNDA:0,_ZZN9__gnu_cxx6__stoaIyywJiEEET0_PFT_PKT1_PPS3_DpT2_EPKcS5_PmS9_EN11_Save_errnoD2Ev
FNDA:0,_ZZN9__gnu_cxx6__stoaIddcJEEET0_PFT_PKT1_PPS3_DpT2_EPKcS5_PmS9_EN10_Range_chk6_S_chkEdSt17integral_constantIbLb0EE
FNDA:0,_ZZN9__gnu_cxx6__stoaIddwJEEET0_PFT_PKT1_PPS3_DpT2_EPKcS5_PmS9_EN10_Range_chk6_S_chkEdSt17integral_constantIbLb0EE
FNDA:0,_ZZN9__gnu_cxx6__stoaIeecJEEET0_PFT_PKT1_PPS3_DpT2_EPKcS5_PmS9_EN10_Range_chk6_S_chkEeSt17integral_constantIbLb0EE
FNDA:0,_ZZN9__gnu_cxx6__stoaIeewJEEET0_PFT_PKT1_PPS3_DpT2_EPKcS5_PmS9_EN10_Range_chk6_S_chkEeSt17integral_constantIbLb0EE
FNDA:0,_ZZN9__gnu_cxx6__stoaIffcJEEET0_PFT_PKT1_PPS3_DpT2_EPKcS5_PmS9_EN10_Range_chk6_S_chkEfSt17integral_constantIbLb0EE
FNDA:0,_ZZN9__gnu_cxx6__stoaIffwJEEET0_PFT_PKT1_PPS3_DpT2_EPKcS5_PmS9_EN10_Range_chk6_S_chkEfSt17integral_constantIbLb0EE
FNDA:0,_ZZN9__gnu_cxx6__stoaIlicJiEEET0_PFT_PKT1_PPS3_DpT2_EPKcS5_PmS9_EN10_Range_chk6_S_chkElSt17integral_constantIbLb0EE
FNDA:0,_ZZN9__gnu_cxx6__stoaIliwJiEEET0_PFT_PKT1_PPS3_DpT2_EPKcS5_PmS9_EN10_Range_chk6_S_chkElSt17integral_constantIbLb0EE
FNDA:0,_ZZN9__gnu_cxx6__stoaIllcJiEEET0_PFT_PKT1_PPS3_DpT2_EPKcS5_PmS9_EN10_Range_chk6_S_chkElSt17integral_constantIbLb0EE
FNDA:0,_ZZN9__gnu_cxx6__stoaIllwJiEEET0_PFT_PKT1_PPS3_DpT2_EPKcS5_PmS9_EN10_Range_chk6_S_chkElSt17integral_constantIbLb0EE
FNDA:0,_ZZN9__gnu_cxx6__stoaImmcJiEEET0_PFT_PKT1_PPS3_DpT2_EPKcS5_PmS9_EN10_Range_chk6_S_chkEmSt17integral_constantIbLb0EE
FNDA:0,_ZZN9__gnu_cxx6__stoaImmwJiEEET0_PFT_PKT1_PPS3_DpT2_EPKcS5_PmS9_EN10_Range_chk6_S_chkEmSt17integral_constantIbLb0EE
FNDA:0,_ZZN9__gnu_cxx6__stoaIxxcJiEEET0_PFT_PKT1_PPS3_DpT2_EPKcS5_PmS9_EN10_Range_chk6_S_chkExSt17integral_constantIbLb0EE
FNDA:0,_ZZN9__gnu_cxx6__stoaIxxwJiEEET0_PFT_PKT1_PPS3_DpT2_EPKcS5_PmS9_EN10_Range_chk6_S_chkExSt17integral_constantIbLb0EE
FNDA:0,_ZZN9__gnu_cxx6__stoaIyycJiEEET0_PFT_PKT1_PPS3_DpT2_EPKcS5_PmS9_EN10_Range_chk6_S_chkEySt17integral_constantIbLb0EE
FNDA:0,_ZZN9__gnu_cxx6__stoaIyywJiEEET0_PFT_PKT1_PPS3_DpT2_EPKcS5_PmS9_EN10_Range_chk6_S_chkEySt17integral_constantIbLb0EE
FNDA:0,_ZZN9__gnu_cxx6__stoaIddcJEEET0_PFT_PKT1_PPS3_DpT2_EPKcS5_PmS9_EN10_Range_chk6_S_chkEdSt17integral_constantIbLb1EE
FNDA:0,_ZZN9__gnu_cxx6__stoaIddwJEEET0_PFT_PKT1_PPS3_DpT2_EPKcS5_PmS9_EN10_Range_chk6_S_chkEdSt17integral_constantIbLb1EE
FNDA:0,_ZZN9__gnu_cxx6__stoaIeecJEEET0_PFT_PKT1_PPS3_DpT2_EPKcS5_PmS9_EN10_Range_chk6_S_chkEeSt17integral_constantIbLb1EE
FNDA:0,_ZZN9__gnu_cxx6__stoaIeewJEEET0_PFT_PKT1_PPS3_DpT2_EPKcS5_PmS9_EN10_Range_chk6_S_chkEeSt17integral_constantIbLb1EE
FNDA:0,_ZZN9__gnu_cxx6__stoaIffcJEEET0_PFT_PKT1_PPS3_DpT2_EPKcS5_PmS9_EN10_Range_chk6_S_chkEfSt17integral_constantIbLb1EE
FNDA:0,_ZZN9__gnu_cxx6__stoaIffwJEEET0_PFT_PKT1_PPS3_DpT2_EPKcS5_PmS9_EN10_Range_chk6_S_chkEfSt17integral_constantIbLb1EE
FNDA:0,_ZZN9__gnu_cxx6__stoaIlicJiEEET0_PFT_PKT1_PPS3_DpT2_EPKcS5_PmS9_EN10_Range_chk6_S_chkElSt17integral_constantIbLb1EE
FNDA:0,_ZZN9__gnu_cxx6__stoaIliwJiEEET0_PFT_PKT1_PPS3_DpT2_EPKcS5_PmS9_EN10_Range_chk6_S_chkElSt17integral_constantIbLb1EE
FNDA:0,_ZZN9__gnu_cxx6__stoaIllcJiEEET0_PFT_PKT1_PPS3_DpT2_EPKcS5_PmS9_EN10_Range_chk6_S_chkElSt17integral_constantIbLb1EE
FNDA:0,_ZZN9__gnu_cxx6__stoaIllwJiEEET0_PFT_PKT1_PPS3_DpT2_EPKcS5_PmS9_EN10_Range_chk6_S_chkElSt17integral_constantIbLb1EE
FNDA:0,_ZZN9__gnu_cxx6__stoaImmcJiEEET0_PFT_PKT1_PPS3_DpT2_EPKcS5_PmS9_EN10_Range_chk6_S_chkEmSt17integral_constantIbLb1EE
FNDA:0,_ZZN9__gnu_cxx6__stoaImmwJiEEET0_PFT_PKT1_PPS3_DpT2_EPKcS5_PmS9_EN10_Range_chk6_S_chkEmSt17integral_constantIbLb1EE
FNDA:0,_ZZN9__gnu_cxx6__stoaIxxcJiEEET0_PFT_PKT1_PPS3_DpT2_EPKcS5_PmS9_EN10_Range_chk6_S_chkExSt17integral_constantIbLb1EE
FNDA:0,_ZZN9__gnu_cxx6__stoaIxxwJiEEET0_PFT_PKT1_PPS3_DpT2_EPKcS5_PmS9_EN10_Range_chk6_S_chkExSt17integral_constantIbLb1EE
FNDA:0,_ZZN9__gnu_cxx6__stoaIyycJiEEET0_PFT_PKT1_PPS3_DpT2_EPKcS5_PmS9_EN10_Range_chk6_S_chkEySt17integral_constantIbLb1EE
FNDA:0,_ZZN9__gnu_cxx6__stoaIyywJiEEET0_PFT_PKT1_PPS3_DpT2_EPKcS5_PmS9_EN10_Range_chk6_S_chkEySt17integral_constantIbLb1EE
FNF:82
FNH:1
DA:56,0
DA:65,0
DA:66,0
DA:68,0
DA:72,0
DA:75,0
DA:78,0
DA:82,0
DA:84,0
DA:85,0
DA:86,0
DA:87,0
DA:88,0
DA:90,0
DA:92,0
DA:93,0
DA:95,0
DA:96,0
DA:101,11
DA:107,11
DA:111,11
DA:113,11
DA:115,11
DA:117,22
LF:24
LH:6
end_of_record
TN:
SF:/usr/include/c++/13/ext/type_traits.h
FN:164,165,_ZN9__gnu_cxx17__is_null_pointerEDn
FNDA:0,_ZN9__gnu_cxx17__is_null_pointerEDn
FNF:1
FNH:0
DA:164,0
DA:165,0
LF:2
LH:0
end_of_record
TN:
SF:/usr/include/c++/13/initializer_list
FN:69,69,_ZNKSt16initializer_listIbE4sizeEv
FN:69,69,_ZNKSt16initializer_listIcE4sizeEv
FN:73,73,_ZNKSt16initializer_listIbE5beginEv
FN:73,73,_ZNKSt16initializer_listIcE5beginEv
FN:77,77,_ZNKSt16initializer_listIbE3endEv
FN:77,77,_ZNKSt16initializer_listIcE3endEv
FNDA:0,_ZNKSt16initializer_listIbE4sizeEv
FNDA:0,_ZNKSt16initializer_listIcE4sizeEv
FNDA:0,_ZNKSt16initializer_listIbE5beginEv
FNDA:0,_ZNKSt16initializer_listIcE5beginEv
FNDA:0,_ZNKSt16initializer_listIbE3endEv
FNDA:0,_ZNKSt16initializer_listIcE3endEv
FNF:6
FNH:0
DA:69,0
DA:73,0
DA:77,0
LF:3
LH:0
end_of_record
TN:
SF:/usr/include/c++/13/limits
FN:1015,1015,_ZNSt14numeric_limitsItE7epsilonEv
FN:1018,1018,_ZNSt14numeric_limitsItE11round_errorEv
FN:1033,1034,_ZNSt14numeric_limitsItE8infinityEv
FN:1037,1038,_ZNSt14numeric_limitsItE9quiet_NaNEv
FN:1041,1042,_ZNSt14numeric_limitsItE13signaling_NaNEv
FN:1045,1046,_ZNSt14numeric_limitsItE10denorm_minEv
FN:1065,1065,_ZNSt14numeric_limitsIiE3minEv
FN:1068,1068,_ZNSt14numeric_limitsIiE3maxEv
FN:1072,1072,_ZNSt14numeric_limitsIiE6lowestEv
FN:1086,1086,_ZNSt14numeric_limitsIiE7epsilonEv
FN:1089,1089,_ZNSt14numeric_limitsIiE11round_errorEv
FN:1104,1104,_ZNSt14numeric_limitsIiE8infinityEv
FN:1107,1107,_ZNSt14numeric_limitsIiE9quiet_NaNEv
FN:1110,1110,_ZNSt14numeric_limitsIiE13signaling_NaNEv
FN:1113,1113,_ZNSt14numeric_limitsIiE10denorm_minEv
FN:1132,1132,_ZNSt14numeric_limitsIjE3minEv
FN:1135,1135,_ZNSt14numeric_limitsIjE3maxEv
FN:1139,1139,_ZNSt14numeric_limitsIjE6lowestEv
FN:1155,1155,_ZNSt14numeric_limitsIjE7epsilonEv
FN:1158,1158,_ZNSt14numeric_limitsIjE11round_errorEv
FN:1173,1173,_ZNSt14numeric_limitsIjE8infinityEv
FN:1176,1177,_ZNSt14numeric_limitsIjE9quiet_NaNEv
FN:1180,1181,_ZNSt14numeric_limitsIjE13signaling_NaNEv
FN:1184,1185,_ZNSt14numeric_limitsIjE10denorm_minEv
FN:1204,1204,_ZNSt14numeric_limitsIlE3minEv
FN:1207,1207,_ZNSt14numeric_limitsIlE3maxEv
FN:1211,1211,_ZNSt14numeric_limitsIlE6lowestEv
FN:1225,1225,_ZNSt14numeric_limitsIlE7epsilonEv
FN:1228,1228,_ZNSt14numeric_limitsIlE11round_errorEv
FN:1243,1243,_ZNSt14numeric_limitsIlE8infinityEv
FN:1246,1246,_ZNSt14numeric_limitsIlE9quiet_NaNEv
FN:1249,1249,_ZNSt14numeric_limitsIlE13signaling_NaNEv
FN:1252,1252,_ZNSt14numeric_limitsIlE10denorm_minEv
FN:1271,1271,_ZNSt14numeric_limitsImE3minEv
FN:1274,1274,_ZNSt14numeric_limitsImE3maxEv
FN:1278,1278,_ZNSt14numeric_limitsImE6lowestEv
FN:1294,1294,_ZNSt14numeric_limitsImE7epsilonEv
FN:1297,1297,_ZNSt14numeric_limitsImE11round_errorEv
FN:1312,1313,_ZNSt14numeric_limitsImE8infinityEv
FN:1316,1317,_ZNSt14numeric_limitsImE9quiet_NaNEv
FN:1320,1321,_ZNSt14numeric_limitsImE13signaling_NaNEv
FN:1324,1325,_ZNSt14numeric_limitsImE10denorm_minEv
FN:1344,1344,_ZNSt14numeric_limitsIxE3minEv
FN:1347,1347,_ZNSt14numeric_limitsIxE3maxEv
FN:1351,1351,_ZNSt14numeric_limitsIxE6lowestEv
FN:1367,1367,_ZNSt14numeric_limitsIxE7epsilonEv
FN:1370,1370,_ZNSt14numeric_limitsIxE11round_errorEv
FN:1385,1385,_ZNSt14numeric_limitsIxE8infinityEv
FN:1388,1388,_ZNSt14numeric_limitsIxE9quiet_NaNEv
FN:1391,1392,_ZNSt14numeric_limitsIxE13signaling_NaNEv
FN:1395,1395,_ZNSt14numeric_limitsIxE10denorm_minEv
FN:1414,1414,_ZNSt14numeric_limitsIyE3minEv
FN:1417,1417,_ZNSt14numeric_limitsIyE3maxEv
FN:1421,1421,_ZNSt14numeric_limitsIyE6lowestEv
FN:1437,1437,_ZNSt14numeric_limitsIyE7epsilonEv
FN:1440,1440,_ZNSt14numeric_limitsIyE11round_errorEv
FN:1455,1456,_ZNSt14numeric_limitsIyE8infinityEv
FN:1459,1460,_ZNSt14numeric_limitsIyE9quiet_NaNEv
FN:1463,1464,_ZNSt14numeric_limitsIyE13signaling_NaNEv
FN:1467,1468,_ZNSt14numeric_limitsIyE10denorm_minEv
FN:1658,1658,_ZNSt14numeric_limitsInE10denorm_minEv
FN:1658,1658,_ZNSt14numeric_limitsInE11round_errorEv
FN:1658,1658,_ZNSt14numeric_limitsInE13signaling_NaNEv
FN:1658,1658,_ZNSt14numeric_limitsInE3maxEv
FN:1658,1658,_ZNSt14numeric_limitsInE3minEv
FN:1658,1658,_ZNSt14numeric_limitsInE6lowestEv
FN:1658,1658,_ZNSt14numeric_limitsInE7epsilonEv
FN:1658,1658,_ZNSt14numeric_limitsInE8infinityEv
FN:1658,1658,_ZNSt14numeric_limitsInE9quiet_NaNEv
FN:1658,1658,_ZNSt14numeric_limitsIoE10denorm_minEv
FN:1658,1658,_ZNSt14numeric_limitsIoE11round_errorEv
FN:1658,1658,_ZNSt14numeric_limitsIoE13signaling_NaNEv
FN:1658,1658,_ZNSt14numeric_limitsIoE3maxEv
FN:1658,1658,_ZNSt14numeric_limitsIoE3minEv
FN:1658,1658,_ZNSt14numeric_limitsIoE6lowestEv
FN:1658,1658,_ZNSt14numeric_limitsIoE7epsilonEv
FN:1658,1658,_ZNSt14numeric_limitsIoE8infinityEv
FN:1658,1658,_ZNSt14numeric_limitsIoE9quiet_NaNEv
FN:1675,1675,_ZNSt14numeric_limitsIfE3minEv
FN:1678,1678,_ZNSt14numeric_limitsIfE3maxEv
FN:1682,1682,_ZNSt14numeric_limitsIfE6lowestEv
FN:1697,1697,_ZNSt14numeric_limitsIfE7epsilonEv
FN:1700,1700,_ZNSt14numeric_limitsIfE11round_errorEv
FN:1716,1716,_ZNSt14numeric_limitsIfE8infinityEv
FN:1719,1719,_ZNSt14numeric_limitsIfE9quiet_NaNEv
FN:1722,1722,_ZNSt14numeric_limitsIfE13signaling_NaNEv
FN:1725,1725,_ZNSt14numeric_limitsIfE10denorm_minEv
FN:1750,1750,_ZNSt14numeric_limitsIdE3minEv
FN:1753,1753,_ZNSt14numeric_limitsIdE3maxEv
FN:1757,1757,_ZNSt14numeric_limitsIdE6lowestEv
FN:1772,1772,_ZNSt14numeric_limitsIdE7epsilonEv
FN:1775,1775,_ZNSt14numeric_limitsIdE11round_errorEv
FN:1791,1791,_ZNSt14numeric_limitsIdE8infinityEv
FN:1794,1794,_ZNSt14numeric_limitsIdE9quiet_NaNEv
FN:1797,1797,_ZNSt14numeric_limitsIdE13signaling_NaNEv
FN:1800,1800,_ZNSt14numeric_limitsIdE10denorm_minEv
FN:1825,1825,_ZNSt14numeric_limitsIeE3minEv
FN:1828,1828,_ZNSt14numeric_limitsIeE3maxEv
FN:1832,1832,_ZNSt14numeric_limitsIeE6lowestEv
FN:1847,1847,_ZNSt14numeric_limitsIeE7epsilonEv
FN:1850,1850,_ZNSt14numeric_limitsIeE11round_errorEv
FN:1866,1866,_ZNSt14numeric_limitsIeE8infinityEv
FN:1869,1869,_ZNSt14numeric_limitsIeE9quiet_NaNEv
FN:1872,1872,_ZNSt14numeric_limitsIeE13signaling_NaNEv
FN:1875,1875,_ZNSt14numeric_limitsIeE10denorm_minEv
FN:389,389,_ZNSt14numeric_limitsIbE3minEv
FN:392,392,_ZNSt14numeric_limitsIbE3maxEv
FN:396,396,_ZNSt14numeric_limitsIbE6lowestEv
FN:409,409,_ZNSt14numeric_limitsIbE7epsilonEv
FN:412,412,_ZNSt14numeric_limitsIbE11round_errorEv
FN:427,427,_ZNSt14numeric_limitsIbE8infinityEv
FN:430,430,_ZNSt14numeric_limitsIbE9quiet_NaNEv
FN:433,433,_ZNSt14numeric_limitsIbE13signaling_NaNEv
FN:436,436,_ZNSt14numeric_limitsIbE10denorm_minEv
FN:458,458,_ZNSt14numeric_limitsIcE3minEv
FN:461,461,_ZNSt14numeric_limitsIcE3maxEv
FN:465,465,_ZNSt14numeric_limitsIcE6lowestEv
FN:479,479,_ZNSt14numeric_limitsIcE7epsilonEv
FN:482,482,_ZNSt14numeric_limitsIcE11round_errorEv
FN:497,497,_ZNSt14numeric_limitsIcE8infinityEv
FN:500,500,_ZNSt14numeric_limitsIcE9quiet_NaNEv
FN:503,503,_ZNSt14numeric_limitsIcE13signaling_NaNEv
FN:506,506,_ZNSt14numeric_limitsIcE10denorm_minEv
FN:525,525,_ZNSt14numeric_limitsIaE3minEv
FN:528,528,_ZNSt14numeric_limitsIaE3maxEv
FN:532,532,_ZNSt14numeric_limitsIaE6lowestEv
FN:547,547,_ZNSt14numeric_limitsIaE7epsilonEv
FN:550,550,_ZNSt14numeric_limitsIaE11round_errorEv
FN:565,565,_ZNSt14numeric_limitsIaE8infinityEv
FN:568,568,_ZNSt14numeric_limitsIaE9quiet_NaNEv
FN:571,572,_ZNSt14numeric_limitsIaE13signaling_NaNEv
FN:575,576,_ZNSt14numeric_limitsIaE10denorm_minEv
FN:595,595,_ZNSt14numeric_limitsIhE3minEv
FN:598,598,_ZNSt14numeric_limitsIhE3maxEv
FN:602,602,_ZNSt14numeric_limitsIhE6lowestEv
FN:618,618,_ZNSt14numeric_limitsIhE7epsilonEv
FN:621,621,_ZNSt14numeric_limitsIhE11round_errorEv
FN:636,637,_ZNSt14numeric_limitsIhE8infinityEv
FN:640,641,_ZNSt14numeric_limitsIhE9quiet_NaNEv
FN:644,645,_ZNSt14numeric_limitsIhE13signaling_NaNEv
FN:648,649,_ZNSt14numeric_limitsIhE10denorm_minEv
FN:668,668,_ZNSt14numeric_limitsIwE3minEv
FN:671,671,_ZNSt14numeric_limitsIwE3maxEv
FN:675,675,_ZNSt14numeric_limitsIwE6lowestEv
FN:690,690,_ZNSt14numeric_limitsIwE7epsilonEv
FN:693,693,_ZNSt14numeric_limitsIwE11round_errorEv
FN:708,708,_ZNSt14numeric_limitsIwE8infinityEv
FN:711,711,_ZNSt14numeric_limitsIwE9quiet_NaNEv
FN:714,714,_ZNSt14numeric_limitsIwE13signaling_NaNEv
FN:717,717,_ZNSt14numeric_limitsIwE10denorm_minEv
FN:802,802,_ZNSt14numeric_limitsIDsE3minEv
FN:805,805,_ZNSt14numeric_limitsIDsE3maxEv
FN:808,808,_ZNSt14numeric_limitsIDsE6lowestEv
FN:819,819,_ZNSt14numeric_limitsIDsE7epsilonEv
FN:822,822,_ZNSt14numeric_limitsIDsE11round_errorEv
FN:836,836,_ZNSt14numeric_limitsIDsE8infinityEv
FN:839,839,_ZNSt14numeric_limitsIDsE9quiet_NaNEv
FN:842,842,_ZNSt14numeric_limitsIDsE13signaling_NaNEv
FN:845,845,_ZNSt14numeric_limitsIDsE10denorm_minEv
FN:863,863,_ZNSt14numeric_limitsIDiE3minEv
FN:866,866,_ZNSt14numeric_limitsIDiE3maxEv
FN:869,869,_ZNSt14numeric_limitsIDiE6lowestEv
FN:880,880,_ZNSt14numeric_limitsIDiE7epsilonEv
FN:883,883,_ZNSt14numeric_limitsIDiE11round_errorEv
FN:897,897,_ZNSt14numeric_limitsIDiE8infinityEv
FN:900,900,_ZNSt14numeric_limitsIDiE9quiet_NaNEv
FN:903,903,_ZNSt14numeric_limitsIDiE13signaling_NaNEv
FN:906,906,_ZNSt14numeric_limitsIDiE10denorm_minEv
FN:925,925,_ZNSt14numeric_limitsIsE3minEv
FN:928,928,_ZNSt14numeric_limitsIsE3maxEv
FN:932,932,_ZNSt14numeric_limitsIsE6lowestEv
FN:946,946,_ZNSt14numeric_limitsIsE7epsilonEv
FN:949,949,_ZNSt14numeric_limitsIsE11round_errorEv
FN:964,964,_ZNSt14numeric_limitsIsE8infinityEv
FN:967,967,_ZNSt14numeric_limitsIsE9quiet_NaNEv
FN:970,970,_ZNSt14numeric_limitsIsE13signaling_NaNEv
FN:973,973,_ZNSt14numeric_limitsIsE10denorm_minEv
FN:992,992,_ZNSt14numeric_limitsItE3minEv
FN:995,995,_ZNSt14numeric_limitsItE3maxEv
FN:999,999,_ZNSt14numeric_limitsItE6lowestEv
FNDA:0,_ZNSt14numeric_limitsItE7epsilonEv
FNDA:0,_ZNSt14numeric_limitsItE11round_errorEv
FNDA:0,_ZNSt14numeric_limitsItE8infinityEv
FNDA:0,_ZNSt14numeric_limitsItE9quiet_NaNEv
FNDA:0,_ZNSt14numeric_limitsItE13signaling_NaNEv
FNDA:0,_ZNSt14numeric_limitsItE10denorm_minEv
FNDA:0,_ZNSt14numeric_limitsIiE3minEv
FNDA:0,_ZNSt14numeric_limitsIiE3maxEv
FNDA:0,_ZNSt14numeric_limitsIiE6lowestEv
FNDA:0,_ZNSt14numeric_limitsIiE7epsilonEv
FNDA:0,_ZNSt14numeric_limitsIiE11round_errorEv
FNDA:0,_ZNSt14numeric_limitsIiE8infinityEv
FNDA:0,_ZNSt14numeric_limitsIiE9quiet_NaNEv
FNDA:0,_ZNSt14numeric_limitsIiE13signaling_NaNEv
FNDA:0,_ZNSt14numeric_limitsIiE10denorm_minEv
FNDA:0,_ZNSt14numeric_limitsIjE3minEv
FNDA:0,_ZNSt14numeric_limitsIjE3maxEv
FNDA:0,_ZNSt14numeric_limitsIjE6lowestEv
FNDA:0,_ZNSt14numeric_limitsIjE7epsilonEv
FNDA:0,_ZNSt14numeric_limitsIjE11round_errorEv
FNDA:0,_ZNSt14numeric_limitsIjE8infinityEv
FNDA:0,_ZNSt14numeric_limitsIjE9quiet_NaNEv
FNDA:0,_ZNSt14numeric_limitsIjE13signaling_NaNEv
FNDA:0,_ZNSt14numeric_limitsIjE10denorm_minEv
FNDA:0,_ZNSt14numeric_limitsIlE3minEv
FNDA:0,_ZNSt14numeric_limitsIlE3maxEv
FNDA:0,_ZNSt14numeric_limitsIlE6lowestEv
FNDA:0,_ZNSt14numeric_limitsIlE7epsilonEv
FNDA:0,_ZNSt14numeric_limitsIlE11round_errorEv
FNDA:0,_ZNSt14numeric_limitsIlE8infinityEv
FNDA:0,_ZNSt14numeric_limitsIlE9quiet_NaNEv
FNDA:0,_ZNSt14numeric_limitsIlE13signaling_NaNEv
FNDA:0,_ZNSt14numeric_limitsIlE10denorm_minEv
FNDA:0,_ZNSt14numeric_limitsImE3minEv
FNDA:0,_ZNSt14numeric_limitsImE3maxEv
FNDA:0,_ZNSt14numeric_limitsImE6lowestEv
FNDA:0,_ZNSt14numeric_limitsImE7epsilonEv
FNDA:0,_ZNSt14numeric_limitsImE11round_errorEv
FNDA:0,_ZNSt14numeric_limitsImE8infinityEv
FNDA:0,_ZNSt14numeric_limitsImE9quiet_NaNEv
FNDA:0,_ZNSt14numeric_limitsImE13signaling_NaNEv
FNDA:0,_ZNSt14numeric_limitsImE10denorm_minEv
FNDA:0,_ZNSt14numeric_limitsIxE3minEv
FNDA:0,_ZNSt14numeric_limitsIxE3maxEv
FNDA:0,_ZNSt14numeric_limitsIxE6lowestEv
FNDA:0,_ZNSt14numeric_limitsIxE7epsilonEv
FNDA:0,_ZNSt14numeric_limitsIxE11round_errorEv
FNDA:0,_ZNSt14numeric_limitsIxE8infinityEv
FNDA:0,_ZNSt14numeric_limitsIxE9quiet_NaNEv
FNDA:0,_ZNSt14numeric_limitsIxE13signaling_NaNEv
FNDA:0,_ZNSt14numeric_limitsIxE10denorm_minEv
FNDA:0,_ZNSt14numeric_limitsIyE3minEv
FNDA:0,_ZNSt14numeric_limitsIyE3maxEv
FNDA:0,_ZNSt14numeric_limitsIyE6lowestEv
FNDA:0,_ZNSt14numeric_limitsIyE7epsilonEv
FNDA:0,_ZNSt14numeric_limitsIyE11round_errorEv
FNDA:0,_ZNSt14numeric_limitsIyE8infinityEv
FNDA:0,_ZNSt14numeric_limitsIyE9quiet_NaNEv
FNDA:0,_ZNSt14numeric_limitsIyE13signaling_NaNEv
FNDA:0,_ZNSt14numeric_limitsIyE10denorm_minEv
FNDA:0,_ZNSt14numeric_limitsInE10denorm_minEv
FNDA:0,_ZNSt14numeric_limitsInE11round_errorEv
FNDA:0,_ZNSt14numeric_limitsInE13signaling_NaNEv
FNDA:0,_ZNSt14numeric_limitsInE3maxEv
FNDA:0,_ZNSt14numeric_limitsInE3minEv
FNDA:0,_ZNSt14numeric_limitsInE6lowestEv
FNDA:0,_ZNSt14numeric_limitsInE7epsilonEv
FNDA:0,_ZNSt14numeric_limitsInE8infinityEv
FNDA:0,_ZNSt14numeric_limitsInE9quiet_NaNEv
FNDA:0,_ZNSt14numeric_limitsIoE10denorm_minEv
FNDA:0,_ZNSt14numeric_limitsIoE11round_errorEv
FNDA:0,_ZNSt14numeric_limitsIoE13signaling_NaNEv
FNDA:0,_ZNSt14numeric_limitsIoE3maxEv
FNDA:0,_ZNSt14numeric_limitsIoE3minEv
FNDA:0,_ZNSt14numeric_limitsIoE6lowestEv
FNDA:0,_ZNSt14numeric_limitsIoE7epsilonEv
FNDA:0,_ZNSt14numeric_limitsIoE8infinityEv
FNDA:0,_ZNSt14numeric_limitsIoE9quiet_NaNEv
FNDA:0,_ZNSt14numeric_limitsIfE3minEv
FNDA:0,_ZNSt14numeric_limitsIfE3maxEv
FNDA:0,_ZNSt14numeric_limitsIfE6lowestEv
FNDA:0,_ZNSt14numeric_limitsIfE7epsilonEv
FNDA:0,_ZNSt14numeric_limitsIfE11round_errorEv
FNDA:0,_ZNSt14numeric_limitsIfE8infinityEv
FNDA:0,_ZNSt14numeric_limitsIfE9quiet_NaNEv
FNDA:0,_ZNSt14numeric_limitsIfE13signaling_NaNEv
FNDA:0,_ZNSt14numeric_limitsIfE10denorm_minEv
FNDA:0,_ZNSt14numeric_limitsIdE3minEv
FNDA:0,_ZNSt14numeric_limitsIdE3maxEv
FNDA:0,_ZNSt14numeric_limitsIdE6lowestEv
FNDA:0,_ZNSt14numeric_limitsIdE7epsilonEv
FNDA:0,_ZNSt14numeric_limitsIdE11round_errorEv
FNDA:0,_ZNSt14numeric_limitsIdE8infinityEv
FNDA:0,_ZNSt14numeric_limitsIdE9quiet_NaNEv
FNDA:0,_ZNSt14numeric_limitsIdE13signaling_NaNEv
FNDA:0,_ZNSt14numeric_limitsIdE10denorm_minEv
FNDA:0,_ZNSt14numeric_limitsIeE3minEv
FNDA:0,_ZNSt14numeric_limitsIeE3maxEv
FNDA:0,_ZNSt14numeric_limitsIeE6lowestEv
FNDA:0,_ZNSt14numeric_limitsIeE7epsilonEv
FNDA:0,_ZNSt14numeric_limitsIeE11round_errorEv
FNDA:0,_ZNSt14numeric_limitsIeE8infinityEv
FNDA:0,_ZNSt14numeric_limitsIeE9quiet_NaNEv
FNDA:0,_ZNSt14numeric_limitsIeE13signaling_NaNEv
FNDA:0,_ZNSt14numeric_limitsIeE10denorm_minEv
FNDA:0,_ZNSt14numeric_limitsIbE3minEv
FNDA:0,_ZNSt14numeric_limitsIbE3maxEv
FNDA:0,_ZNSt14numeric_limitsIbE6lowestEv
FNDA:0,_ZNSt14numeric_limitsIbE7epsilonEv
FNDA:0,_ZNSt14numeric_limitsIbE11round_errorEv
FNDA:0,_ZNSt14numeric_limitsIbE8infinityEv
FNDA:0,_ZNSt14numeric_limitsIbE9quiet_NaNEv
FNDA:0,_ZNSt14numeric_limitsIbE13signaling_NaNEv
FNDA:0,_ZNSt14numeric_limitsIbE10denorm_minEv
FNDA:0,_ZNSt14numeric_limitsIcE3minEv
FNDA:0,_ZNSt14numeric_limitsIcE3maxEv
FNDA:0,_ZNSt14numeric_limitsIcE6lowestEv
FNDA:0,_ZNSt14numeric_limitsIcE7epsilonEv
FNDA:0,_ZNSt14numeric_limitsIcE11round_errorEv
FNDA:0,_ZNSt14numeric_limitsIcE8infinityEv
FNDA:0,_ZNSt14numeric_limitsIcE9quiet_NaNEv
FNDA:0,_ZNSt14numeric_limitsIcE13signaling_NaNEv
FNDA:0,_ZNSt14numeric_limitsIcE10denorm_minEv
FNDA:0,_ZNSt14numeric_limitsIaE3minEv
FNDA:0,_ZNSt14numeric_limitsIaE3maxEv
FNDA:0,_ZNSt14numeric_limitsIaE6lowestEv
FNDA:0,_ZNSt14numeric_limitsIaE7epsilonEv
FNDA:0,_ZNSt14numeric_limitsIaE11round_errorEv
FNDA:0,_ZNSt14numeric_limitsIaE8infinityEv
FNDA:0,_ZNSt14numeric_limitsIaE9quiet_NaNEv
FNDA:0,_ZNSt14numeric_limitsIaE13signaling_NaNEv
FNDA:0,_ZNSt14numeric_limitsIaE10denorm_minEv
FNDA:0,_ZNSt14numeric_limitsIhE3minEv
FNDA:0,_ZNSt14numeric_limitsIhE3maxEv
FNDA:0,_ZNSt14numeric_limitsIhE6lowestEv
FNDA:0,_ZNSt14numeric_limitsIhE7epsilonEv
FNDA:0,_ZNSt14numeric_limitsIhE11round_errorEv
FNDA:0,_ZNSt14numeric_limitsIhE8infinityEv
FNDA:0,_ZNSt14numeric_limitsIhE9quiet_NaNEv
FNDA:0,_ZNSt14numeric_limitsIhE13signaling_NaNEv
FNDA:0,_ZNSt14numeric_limitsIhE10denorm_minEv
FNDA:0,_ZNSt14numeric_limitsIwE3minEv
FNDA:0,_ZNSt14numeric_limitsIwE3maxEv
FNDA:0,_ZNSt14numeric_limitsIwE6lowestEv
FNDA:0,_ZNSt14numeric_limitsIwE7epsilonEv
FNDA:0,_ZNSt14numeric_limitsIwE11round_errorEv
FNDA:0,_ZNSt14numeric_limitsIwE8infinityEv
FNDA:0,_ZNSt14numeric_limitsIwE9quiet_NaNEv
FNDA:0,_ZNSt14numeric_limitsIwE13signaling_NaNEv
FNDA:0,_ZNSt14numeric_limitsIwE10denorm_minEv
FNDA:0,_ZNSt14numeric_limitsIDsE3minEv
FNDA:0,_ZNSt14numeric_limitsIDsE3maxEv
FNDA:0,_ZNSt14numeric_limitsIDsE6lowestEv
FNDA:0,_ZNSt14numeric_limitsIDsE7epsilonEv
FNDA:0,_ZNSt14numeric_limitsIDsE11round_errorEv
FNDA:0,_ZNSt14numeric_limitsIDsE8infinityEv
FNDA:0,_ZNSt14numeric_limitsIDsE9quiet_NaNEv
FNDA:0,_ZNSt14numeric_limitsIDsE13signaling_NaNEv
FNDA:0,_ZNSt14numeric_limitsIDsE10denorm_minEv
FNDA:0,_ZNSt14numeric_limitsIDiE3minEv
FNDA:0,_ZNSt14numeric_limitsIDiE3maxEv
FNDA:0,_ZNSt14numeric_limitsIDiE6lowestEv
FNDA:0,_ZNSt14numeric_limitsIDiE7epsilonEv
FNDA:0,_ZNSt14numeric_limitsIDiE11round_errorEv
FNDA:0,_ZNSt14numeric_limitsIDiE8infinityEv
FNDA:0,_ZNSt14numeric_limitsIDiE9quiet_NaNEv
FNDA:0,_ZNSt14numeric_limitsIDiE13signaling_NaNEv
FNDA:0,_ZNSt14numeric_limitsIDiE10denorm_minEv
FNDA:0,_ZNSt14numeric_limitsIsE3minEv
FNDA:0,_ZNSt14numeric_limitsIsE3maxEv
FNDA:0,_ZNSt14numeric_limitsIsE6lowestEv
FNDA:0,_ZNSt14numeric_limitsIsE7epsilonEv
FNDA:0,_ZNSt14numeric_limitsIsE11round_errorEv
FNDA:0,_ZNSt14numeric_limitsIsE8infinityEv
FNDA:0,_ZNSt14numeric_limitsIsE9quiet_NaNEv
FNDA:0,_ZNSt14numeric_limitsIsE13signaling_NaNEv
FNDA:0,_ZNSt14numeric_limitsIsE10denorm_minEv
FNDA:0,_ZNSt14numeric_limitsItE3minEv
FNDA:0,_ZNSt14numeric_limitsItE3maxEv
FNDA:0,_ZNSt14numeric_limitsItE6lowestEv
FNF:180
FNH:0
DA:389,0
DA:392,0
DA:396,0
DA:409,0
DA:412,0
DA:427,0
DA:430,0
DA:433,0
DA:436,0
DA:458,0
DA:461,0
DA:465,0
DA:479,0
DA:482,0
DA:497,0
DA:500,0
DA:503,0
DA:506,0
DA:525,0
DA:528,0
DA:532,0
DA:547,0
DA:550,0
DA:565,0
DA:568,0
DA:571,0
DA:572,0
DA:575,0
DA:576,0
DA:595,0
DA:598,0
DA:602,0
DA:618,0
DA:621,0
DA:636,0
DA:637,0
DA:640,0
DA:641,0
DA:644,0
DA:645,0
DA:648,0
DA:649,0
DA:668,0
DA:671,0
DA:675,0
DA:690,0
DA:693,0
DA:708,0
DA:711,0
DA:714,0
DA:717,0
DA:802,0
DA:805,0
DA:808,0
DA:819,0
DA:822,0
DA:836,0
DA:839,0
DA:842,0
DA:845,0
DA:863,0
DA:866,0
DA:869,0
DA:880,0
DA:883,0
DA:897,0
DA:900,0
DA:903,0
DA:906,0
DA:925,0
DA:928,0
DA:932,0
DA:946,0
DA:949,0
DA:964,0
DA:967,0
DA:970,0
DA:973,0
DA:992,0
DA:995,0
DA:999,0
DA:1015,0
DA:1018,0
DA:1033,0
DA:1034,0
DA:1037,0
DA:1038,0
DA:1041,0
DA:1042,0
DA:1045,0
DA:1046,0
DA:1065,0
DA:1068,0
DA:1072,0
DA:1086,0
DA:1089,0
DA:1104,0
DA:1107,0
DA:1110,0
DA:1113,0
DA:1132,0
DA:1135,0
DA:1139,0
DA:1155,0
DA:1158,0
DA:1173,0
DA:1176,0
DA:1177,0
DA:1180,0
DA:1181,0
DA:1184,0
DA:1185,0
DA:1204,0
DA:1207,0
DA:1211,0
DA:1225,0
DA:1228,0
DA:1243,0
DA:1246,0
DA:1249,0
DA:1252,0
DA:1271,0
DA:1274,0
DA:1278,0
DA:1294,0
DA:1297,0
DA:1312,0
DA:1313,0
DA:1316,0
DA:1317,0
DA:1320,0
DA:1321,0
DA:1324,0
DA:1325,0
DA:1344,0
DA:1347,0
DA:1351,0
DA:1367,0
DA:1370,0
DA:1385,0
DA:1388,0
DA:1391,0
DA:1392,0
DA:1395,0
DA:1414,0
DA:1417,0
DA:1421,0
DA:1437,0
DA:1440,0
DA:1455,0
DA:1456,0
DA:1459,0
DA:1460,0
DA:1463,0
DA:1464,0
DA:1467,0
DA:1468,0
DA:1658,0
DA:1675,0
DA:1678,0
DA:1682,0
DA:1697,0
DA:1700,0
DA:1716,0
DA:1719,0
DA:1722,0
DA:1725,0
DA:1750,0
DA:1753,0
DA:1757,0
DA:1772,0
DA:1775,0
DA:1791,0
DA:1794,0
DA:1797,0
DA:1800,0
DA:1825,0
DA:1828,0
DA:1832,0
DA:1847,0
DA:1850,0
DA:1866,0
DA:1869,0
DA:1872,0
DA:1875,0
LF:185
LH:0
end_of_record
TN:
SF:/usr/include/c++/13/memory
FN:123,123,_ZSt17declare_reachablePv
FN:132,132,_ZSt19declare_no_pointersPcm
FN:136,136,_ZSt21undeclare_no_pointersPcm
FN:140,140,_ZSt18get_pointer_safetyv
FNDA:0,_ZSt17declare_reachablePv
FNDA:0,_ZSt19declare_no_pointersPcm
FNDA:0,_ZSt21undeclare_no_pointersPcm
FNDA:0,_ZSt18get_pointer_safetyv
FNF:4
FNH:0
DA:123,0
DA:132,0
DA:136,0
DA:140,0
LF:4
LH:0
end_of_record
TN:
SF:/usr/include/c++/13/mutex
FN:118,125,_ZNSt15recursive_mutex4lockEv
FN:129,133,_ZNSt15recursive_mutex8try_lockEv
FN:136,140,_ZNSt15recursive_mutex6unlockEv
FN:143,144,_ZNSt15recursive_mutex13native_handleEv
FN:248,255,_ZNSt11timed_mutex4lockEv
FN:259,263,_ZNSt11timed_mutex8try_lockEv
FN:278,282,_ZNSt11timed_mutex6unlockEv
FN:285,286,_ZNSt11timed_mutex13native_handleEv
FN:292,293,_ZNSt11timed_mutex12_M_timedlockERK8timespec
FN:297,298,_ZNSt11timed_mutex12_M_clocklockEiRK8timespec
FN:326,333,_ZNSt21recursive_timed_mutex4lockEv
FN:337,341,_ZNSt21recursive_timed_mutex8try_lockEv
FN:356,360,_ZNSt21recursive_timed_mutex6unlockEv
FN:363,364,_ZNSt21recursive_timed_mutex13native_handleEv
FN:370,371,_ZNSt21recursive_timed_mutex12_M_timedlockERK8timespec
FN:375,376,_ZNSt21recursive_timed_mutex12_M_clocklockEiRK8timespec
FN:765,765,_ZNSt11scoped_lockIJEEC2ESt12adopt_lock_t
FN:839,844,_ZNSt9once_flag18_Prepare_executionD2Ev
FNDA:0,_ZNSt15recursive_mutex4lockEv
FNDA:0,_ZNSt15recursive_mutex8try_lockEv
FNDA:0,_ZNSt15recursive_mutex6unlockEv
FNDA:0,_ZNSt15recursive_mutex13native_handleEv
FNDA:0,_ZNSt11timed_mutex4lockEv
FNDA:0,_ZNSt11timed_mutex8try_lockEv
FNDA:0,_ZNSt11timed_mutex6unlockEv
FNDA:0,_ZNSt11timed_mutex13native_handleEv
FNDA:0,_ZNSt11timed_mutex12_M_timedlockERK8timespec
FNDA:0,_ZNSt11timed_mutex12_M_clocklockEiRK8timespec
FNDA:0,_ZNSt21recursive_timed_mutex4lockEv
FNDA:0,_ZNSt21recursive_timed_mutex8try_lockEv
FNDA:0,_ZNSt21recursive_timed_mutex6unlockEv
FNDA:0,_ZNSt21recursive_timed_mutex13native_handleEv
FNDA:0,_ZNSt21recursive_timed_mutex12_M_timedlockERK8timespec
FNDA:0,_ZNSt21recursive_timed_mutex12_M_clocklockEiRK8timespec
FNDA:0,_ZNSt11scoped_lockIJEEC2ESt12adopt_lock_t
FNDA:0,_ZNSt9once_flag18_Prepare_executionD2Ev
FNF:18
FNH:0
DA:118,0
DA:120,0
DA:123,0
DA:124,0
DA:125,0
DA:129,0
DA:132,0
DA:136,0
DA:139,0
DA:140,0
DA:143,0
DA:144,0
DA:248,0
DA:250,0
DA:253,0
DA:254,0
DA:255,0
DA:259,0
DA:262,0
DA:278,0
DA:281,0
DA:282,0
DA:285,0
DA:286,0
DA:292,0
DA:293,0
DA:297,0
DA:298,0
DA:326,0
DA:328,0
DA:331,0
DA:332,0
DA:333,0
DA:337,0
DA:340,0
DA:356,0
DA:359,0
DA:360,0
DA:363,0
DA:364,0
DA:370,0
DA:371,0
DA:375,0
DA:376,0
DA:765,0
DA:839,0
DA:842,0
DA:843,0
DA:844,0
LF:49
LH:0
end_of_record
TN:
SF:/usr/include/c++/13/new
FN:174,175,_ZnwmPv
FN:176,177,_ZnamPv
FN:180,180,_ZdlPvS_
FN:181,181,_ZdaPvS_
FN:58,58,_ZNSt9bad_allocC2Ev
FN:77,77,_ZNSt20bad_array_new_lengthC2Ev
FNDA:326,_ZnwmPv
FNDA:0,_ZnamPv
FNDA:0,_ZdlPvS_
FNDA:0,_ZdaPvS_
FNDA:0,_ZNSt9bad_allocC2Ev
FNDA:0,_ZNSt20bad_array_new_lengthC2Ev
FNF:6
FNH:1
DA:58,0
DA:77,0
DA:174,326
DA:175,326
DA:176,0
DA:177,0
DA:180,0
DA:181,0
LF:8
LH:2
end_of_record
TN:
SF:/usr/include/c++/13/optional
FN:101,101,_ZNSt19bad_optional_accessC2Ev
FN:102,102,_ZNSt19bad_optional_accessD0Ev
FN:102,102,_ZNSt19bad_optional_accessD2Ev
FN:104,105,_ZNKSt19bad_optional_access4whatEv
FN:110,111,_ZSt27__throw_bad_optional_accessv
FN:85,85,_ZNSt9nullopt_tC2ENS_10_ConstructE
FNDA:0,_ZNSt19bad_optional_accessC2Ev
FNDA:0,_ZNSt19bad_optional_accessD0Ev
FNDA:0,_ZNSt19bad_optional_accessD2Ev
FNDA:0,_ZNKSt19bad_optional_access4whatEv
FNDA:0,_ZSt27__throw_bad_optional_accessv
FNDA:0,_ZNSt9nullopt_tC2ENS_10_ConstructE
FNF:6
FNH:0
DA:85,0
DA:101,0
DA:102,0
DA:104,0
DA:105,0
DA:110,0
DA:111,0
LF:7
LH:0
end_of_record
TN:
SF:/usr/include/c++/13/pstl/execution_defs.h
FN:103,106,_ZN6__pstl9execution2v118unsequenced_policy16__allow_parallelEv
FN:28,31,_ZN6__pstl9execution2v116sequenced_policy19__allow_unsequencedEv
FN:33,36,_ZN6__pstl9execution2v116sequenced_policy14__allow_vectorEv
FN:38,41,_ZN6__pstl9execution2v116sequenced_policy16__allow_parallelEv
FN:50,53,_ZN6__pstl9execution2v115parallel_policy19__allow_unsequencedEv
FN:55,58,_ZN6__pstl9execution2v115parallel_policy14__allow_vectorEv
FN:60,63,_ZN6__pstl9execution2v115parallel_policy16__allow_parallelEv
FN:72,75,_ZN6__pstl9execution2v127parallel_unsequenced_policy19__allow_unsequencedEv
FN:77,80,_ZN6__pstl9execution2v127parallel_unsequenced_policy14__allow_vectorEv
FN:82,85,_ZN6__pstl9execution2v127parallel_unsequenced_policy16__allow_parallelEv
FN:93,96,_ZN6__pstl9execution2v118unsequenced_policy19__allow_unsequencedEv
FN:98,101,_ZN6__pstl9execution2v118unsequenced_policy14__allow_vectorEv
FNDA:0,_ZN6__pstl9execution2v118unsequenced_policy16__allow_parallelEv
FNDA:0,_ZN6__pstl9execution2v116sequenced_policy19__allow_unsequencedEv
FNDA:0,_ZN6__pstl9execution2v116sequenced_policy14__allow_vectorEv
FNDA:0,_ZN6__pstl9execution2v116sequenced_policy16__allow_parallelEv
FNDA:0,_ZN6__pstl9execution2v115parallel_policy19__allow_unsequencedEv
FNDA:0,_ZN6__pstl9execution2v115parallel_policy14__allow_vectorEv
FNDA:0,_ZN6__pstl9execution2v115parallel_policy16__allow_parallelEv
FNDA:0,_ZN6__pstl9execution2v127parallel_unsequenced_policy19__allow_unsequencedEv
FNDA:0,_ZN6__pstl9execution2v127parallel_unsequenced_policy14__allow_vectorEv
FNDA:0,_ZN6__pstl9execution2v127parallel_unsequenced_policy16__allow_parallelEv
FNDA:0,_ZN6__pstl9execution2v118unsequenced_policy19__allow_unsequencedEv
FNDA:0,_ZN6__pstl9execution2v118unsequenced_policy14__allow_vectorEv
FNF:12
FNH:0
DA:28,0
DA:30,0
DA:33,0
DA:35,0
DA:38,0
DA:40,0
DA:50,0
DA:52,0
DA:55,0
DA:57,0
DA:60,0
DA:62,0
DA:72,0
DA:74,0
DA:77,0
DA:79,0
DA:82,0
DA:84,0
DA:93,0
DA:95,0
DA:98,0
DA:100,0
DA:103,0
DA:105,0
LF:24
LH:0
end_of_record
TN:
SF:/usr/include/c++/13/ratio
FN:311,321,_ZSt17__are_both_ratiosISt5ratioILl1ELl1000000000EES0_ILl1ELl1EEEbv
FN:311,321,_ZSt17__are_both_ratiosISt5ratioILl1ELl1EES0_ILl1000000000ELl1EEEbv
FNDA:0,_ZSt17__are_both_ratiosISt5ratioILl1ELl1000000000EES0_ILl1ELl1EEEbv
FNDA:0,_ZSt17__are_both_ratiosISt5ratioILl1ELl1EES0_ILl1000000000ELl1EEEbv
FNF:2
FNH:0
DA:311,0
DA:316,0
LF:2
LH:0
end_of_record
TN:
SF:/usr/include/c++/13/sstream
FNF:0
FNH:0
LF:0
LH:0
end_of_record
TN:
SF:/usr/include/c++/13/string_view
FN:140,143,_ZNSt17basic_string_viewIcSt11char_traitsIcEEC1EPKc
FN:140,143,_ZNSt17basic_string_viewIcSt11char_traitsIcEEC2EPKc
FN:146,148,_ZNSt17basic_string_viewIDiSt11char_traitsIDiEEC2EPKDim
FN:146,148,_ZNSt17basic_string_viewIDsSt11char_traitsIDsEEC2EPKDsm
FN:146,148,_ZNSt17basic_string_viewIcSt11char_traitsIcEEC2EPKcm
FN:146,148,_ZNSt17basic_string_viewIwSt11char_traitsIwEEC2EPKwm
FN:229,230,_ZNKSt17basic_string_viewIcSt11char_traitsIcEE4sizeEv
FN:234,235,_ZNKSt17basic_string_viewIDiSt11char_traitsIDiEE6lengthEv
FN:234,235,_ZNKSt17basic_string_viewIDsSt11char_traitsIDsEE6lengthEv
FN:234,235,_ZNKSt17basic_string_viewIcSt11char_traitsIcEE6lengthEv
FN:234,235,_ZNKSt17basic_string_viewIwSt11char_traitsIwEE6lengthEv
FN:289,290,_ZNKSt17basic_string_viewIDiSt11char_traitsIDiEE4dataEv
FN:289,290,_ZNKSt17basic_string_viewIDsSt11char_traitsIDsEE4dataEv
FN:289,290,_ZNKSt17basic_string_viewIcSt11char_traitsIcEE4dataEv
FN:289,290,_ZNKSt17basic_string_viewIwSt11char_traitsIwEE4dataEv
FN:70,76,_ZSt10__sv_checkmmPKc
FN:761,763,_ZStlsIcSt11char_traitsIcEERSt13basic_ostreamIT_T0_ES6_St17basic_string_viewIS3_S4_E
FN:787,788,_ZNKSt4hashISt17basic_string_viewIcSt11char_traitsIcEEEclERKS3_
FN:801,803,_ZNKSt4hashISt17basic_string_viewIwSt11char_traitsIwEEEclERKS3_
FN:81,85,_ZSt10__sv_limitmmm
FN:832,834,_ZNKSt4hashISt17basic_string_viewIDsSt11char_traitsIDsEEEclERKS3_
FN:847,849,_ZNKSt4hashISt17basic_string_viewIDiSt11char_traitsIDiEEEclERKS3_
FN:863,864,_ZNSt8literals20string_view_literalsli2svEPKcm
FN:867,868,_ZNSt8literals20string_view_literalsli2svEPKwm
FN:877,878,_ZNSt8literals20string_view_literalsli2svEPKDsm
FN:881,882,_ZNSt8literals20string_view_literalsli2svEPKDim
FNDA:0,_ZNSt17basic_string_viewIcSt11char_traitsIcEEC1EPKc
FNDA:1,_ZNSt17basic_string_viewIcSt11char_traitsIcEEC2EPKc
FNDA:0,_ZNSt17basic_string_viewIDiSt11char_traitsIDiEEC2EPKDim
FNDA:0,_ZNSt17basic_string_viewIDsSt11char_traitsIDsEEC2EPKDsm
FNDA:0,_ZNSt17basic_string_viewIcSt11char_traitsIcEEC2EPKcm
FNDA:0,_ZNSt17basic_string_viewIwSt11char_traitsIwEEC2EPKwm
FNDA:0,_ZNKSt17basic_string_viewIcSt11char_traitsIcEE4sizeEv
FNDA:0,_ZNKSt17basic_string_viewIDiSt11char_traitsIDiEE6lengthEv
FNDA:0,_ZNKSt17basic_string_viewIDsSt11char_traitsIDsEE6lengthEv
FNDA:0,_ZNKSt17basic_string_viewIcSt11char_traitsIcEE6lengthEv
FNDA:0,_ZNKSt17basic_string_viewIwSt11char_traitsIwEE6lengthEv
FNDA:0,_ZNKSt17basic_string_viewIDiSt11char_traitsIDiEE4dataEv
FNDA:0,_ZNKSt17basic_string_viewIDsSt11char_traitsIDsEE4dataEv
FNDA:0,_ZNKSt17basic_string_viewIcSt11char_traitsIcEE4dataEv
FNDA:0,_ZNKSt17basic_string_viewIwSt11char_traitsIwEE4dataEv
FNDA:0,_ZSt10__sv_checkmmPKc
FNDA:0,_ZStlsIcSt11char_traitsIcEERSt13basic_ostreamIT_T0_ES6_St17basic_string_viewIS3_S4_E
FNDA:0,_ZNKSt4hashISt17basic_string_viewIcSt11char_traitsIcEEEclERKS3_
FNDA:0,_ZNKSt4hashISt17basic_string_viewIwSt11char_traitsIwEEEclERKS3_
FNDA:0,_ZSt10__sv_limitmmm
FNDA:0,_ZNKSt4hashISt17basic_string_viewIDsSt11char_traitsIDsEEEclERKS3_
FNDA:0,_ZNKSt4hashISt17basic_string_viewIDiSt11char_traitsIDiEEEclERKS3_
FNDA:0,_ZNSt8literals20string_view_literalsli2svEPKcm
FNDA:0,_ZNSt8literals20string_view_literalsli2svEPKwm
FNDA:0,_ZNSt8literals20string_view_literalsli2svEPKDsm
FNDA:0,_ZNSt8literals20string_view_literalsli2svEPKDim
FNF:26
FNH:1
DA:70,0
DA:72,0
DA:73,0
DA:75,0
DA:81,0
DA:83,0
DA:84,0
DA:140,1
DA:141,1
DA:142,1
DA:143,1
DA:146,0
DA:147,0
DA:148,0
DA:229,0
DA:230,0
DA:234,0
DA:235,0
DA:289,0
DA:290,0
DA:761,0
DA:763,0
DA:787,0
DA:788,0
DA:801,0
DA:802,0
DA:803,0
DA:832,0
DA:833,0
DA:834,0
DA:847,0
DA:848,0
DA:849,0
DA:863,0
DA:864,0
DA:867,0
DA:868,0
DA:877,0
DA:878,0
DA:881,0
DA:882,0
LF:41
LH:4
end_of_record
TN:
SF:/usr/include/c++/13/system_error
FN:160,161,_ZNKSt3_V214error_categoryeqERKS0_
FN:171,172,_ZNKSt3_V214error_categoryltERKS0_
FN:175,176,_ZNKSt3_V214error_categoryneERKS0_
FN:230,231,_ZNSt10error_codeC2Ev
FN:233,234,_ZNSt10error_codeC2EiRKNSt3_V214error_categoryE
FN:249,253,_ZNSt10error_code6assignEiRKNSt3_V214error_categoryE
FN:256,257,_ZNSt10error_code5clearEv
FN:262,262,_ZNKSt10error_code5valueEv
FN:267,267,_ZNKSt10error_code8categoryEv
FN:276,277,_ZNKSt10error_code7messageB5cxx11Ev
FN:281,282,_ZNKSt10error_codecvbEv
FN:302,303,_ZSt15make_error_codeSt4errc
FN:324,329,_ZStltRKSt10error_codeS1_
FN:362,363,_ZNSt15error_conditionC2Ev
FN:366,367,_ZNSt15error_conditionC2EiRKNSt3_V214error_categoryE
FN:383,387,_ZNSt15error_condition6assignEiRKNSt3_V214error_categoryE
FN:391,392,_ZNSt15error_condition5clearEv
FN:399,399,_ZNKSt15error_condition5valueEv
FN:404,404,_ZNKSt15error_condition8categoryEv
FN:409,410,_ZNKSt15error_condition7messageB5cxx11Ev
FN:414,415,_ZNKSt15error_conditioncvbEv
FN:435,436,_ZSt20make_error_conditionSt4errc
FN:449,453,_ZSteqRKSt10error_codeS1_
FN:465,469,_ZSteqRKSt10error_codeRKSt15error_condition
FN:480,485,_ZSteqRKSt15error_conditionS1_
FN:507,513,_ZStltRKSt15error_conditionS1_
FN:517,521,_ZSteqRKSt15error_conditionRKSt10error_code
FN:525,526,_ZStneRKSt10error_codeS1_
FN:530,531,_ZStneRKSt10error_codeRKSt15error_condition
FN:535,536,_ZStneRKSt15error_conditionRKSt10error_code
FN:540,542,_ZStneRKSt15error_conditionS1_
FN:562,563,_ZNSt12system_errorC2ESt10error_code
FN:565,566,_ZNSt12system_errorC2ESt10error_codeRKNSt7__cxx1112basic_stringIcSt11char_traitsIcESaIcEEE
FN:568,569,_ZNSt12system_errorC2ESt10error_codePKc
FN:571,572,_ZNSt12system_errorC2EiRKNSt3_V214error_categoryEPKc
FN:574,576,_ZNSt12system_errorC2EiRKNSt3_V214error_categoryE
FN:578,580,_ZNSt12system_errorC2EiRKNSt3_V214error_categoryERKNSt7__cxx1112basic_stringIcSt11char_traitsIcESaIcEEE
FN:590,590,_ZNKSt12system_error4codeEv
FN:611,615,_ZNKSt4hashISt10error_codeEclERKS0_
FN:628,632,_ZNKSt4hashISt15error_conditionEclERKS0_
FNDA:0,_ZNKSt3_V214error_categoryeqERKS0_
FNDA:0,_ZNKSt3_V214error_categoryltERKS0_
FNDA:0,_ZNKSt3_V214error_categoryneERKS0_
FNDA:0,_ZNSt10error_codeC2Ev
FNDA:0,_ZNSt10error_codeC2EiRKNSt3_V214error_categoryE
FNDA:0,_ZNSt10error_code6assignEiRKNSt3_V214error_categoryE
FNDA:0,_ZNSt10error_code5clearEv
FNDA:0,_ZNKSt10error_code5valueEv
FNDA:0,_ZNKSt10error_code8categoryEv
FNDA:0,_ZNKSt10error_code7messageB5cxx11Ev
FNDA:0,_ZNKSt10error_codecvbEv
FNDA:0,_ZSt15make_error_codeSt4errc
FNDA:0,_ZStltRKSt10error_codeS1_
FNDA:0,_ZNSt15error_conditionC2Ev
FNDA:0,_ZNSt15error_conditionC2EiRKNSt3_V214error_categoryE
FNDA:0,_ZNSt15error_condition6assignEiRKNSt3_V214error_categoryE
FNDA:0,_ZNSt15error_condition5clearEv
FNDA:0,_ZNKSt15error_condition5valueEv
FNDA:0,_ZNKSt15error_condition8categoryEv
FNDA:0,_ZNKSt15error_condition7messageB5cxx11Ev
FNDA:0,_ZNKSt15error_conditioncvbEv
FNDA:0,_ZSt20make_error_conditionSt4errc
FNDA:0,_ZSteqRKSt10error_codeS1_
FNDA:0,_ZSteqRKSt10error_codeRKSt15error_condition
FNDA:0,_ZSteqRKSt15error_conditionS1_
FNDA:0,_ZStltRKSt15error_conditionS1_
FNDA:0,_ZSteqRKSt15error_conditionRKSt10error_code
FNDA:0,_ZStneRKSt10error_codeS1_
FNDA:0,_ZStneRKSt10error_codeRKSt15error_condition
FNDA:0,_ZStneRKSt15error_conditionRKSt10error_code
FNDA:0,_ZStneRKSt15error_conditionS1_
FNDA:0,_ZNSt12system_errorC2ESt10error_code
FNDA:0,_ZNSt12system_errorC2ESt10error_codeRKNSt7__cxx1112basic_stringIcSt11char_traitsIcESaIcEEE
FNDA:0,_ZNSt12system_errorC2ESt10error_codePKc
FNDA:0,_ZNSt12system_errorC2EiRKNSt3_V214error_categoryEPKc
FNDA:0,_ZNSt12system_errorC2EiRKNSt3_V214error_categoryE
FNDA:0,_ZNSt12system_errorC2EiRKNSt3_V214error_categoryERKNSt7__cxx1112basic_stringIcSt11char_traitsIcESaIcEEE
FNDA:0,_ZNKSt12system_error4codeEv
FNDA:0,_ZNKSt4hashISt10error_codeEclERKS0_
FNDA:0,_ZNKSt4hashISt15error_conditionEclERKS0_
FNF:40
FNH:0
DA:160,0
DA:161,0
DA:171,0
DA:172,0
DA:175,0
DA:176,0
DA:230,0
DA:231,0
DA:233,0
DA:234,0
DA:249,0
DA:251,0
DA:252,0
DA:253,0
DA:256,0
DA:257,0
DA:262,0
DA:267,0
DA:276,0
DA:277,0
DA:281,0
DA:282,0
DA:302,0
DA:303,0
DA:324,0
DA:326,0
DA:327,0
DA:328,0
DA:362,0
DA:363,0
DA:366,0
DA:367,0
DA:383,0
DA:385,0
DA:386,0
DA:387,0
DA:391,0
DA:392,0
DA:399,0
DA:404,0
DA:409,0
DA:410,0
DA:414,0
DA:415,0
DA:435,0
DA:436,0
DA:449,0
DA:451,0
DA:452,0
DA:465,0
DA:467,0
DA:468,0
DA:480,0
DA:483,0
DA:484,0
DA:507,0
DA:510,0
DA:511,0
DA:512,0
DA:517,0
DA:519,0
DA:520,0
DA:525,0
DA:526,0
DA:530,0
DA:531,0
DA:535,0
DA:536,0
DA:540,0
DA:542,0
DA:562,0
DA:563,0
DA:565,0
DA:566,0
DA:568,0
DA:569,0
DA:571,0
DA:572,0
DA:574,0
DA:575,0
DA:576,0
DA:578,0
DA:579,0
DA:580,0
DA:590,0
DA:611,0
DA:613,0
DA:614,0
DA:628,0
DA:630,0
DA:631,0
LF:91
LH:0
end_of_record
TN:
SF:/usr/include/c++/13/tuple
FN:1220,1220,_ZNSt5tupleIJEE4swapERS0_
FN:125,125,_ZNSt10_Head_baseILm1ESt14default_deleteIKN7testing16MatcherInterfaceINSt7__cxx1112basic_stringIcSt11char_traitsIcESaIcEEEEEELb1EE7_M_headERSC_
FN:125,125,_ZNSt10_Head_baseILm1ESt14default_deleteIKN7testing16MatcherInterfaceIRKNSt7__cxx1112basic_stringIcSt11char_traitsIcESaIcEEEEEELb1EE7_M_headERSE_
FN:125,125,_ZNSt10_Head_baseILm1ESt14default_deleteIKN7testing16MatcherInterfaceIRKSt17basic_string_viewIcSt11char_traitsIcEEEEELb1EE7_M_headERSC_
FN:125,125,_ZNSt10_Head_baseILm1ESt14default_deleteIKN7testing16MatcherInterfaceISt17basic_string_viewIcSt11char_traitsIcEEEEELb1EE7_M_headERSA_
FN:125,125,_ZNSt10_Head_baseILm1ESt14default_deleteIKbELb1EE7_M_headERS3_
FN:125,125,_ZNSt10_Head_baseILm1ESt14default_deleteINSt7__cxx1112basic_stringIcSt11char_traitsIcESaIcEEEELb1EE7_M_headERS8_
FN:125,125,_ZNSt10_Head_baseILm1ESt14default_deleteINSt7__cxx1118basic_stringstreamIcSt11char_traitsIcESaIcEEEELb1EE7_M_headERS8_
FN:1273,1277,_ZNSt5tupleIJPKN7testing16MatcherInterfaceINSt7__cxx1112basic_stringIcSt11char_traitsIcESaIcEEEEESt14default_deleteIS9_EEE12__assignableIRKSA_RKSC_EEbv
FN:1273,1277,_ZNSt5tupleIJPKN7testing16MatcherInterfaceINSt7__cxx1112basic_stringIcSt11char_traitsIcESaIcEEEEESt14default_deleteIS9_EEE12__assignableISA_SC_EEbv
FN:1273,1277,_ZNSt5tupleIJPKN7testing16MatcherInterfaceIRKNSt7__cxx1112basic_stringIcSt11char_traitsIcESaIcEEEEESt14default_deleteISB_EEE12__assignableIRKSC_RKSE_EEbv
FN:1273,1277,_ZNSt5tupleIJPKN7testing16MatcherInterfaceIRKNSt7__cxx1112basic_stringIcSt11char_traitsIcESaIcEEEEESt14default_deleteISB_EEE12__assignableISC_SE_EEbv
FN:1273,1277,_ZNSt5tupleIJPKN7testing16MatcherInterfaceIRKSt17basic_string_viewIcSt11char_traitsIcEEEESt14default_deleteIS9_EEE12__assignableIRKSA_RKSC_EEbv
FN:1273,1277,_ZNSt5tupleIJPKN7testing16MatcherInterfaceIRKSt17basic_string_viewIcSt11char_traitsIcEEEESt14default_deleteIS9_EEE12__assignableISA_SC_EEbv
FN:1273,1277,_ZNSt5tupleIJPKN7testing16MatcherInterfaceISt17basic_string_viewIcSt11char_traitsIcEEEESt14default_deleteIS7_EEE12__assignableIRKS8_RKSA_EEbv
FN:1273,1277,_ZNSt5tupleIJPKN7testing16MatcherInterfaceISt17basic_string_viewIcSt11char_traitsIcEEEESt14default_deleteIS7_EEE12__assignableIS8_SA_EEbv
FN:1273,1277,_ZNSt5tupleIJPKN7testing8internal11MatcherBaseINSt7__cxx1112basic_stringIcSt11char_traitsIcESaIcEEEEEPKNS0_16MatcherInterfaceIRKS8_EEEE12__assignableIRKSB_RKSH_EEbv
FN:1273,1277,_ZNSt5tupleIJPKN7testing8internal11MatcherBaseINSt7__cxx1112basic_stringIcSt11char_traitsIcESaIcEEEEEPKNS0_16MatcherInterfaceIRKS8_EEEE12__assignableISB_SH_EEbv
FN:1273,1277,_ZNSt5tupleIJPKN7testing8internal11MatcherBaseINSt7__cxx1112basic_stringIcSt11char_traitsIcESaIcEEEEEPKNS0_16MatcherInterfaceIS8_EEEE12__assignableIRKSB_RKSF_EEbv
FN:1273,1277,_ZNSt5tupleIJPKN7testing8internal11MatcherBaseINSt7__cxx1112basic_stringIcSt11char_traitsIcESaIcEEEEEPKNS0_16MatcherInterfaceIS8_EEEE12__assignableISB_SF_EEbv
FN:1273,1277,_ZNSt5tupleIJPKN7testing8internal11MatcherBaseIRKNSt7__cxx1112basic_stringIcSt11char_traitsIcESaIcEEEEEPKNS0_16MatcherInterfaceISA_EEEE12__assignableIRKSD_RKSH_EEbv
FN:1273,1277,_ZNSt5tupleIJPKN7testing8internal11MatcherBaseIRKNSt7__cxx1112basic_stringIcSt11char_traitsIcESaIcEEEEEPKNS0_16MatcherInterfaceISA_EEEE12__assignableISD_SH_EEbv
FN:1273,1277,_ZNSt5tupleIJPKN7testing8internal11MatcherBaseIRKSt17basic_string_viewIcSt11char_traitsIcEEEEPKNS0_16MatcherInterfaceIS8_EEEE12__assignableIRKSB_RKSF_EEbv
FN:1273,1277,_ZNSt5tupleIJPKN7testing8internal11MatcherBaseIRKSt17basic_string_viewIcSt11char_traitsIcEEEEPKNS0_16MatcherInterfaceIS8_EEEE12__assignableISB_SF_EEbv
FN:1273,1277,_ZNSt5tupleIJPKN7testing8internal11MatcherBaseISt17basic_string_viewIcSt11char_traitsIcEEEEPKNS0_16MatcherInterfaceIRKS6_EEEE12__assignableIRKS9_RKSF_EEbv
FN:1273,1277,_ZNSt5tupleIJPKN7testing8internal11MatcherBaseISt17basic_string_viewIcSt11char_traitsIcEEEEPKNS0_16MatcherInterfaceIRKS6_EEEE12__assignableIS9_SF_EEbv
FN:1273,1277,_ZNSt5tupleIJPKN7testing8internal11MatcherBaseISt17basic_string_viewIcSt11char_traitsIcEEEEPKNS0_16MatcherInterfaceIS6_EEEE12__assignableIRKS9_RKSD_EEbv
FN:1273,1277,_ZNSt5tupleIJPKN7testing8internal11MatcherBaseISt17basic_string_viewIcSt11char_traitsIcEEEEPKNS0_16MatcherInterfaceIS6_EEEE12__assignableIS9_SD_EEbv
FN:1273,1277,_ZNSt5tupleIJPKNSt7__cxx1112basic_stringIcSt11char_traitsIcESaIcEEESt14default_deleteIS6_EEE12__assignableIRKS7_RKS9_EEbv
FN:1273,1277,_ZNSt5tupleIJPKNSt7__cxx1112basic_stringIcSt11char_traitsIcESaIcEEESt14default_deleteIS6_EEE12__assignableIS7_S9_EEbv
FN:1273,1277,_ZNSt5tupleIJPKbSt14default_deleteIS0_EEE12__assignableIRKS1_RKS3_EEbv
FN:1273,1277,_ZNSt5tupleIJPKbSt14default_deleteIS0_EEE12__assignableIS1_S3_EEbv
FN:1273,1277,_ZNSt5tupleIJPN7testing8internal14GTestFlagSaverESt14default_deleteIS2_EEE12__assignableIRKS3_RKS5_EEbv
FN:1273,1277,_ZNSt5tupleIJPN7testing8internal14GTestFlagSaverESt14default_deleteIS2_EEE12__assignableIS3_S5_EEbv
FN:1273,1277,_ZNSt5tupleIJPNSt7__cxx1112basic_stringIcSt11char_traitsIcESaIcEEESt14default_deleteIS5_EEE12__assignableIRKS6_RKS8_EEbv
FN:1273,1277,_ZNSt5tupleIJPNSt7__cxx1112basic_stringIcSt11char_traitsIcESaIcEEESt14default_deleteIS5_EEE12__assignableIS6_S8_EEbv
FN:1273,1277,_ZNSt5tupleIJPNSt7__cxx1118basic_stringstreamIcSt11char_traitsIcESaIcEEESt14default_deleteIS5_EEE12__assignableIRKS6_RKS8_EEbv
FN:1273,1277,_ZNSt5tupleIJPNSt7__cxx1118basic_stringstreamIcSt11char_traitsIcESaIcEEESt14default_deleteIS5_EEE12__assignableIS6_S8_EEbv
FN:1287,1291,_ZNSt5tupleIJPKN7testing8internal11MatcherBaseINSt7__cxx1112basic_stringIcSt11char_traitsIcESaIcEEEEEPKNS0_16MatcherInterfaceIRKS8_EEEE23__nothrow_constructibleISB_SH_EEbv
FN:1287,1291,_ZNSt5tupleIJPKN7testing8internal11MatcherBaseINSt7__cxx1112basic_stringIcSt11char_traitsIcESaIcEEEEEPKNS0_16MatcherInterfaceIS8_EEEE23__nothrow_constructibleISB_SF_EEbv
FN:1287,1291,_ZNSt5tupleIJPKN7testing8internal11MatcherBaseIRKNSt7__cxx1112basic_stringIcSt11char_traitsIcESaIcEEEEEPKNS0_16MatcherInterfaceISA_EEEE23__nothrow_constructibleISD_SH_EEbv
FN:1287,1291,_ZNSt5tupleIJPKN7testing8internal11MatcherBaseIRKSt17basic_string_viewIcSt11char_traitsIcEEEEPKNS0_16MatcherInterfaceIS8_EEEE23__nothrow_constructibleISB_SF_EEbv
FN:1287,1291,_ZNSt5tupleIJPKN7testing8internal11MatcherBaseISt17basic_string_viewIcSt11char_traitsIcEEEEPKNS0_16MatcherInterfaceIRKS6_EEEE23__nothrow_constructibleIS9_SF_EEbv
FN:1287,1291,_ZNSt5tupleIJPKN7testing8internal11MatcherBaseISt17basic_string_viewIcSt11char_traitsIcEEEEPKNS0_16MatcherInterfaceIS6_EEEE23__nothrow_constructibleIS9_SD_EEbv
FN:1293,1297,_ZNSt5tupleIJPKN7testing16MatcherInterfaceINSt7__cxx1112basic_stringIcSt11char_traitsIcESaIcEEEEESt14default_deleteIS9_EEE31__nothrow_default_constructibleEv
FN:1293,1297,_ZNSt5tupleIJPKN7testing16MatcherInterfaceIRKNSt7__cxx1112basic_stringIcSt11char_traitsIcESaIcEEEEESt14default_deleteISB_EEE31__nothrow_default_constructibleEv
FN:1293,1297,_ZNSt5tupleIJPKN7testing16MatcherInterfaceIRKSt17basic_string_viewIcSt11char_traitsIcEEEESt14default_deleteIS9_EEE31__nothrow_default_constructibleEv
FN:1293,1297,_ZNSt5tupleIJPKN7testing16MatcherInterfaceISt17basic_string_viewIcSt11char_traitsIcEEEESt14default_deleteIS7_EEE31__nothrow_default_constructibleEv
FN:1293,1297,_ZNSt5tupleIJPKbSt14default_deleteIS0_EEE31__nothrow_default_constructibleEv
FN:1293,1297,_ZNSt5tupleIJPNSt7__cxx1112basic_stringIcSt11char_traitsIcESaIcEEESt14default_deleteIS5_EEE31__nothrow_default_constructibleEv
FN:1293,1297,_ZNSt5tupleIJPNSt7__cxx1118basic_stringstreamIcSt11char_traitsIcESaIcEEESt14default_deleteIS5_EEE31__nothrow_default_constructibleEv
FN:1300,1301,_ZNSt5tupleIJPKN7testing8internal11MatcherBaseINSt7__cxx1112basic_stringIcSt11char_traitsIcESaIcEEEEEPKNS0_16MatcherInterfaceIRKS8_EEEE14__is_alloc_argISB_EEbv
FN:1300,1301,_ZNSt5tupleIJPKN7testing8internal11MatcherBaseINSt7__cxx1112basic_stringIcSt11char_traitsIcESaIcEEEEEPKNS0_16MatcherInterfaceIS8_EEEE14__is_alloc_argISB_EEbv
FN:1300,1301,_ZNSt5tupleIJPKN7testing8internal11MatcherBaseIRKNSt7__cxx1112basic_stringIcSt11char_traitsIcESaIcEEEEEPKNS0_16MatcherInterfaceISA_EEEE14__is_alloc_argISD_EEbv
FN:1300,1301,_ZNSt5tupleIJPKN7testing8internal11MatcherBaseIRKSt17basic_string_viewIcSt11char_traitsIcEEEEPKNS0_16MatcherInterfaceIS8_EEEE14__is_alloc_argISB_EEbv
FN:1300,1301,_ZNSt5tupleIJPKN7testing8internal11MatcherBaseISt17basic_string_viewIcSt11char_traitsIcEEEEPKNS0_16MatcherInterfaceIRKS6_EEEE14__is_alloc_argIS9_EEbv
FN:1300,1301,_ZNSt5tupleIJPKN7testing8internal11MatcherBaseISt17basic_string_viewIcSt11char_traitsIcEEEEPKNS0_16MatcherInterfaceIS6_EEEE14__is_alloc_argIS9_EEbv
FN:1317,1319,_ZNSt5tupleIJPKN7testing16MatcherInterfaceINSt7__cxx1112basic_stringIcSt11char_traitsIcESaIcEEEEESt14default_deleteIS9_EEEC2ILb1ELb1EEEv
FN:1317,1319,_ZNSt5tupleIJPKN7testing16MatcherInterfaceIRKNSt7__cxx1112basic_stringIcSt11char_traitsIcESaIcEEEEESt14default_deleteISB_EEEC2ILb1ELb1EEEv
FN:1317,1319,_ZNSt5tupleIJPKN7testing16MatcherInterfaceIRKSt17basic_string_viewIcSt11char_traitsIcEEEESt14default_deleteIS9_EEEC2ILb1ELb1EEEv
FN:1317,1319,_ZNSt5tupleIJPKN7testing16MatcherInterfaceISt17basic_string_viewIcSt11char_traitsIcEEEESt14default_deleteIS7_EEEC2ILb1ELb1EEEv
FN:1317,1319,_ZNSt5tupleIJPKbSt14default_deleteIS0_EEEC2ILb1ELb1EEEv
FN:1317,1319,_ZNSt5tupleIJPNSt7__cxx1112basic_stringIcSt11char_traitsIcESaIcEEESt14default_deleteIS5_EEEC2ILb1ELb1EEEv
FN:1317,1319,_ZNSt5tupleIJPNSt7__cxx1118basic_stringstreamIcSt11char_traitsIcESaIcEEESt14default_deleteIS5_EEEC2ILb1ELb1EEEv
FN:1345,1347,_ZNSt5tupleIJPKN7testing8internal11MatcherBaseINSt7__cxx1112basic_stringIcSt11char_traitsIcESaIcEEEEEPKNS0_16MatcherInterfaceIRKS8_EEEEC2ISB_SH_Lb1EEEOT_OT0_
FN:1345,1347,_ZNSt5tupleIJPKN7testing8internal11MatcherBaseINSt7__cxx1112basic_stringIcSt11char_traitsIcESaIcEEEEEPKNS0_16MatcherInterfaceIS8_EEEEC2ISB_SF_Lb1EEEOT_OT0_
FN:1345,1347,_ZNSt5tupleIJPKN7testing8internal11MatcherBaseIRKNSt7__cxx1112basic_stringIcSt11char_traitsIcESaIcEEEEEPKNS0_16MatcherInterfaceISA_EEEEC2ISD_SH_Lb1EEEOT_OT0_
FN:1345,1347,_ZNSt5tupleIJPKN7testing8internal11MatcherBaseIRKSt17basic_string_viewIcSt11char_traitsIcEEEEPKNS0_16MatcherInterfaceIS8_EEEEC2ISB_SF_Lb1EEEOT_OT0_
FN:1345,1347,_ZNSt5tupleIJPKN7testing8internal11MatcherBaseISt17basic_string_viewIcSt11char_traitsIcEEEEPKNS0_16MatcherInterfaceIRKS6_EEEEC2IS9_SF_Lb1EEEOT_OT0_
FN:1345,1347,_ZNSt5tupleIJPKN7testing8internal11MatcherBaseISt17basic_string_viewIcSt11char_traitsIcEEEEPKNS0_16MatcherInterfaceIS6_EEEEC2IS9_SD_Lb1EEEOT_OT0_
FN:1358,1358,_ZNSt5tupleIJPKN7testing16MatcherInterfaceINSt7__cxx1112basic_stringIcSt11char_traitsIcESaIcEEEEESt14default_deleteIS9_EEEC2EOSD_
FN:1358,1358,_ZNSt5tupleIJPKN7testing16MatcherInterfaceIRKNSt7__cxx1112basic_stringIcSt11char_traitsIcESaIcEEEEESt14default_deleteISB_EEEC2EOSF_
FN:1358,1358,_ZNSt5tupleIJPKN7testing16MatcherInterfaceIRKSt17basic_string_viewIcSt11char_traitsIcEEEESt14default_deleteIS9_EEEC2EOSD_
FN:1358,1358,_ZNSt5tupleIJPKN7testing16MatcherInterfaceISt17basic_string_viewIcSt11char_traitsIcEEEESt14default_deleteIS7_EEEC2EOSB_
FN:1787,1788,_ZSt12__get_helperILm0EPKN7testing16MatcherInterfaceINSt7__cxx1112basic_stringIcSt11char_traitsIcESaIcEEEEEJSt14default_deleteIS9_EEERT0_RSt11_Tuple_implIXT_EJSD_DpT1_EE
FN:1787,1788,_ZSt12__get_helperILm0EPKN7testing16MatcherInterfaceIRKNSt7__cxx1112basic_stringIcSt11char_traitsIcESaIcEEEEEJSt14default_deleteISB_EEERT0_RSt11_Tuple_implIXT_EJSF_DpT1_EE
FN:1787,1788,_ZSt12__get_helperILm0EPKN7testing16MatcherInterfaceIRKSt17basic_string_viewIcSt11char_traitsIcEEEEJSt14default_deleteIS9_EEERT0_RSt11_Tuple_implIXT_EJSD_DpT1_EE
FN:1787,1788,_ZSt12__get_helperILm0EPKN7testing16MatcherInterfaceISt17basic_string_viewIcSt11char_traitsIcEEEEJSt14default_deleteIS7_EEERT0_RSt11_Tuple_implIXT_EJSB_DpT1_EE
FN:1787,1788,_ZSt12__get_helperILm0EPKbJSt14default_deleteIS0_EEERT0_RSt11_Tuple_implIXT_EJS4_DpT1_EE
FN:1787,1788,_ZSt12__get_helperILm0EPNSt7__cxx1112basic_stringIcSt11char_traitsIcESaIcEEEJSt14default_deleteIS5_EEERT0_RSt11_Tuple_implIXT_EJS9_DpT1_EE
FN:1787,1788,_ZSt12__get_helperILm0EPNSt7__cxx1118basic_stringstreamIcSt11char_traitsIcESaIcEEEJSt14default_deleteIS5_EEERT0_RSt11_Tuple_implIXT_EJS9_DpT1_EE
FN:1787,1788,_ZSt12__get_helperILm1EPKN7testing16MatcherInterfaceINSt7__cxx1112basic_stringIcSt11char_traitsIcESaIcEEEEEJEERT0_RSt11_Tuple_implIXT_EJSB_DpT1_EE
FN:1787,1788,_ZSt12__get_helperILm1EPKN7testing16MatcherInterfaceIRKNSt7__cxx1112basic_stringIcSt11char_traitsIcESaIcEEEEEJEERT0_RSt11_Tuple_implIXT_EJSD_DpT1_EE
FN:1787,1788,_ZSt12__get_helperILm1EPKN7testing16MatcherInterfaceIRKSt17basic_string_viewIcSt11char_traitsIcEEEEJEERT0_RSt11_Tuple_implIXT_EJSB_DpT1_EE
FN:1787,1788,_ZSt12__get_helperILm1EPKN7testing16MatcherInterfaceISt17basic_string_viewIcSt11char_traitsIcEEEEJEERT0_RSt11_Tuple_implIXT_EJS9_DpT1_EE
FN:1787,1788,_ZSt12__get_helperILm1ESt14default_deleteIKN7testing16MatcherInterfaceINSt7__cxx1112basic_stringIcSt11char_traitsIcESaIcEEEEEEJEERT0_RSt11_Tuple_implIXT_EJSC_DpT1_EE
FN:1787,1788,_ZSt12__get_helperILm1ESt14default_deleteIKN7testing16MatcherInterfaceIRKNSt7__cxx1112basic_stringIcSt11char_traitsIcESaIcEEEEEEJEERT0_RSt11_Tuple_implIXT_EJSE_DpT1_EE
FN:1787,1788,_ZSt12__get_helperILm1ESt14default_deleteIKN7testing16MatcherInterfaceIRKSt17basic_string_viewIcSt11char_traitsIcEEEEEJEERT0_RSt11_Tuple_implIXT_EJSC_DpT1_EE
FN:1787,1788,_ZSt12__get_helperILm1ESt14default_deleteIKN7testing16MatcherInterfaceISt17basic_string_viewIcSt11char_traitsIcEEEEEJEERT0_RSt11_Tuple_implIXT_EJSA_DpT1_EE
FN:1787,1788,_ZSt12__get_helperILm1ESt14default_deleteIKbEJEERT0_RSt11_Tuple_implIXT_EJS3_DpT1_EE
FN:1787,1788,_ZSt12__get_helperILm1ESt14default_deleteINSt7__cxx1112basic_stringIcSt11char_traitsIcESaIcEEEEJEERT0_RSt11_Tuple_implIXT_EJS8_DpT1_EE
FN:1787,1788,_ZSt12__get_helperILm1ESt14default_deleteINSt7__cxx1118basic_stringstreamIcSt11char_traitsIcESaIcEEEEJEERT0_RSt11_Tuple_implIXT_EJS8_DpT1_EE
FN:1792,1793,_ZSt12__get_helperILm0EPKN7testing16MatcherInterfaceINSt7__cxx1112basic_stringIcSt11char_traitsIcESaIcEEEEEJSt14default_deleteIS9_EEERKT0_RKSt11_Tuple_implIXT_EJSD_DpT1_EE
FN:1792,1793,_ZSt12__get_helperILm0EPKN7testing16MatcherInterfaceIRKNSt7__cxx1112basic_stringIcSt11char_traitsIcESaIcEEEEEJSt14default_deleteISB_EEERKT0_RKSt11_Tuple_implIXT_EJSF_DpT1_EE
FN:1792,1793,_ZSt12__get_helperILm0EPKN7testing16MatcherInterfaceIRKSt17basic_string_viewIcSt11char_traitsIcEEEEJSt14default_deleteIS9_EEERKT0_RKSt11_Tuple_implIXT_EJSD_DpT1_EE
FN:1792,1793,_ZSt12__get_helperILm0EPKN7testing16MatcherInterfaceISt17basic_string_viewIcSt11char_traitsIcEEEEJSt14default_deleteIS7_EEERKT0_RKSt11_Tuple_implIXT_EJSB_DpT1_EE
FN:1792,1793,_ZSt12__get_helperILm0EPKNSt7__cxx1112basic_stringIcSt11char_traitsIcESaIcEEEJSt14default_deleteIS6_EEERKT0_RKSt11_Tuple_implIXT_EJSA_DpT1_EE
FN:1792,1793,_ZSt12__get_helperILm0EPKbJSt14default_deleteIS0_EEERKT0_RKSt11_Tuple_implIXT_EJS4_DpT1_EE
FN:1792,1793,_ZSt12__get_helperILm0EPNSt7__cxx1112basic_stringIcSt11char_traitsIcESaIcEEEJSt14default_deleteIS5_EEERKT0_RKSt11_Tuple_implIXT_EJS9_DpT1_EE
FN:1792,1793,_ZSt12__get_helperILm0EPNSt7__cxx1118basic_stringstreamIcSt11char_traitsIcESaIcEEEJSt14default_deleteIS5_EEERKT0_RKSt11_Tuple_implIXT_EJS9_DpT1_EE
FN:1803,1804,_ZSt3getILm0EJPKN7testing16MatcherInterfaceINSt7__cxx1112basic_stringIcSt11char_traitsIcESaIcEEEEESt14default_deleteIS9_EEERNSt13tuple_elementIXT_ESt5tupleIJDpT0_EEE4typeERSH_
FN:1803,1804,_ZSt3getILm0EJPKN7testing16MatcherInterfaceIRKNSt7__cxx1112basic_stringIcSt11char_traitsIcESaIcEEEEESt14default_deleteISB_EEERNSt13tuple_elementIXT_ESt5tupleIJDpT0_EEE4typeERSJ_
FN:1803,1804,_ZSt3getILm0EJPKN7testing16MatcherInterfaceIRKSt17basic_string_viewIcSt11char_traitsIcEEEESt14default_deleteIS9_EEERNSt13tuple_elementIXT_ESt5tupleIJDpT0_EEE4typeERSH_
FN:1803,1804,_ZSt3getILm0EJPKN7testing16MatcherInterfaceISt17basic_string_viewIcSt11char_traitsIcEEEESt14default_deleteIS7_EEERNSt13tuple_elementIXT_ESt5tupleIJDpT0_EEE4typeERSF_
FN:1803,1804,_ZSt3getILm0EJPKbSt14default_deleteIS0_EEERNSt13tuple_elementIXT_ESt5tupleIJDpT0_EEE4typeERS8_
FN:1803,1804,_ZSt3getILm0EJPNSt7__cxx1112basic_stringIcSt11char_traitsIcESaIcEEESt14default_deleteIS5_EEERNSt13tuple_elementIXT_ESt5tupleIJDpT0_EEE4typeERSD_
FN:1803,1804,_ZSt3getILm0EJPNSt7__cxx1118basic_stringstreamIcSt11char_traitsIcESaIcEEESt14default_deleteIS5_EEERNSt13tuple_elementIXT_ESt5tupleIJDpT0_EEE4typeERSD_
FN:1803,1804,_ZSt3getILm1EJPKN7testing16MatcherInterfaceINSt7__cxx1112basic_stringIcSt11char_traitsIcESaIcEEEEESt14default_deleteIS9_EEERNSt13tuple_elementIXT_ESt5tupleIJDpT0_EEE4typeERSH_
FN:1803,1804,_ZSt3getILm1EJPKN7testing16MatcherInterfaceIRKNSt7__cxx1112basic_stringIcSt11char_traitsIcESaIcEEEEESt14default_deleteISB_EEERNSt13tuple_elementIXT_ESt5tupleIJDpT0_EEE4typeERSJ_
FN:1803,1804,_ZSt3getILm1EJPKN7testing16MatcherInterfaceIRKSt17basic_string_viewIcSt11char_traitsIcEEEESt14default_deleteIS9_EEERNSt13tuple_elementIXT_ESt5tupleIJDpT0_EEE4typeERSH_
FN:1803,1804,_ZSt3getILm1EJPKN7testing16MatcherInterfaceISt17basic_string_viewIcSt11char_traitsIcEEEESt14default_deleteIS7_EEERNSt13tuple_elementIXT_ESt5tupleIJDpT0_EEE4typeERSF_
FN:1803,1804,_ZSt3getILm1EJPKbSt14default_deleteIS0_EEERNSt13tuple_elementIXT_ESt5tupleIJDpT0_EEE4typeERS8_
FN:1803,1804,_ZSt3getILm1EJPNSt7__cxx1112basic_stringIcSt11char_traitsIcESaIcEEESt14default_deleteIS5_EEERNSt13tuple_elementIXT_ESt5tupleIJDpT0_EEE4typeERSD_
FN:1803,1804,_ZSt3getILm1EJPNSt7__cxx1118basic_stringstreamIcSt11char_traitsIcESaIcEEESt14default_deleteIS5_EEERNSt13tuple_elementIXT_ESt5tupleIJDpT0_EEE4typeERSD_
FN:1809,1810,_ZSt3getILm0EJPKN7testing16MatcherInterfaceINSt7__cxx1112basic_stringIcSt11char_traitsIcESaIcEEEEESt14default_deleteIS9_EEERKNSt13tuple_elementIXT_ESt5tupleIJDpT0_EEE4typeERKSH_
FN:1809,1810,_ZSt3getILm0EJPKN7testing16MatcherInterfaceIRKNSt7__cxx1112basic_stringIcSt11char_traitsIcESaIcEEEEESt14default_deleteISB_EEERKNSt13tuple_elementIXT_ESt5tupleIJDpT0_EEE4typeERKSJ_
FN:1809,1810,_ZSt3getILm0EJPKN7testing16MatcherInterfaceIRKSt17basic_string_viewIcSt11char_traitsIcEEEESt14default_deleteIS9_EEERKNSt13tuple_elementIXT_ESt5tupleIJDpT0_EEE4typeERKSH_
FN:1809,1810,_ZSt3getILm0EJPKN7testing16MatcherInterfaceISt17basic_string_viewIcSt11char_traitsIcEEEESt14default_deleteIS7_EEERKNSt13tuple_elementIXT_ESt5tupleIJDpT0_EEE4typeERKSF_
FN:1809,1810,_ZSt3getILm0EJPKNSt7__cxx1112basic_stringIcSt11char_traitsIcESaIcEEESt14default_deleteIS6_EEERKNSt13tuple_elementIXT_ESt5tupleIJDpT0_EEE4typeERKSE_
FN:1809,1810,_ZSt3getILm0EJPKbSt14default_deleteIS0_EEERKNSt13tuple_elementIXT_ESt5tupleIJDpT0_EEE4typeERKS8_
FN:1809,1810,_ZSt3getILm0EJPNSt7__cxx1112basic_stringIcSt11char_traitsIcESaIcEEESt14default_deleteIS5_EEERKNSt13tuple_elementIXT_ESt5tupleIJDpT0_EEE4typeERKSD_
FN:1809,1810,_ZSt3getILm0EJPNSt7__cxx1118basic_stringstreamIcSt11char_traitsIcESaIcEEESt14default_deleteIS5_EEERKNSt13tuple_elementIXT_ESt5tupleIJDpT0_EEE4typeERKSD_
FN:1815,1819,_ZSt3getILm1EJPKN7testing8internal11MatcherBaseINSt7__cxx1112basic_stringIcSt11char_traitsIcESaIcEEEEEPKNS0_16MatcherInterfaceIRKS8_EEEEONSt13tuple_elementIXT_ESt5tupleIJDpT0_EEE4typeEOSM_
FN:1815,1819,_ZSt3getILm1EJPKN7testing8internal11MatcherBaseINSt7__cxx1112basic_stringIcSt11char_traitsIcESaIcEEEEEPKNS0_16MatcherInterfaceIS8_EEEEONSt13tuple_elementIXT_ESt5tupleIJDpT0_EEE4typeEOSK_
FN:1815,1819,_ZSt3getILm1EJPKN7testing8internal11MatcherBaseIRKNSt7__cxx1112basic_stringIcSt11char_traitsIcESaIcEEEEEPKNS0_16MatcherInterfaceISA_EEEEONSt13tuple_elementIXT_ESt5tupleIJDpT0_EEE4typeEOSM_
FN:1815,1819,_ZSt3getILm1EJPKN7testing8internal11MatcherBaseIRKSt17basic_string_viewIcSt11char_traitsIcEEEEPKNS0_16MatcherInterfaceIS8_EEEEONSt13tuple_elementIXT_ESt5tupleIJDpT0_EEE4typeEOSK_
FN:1815,1819,_ZSt3getILm1EJPKN7testing8internal11MatcherBaseISt17basic_string_viewIcSt11char_traitsIcEEEEPKNS0_16MatcherInterfaceIRKS6_EEEEONSt13tuple_elementIXT_ESt5tupleIJDpT0_EEE4typeEOSK_
FN:1815,1819,_ZSt3getILm1EJPKN7testing8internal11MatcherBaseISt17basic_string_viewIcSt11char_traitsIcEEEEPKNS0_16MatcherInterfaceIS6_EEEEONSt13tuple_elementIXT_ESt5tupleIJDpT0_EEE4typeEOSI_
FN:190,191,_ZNSt10_Head_baseILm0EPKN7testing16MatcherInterfaceINSt7__cxx1112basic_stringIcSt11char_traitsIcESaIcEEEEELb0EEC2Ev
FN:190,191,_ZNSt10_Head_baseILm0EPKN7testing16MatcherInterfaceIRKNSt7__cxx1112basic_stringIcSt11char_traitsIcESaIcEEEEELb0EEC2Ev
FN:190,191,_ZNSt10_Head_baseILm0EPKN7testing16MatcherInterfaceIRKSt17basic_string_viewIcSt11char_traitsIcEEEELb0EEC2Ev
FN:190,191,_ZNSt10_Head_baseILm0EPKN7testing16MatcherInterfaceISt17basic_string_viewIcSt11char_traitsIcEEEELb0EEC2Ev
FN:190,191,_ZNSt10_Head_baseILm0EPKbLb0EEC2Ev
FN:190,191,_ZNSt10_Head_baseILm0EPNSt7__cxx1112basic_stringIcSt11char_traitsIcESaIcEEELb0EEC2Ev
FN:190,191,_ZNSt10_Head_baseILm0EPNSt7__cxx1118basic_stringstreamIcSt11char_traitsIcESaIcEEELb0EEC2Ev
FN:200,201,_ZNSt10_Head_baseILm0EPKN7testing8internal11MatcherBaseINSt7__cxx1112basic_stringIcSt11char_traitsIcESaIcEEEEELb0EEC2ISB_EEOT_
FN:200,201,_ZNSt10_Head_baseILm0EPKN7testing8internal11MatcherBaseIRKNSt7__cxx1112basic_stringIcSt11char_traitsIcESaIcEEEEELb0EEC2ISD_EEOT_
FN:200,201,_ZNSt10_Head_baseILm0EPKN7testing8internal11MatcherBaseIRKSt17basic_string_viewIcSt11char_traitsIcEEEELb0EEC2ISB_EEOT_
FN:200,201,_ZNSt10_Head_baseILm0EPKN7testing8internal11MatcherBaseISt17basic_string_viewIcSt11char_traitsIcEEEELb0EEC2IS9_EEOT_
FN:200,201,_ZNSt10_Head_baseILm1EPKN7testing16MatcherInterfaceINSt7__cxx1112basic_stringIcSt11char_traitsIcESaIcEEEEELb0EEC2ISA_EEOT_
FN:200,201,_ZNSt10_Head_baseILm1EPKN7testing16MatcherInterfaceIRKNSt7__cxx1112basic_stringIcSt11char_traitsIcESaIcEEEEELb0EEC2ISC_EEOT_
FN:200,201,_ZNSt10_Head_baseILm1EPKN7testing16MatcherInterfaceIRKSt17basic_string_viewIcSt11char_traitsIcEEEELb0EEC2ISA_EEOT_
FN:200,201,_ZNSt10_Head_baseILm1EPKN7testing16MatcherInterfaceISt17basic_string_viewIcSt11char_traitsIcEEEELb0EEC2IS8_EEOT_
FN:2001,2006,_ZSt10make_tupleIJPKN7testing8internal11MatcherBaseINSt7__cxx1112basic_stringIcSt11char_traitsIcESaIcEEEEEPKNS0_16MatcherInterfaceIRKS8_EEEESt5tupleIJDpNSt25__strip_reference_wrapperINSt5decayIT_E4typeEE6__typeEEEDpOSL_
FN:2001,2006,_ZSt10make_tupleIJPKN7testing8internal11MatcherBaseINSt7__cxx1112basic_stringIcSt11char_traitsIcESaIcEEEEEPKNS0_16MatcherInterfaceIS8_EEEESt5tupleIJDpNSt25__strip_reference_wrapperINSt5decayIT_E4typeEE6__typeEEEDpOSJ_
FN:2001,2006,_ZSt10make_tupleIJPKN7testing8internal11MatcherBaseIRKNSt7__cxx1112basic_stringIcSt11char_traitsIcESaIcEEEEEPKNS0_16MatcherInterfaceISA_EEEESt5tupleIJDpNSt25__strip_reference_wrapperINSt5decayIT_E4typeEE6__typeEEEDpOSL_
FN:2001,2006,_ZSt10make_tupleIJPKN7testing8internal11MatcherBaseIRKSt17basic_string_viewIcSt11char_traitsIcEEEEPKNS0_16MatcherInterfaceIS8_EEEESt5tupleIJDpNSt25__strip_reference_wrapperINSt5decayIT_E4typeEE6__typeEEEDpOSJ_
FN:2001,2006,_ZSt10make_tupleIJPKN7testing8internal11MatcherBaseISt17basic_string_viewIcSt11char_traitsIcEEEEPKNS0_16MatcherInterfaceIRKS6_EEEESt5tupleIJDpNSt25__strip_reference_wrapperINSt5decayIT_E4typeEE6__typeEEEDpOSJ_
FN:2001,2006,_ZSt10make_tupleIJPKN7testing8internal11MatcherBaseISt17basic_string_viewIcSt11char_traitsIcEEEEPKNS0_16MatcherInterfaceIS6_EEEESt5tupleIJDpNSt25__strip_reference_wrapperINSt5decayIT_E4typeEE6__typeEEEDpOSH_
FN:234,234,_ZNSt10_Head_baseILm0EPKN7testing16MatcherInterfaceINSt7__cxx1112basic_stringIcSt11char_traitsIcESaIcEEEEELb0EE7_M_headERSB_
FN:234,234,_ZNSt10_Head_baseILm0EPKN7testing16MatcherInterfaceIRKNSt7__cxx1112basic_stringIcSt11char_traitsIcESaIcEEEEELb0EE7_M_headERSD_
FN:234,234,_ZNSt10_Head_baseILm0EPKN7testing16MatcherInterfaceIRKSt17basic_string_viewIcSt11char_traitsIcEEEELb0EE7_M_headERSB_
FN:234,234,_ZNSt10_Head_baseILm0EPKN7testing16MatcherInterfaceISt17basic_string_viewIcSt11char_traitsIcEEEELb0EE7_M_headERS9_
FN:234,234,_ZNSt10_Head_baseILm0EPKbLb0EE7_M_headERS2_
FN:234,234,_ZNSt10_Head_baseILm0EPNSt7__cxx1112basic_stringIcSt11char_traitsIcESaIcEEELb0EE7_M_headERS7_
FN:234,234,_ZNSt10_Head_baseILm0EPNSt7__cxx1118basic_stringstreamIcSt11char_traitsIcESaIcEEELb0EE7_M_headERS7_
FN:234,234,_ZNSt10_Head_baseILm1EPKN7testing16MatcherInterfaceINSt7__cxx1112basic_stringIcSt11char_traitsIcESaIcEEEEELb0EE7_M_headERSB_
FN:234,234,_ZNSt10_Head_baseILm1EPKN7testing16MatcherInterfaceIRKNSt7__cxx1112basic_stringIcSt11char_traitsIcESaIcEEEEELb0EE7_M_headERSD_
FN:234,234,_ZNSt10_Head_baseILm1EPKN7testing16MatcherInterfaceIRKSt17basic_string_viewIcSt11char_traitsIcEEEELb0EE7_M_headERSB_
FN:234,234,_ZNSt10_Head_baseILm1EPKN7testing16MatcherInterfaceISt17basic_string_viewIcSt11char_traitsIcEEEELb0EE7_M_headERS9_
FN:237,237,_ZNSt10_Head_baseILm0EPKN7testing16MatcherInterfaceINSt7__cxx1112basic_stringIcSt11char_traitsIcESaIcEEEEELb0EE7_M_headERKSB_
FN:237,237,_ZNSt10_Head_baseILm0EPKN7testing16MatcherInterfaceIRKNSt7__cxx1112basic_stringIcSt11char_traitsIcESaIcEEEEELb0EE7_M_headERKSD_
FN:237,237,_ZNSt10_Head_baseILm0EPKN7testing16MatcherInterfaceIRKSt17basic_string_viewIcSt11char_traitsIcEEEELb0EE7_M_headERKSB_
FN:237,237,_ZNSt10_Head_baseILm0EPKN7testing16MatcherInterfaceISt17basic_string_viewIcSt11char_traitsIcEEEELb0EE7_M_headERKS9_
FN:237,237,_ZNSt10_Head_baseILm0EPKNSt7__cxx1112basic_stringIcSt11char_traitsIcESaIcEEELb0EE7_M_headERKS8_
FN:237,237,_ZNSt10_Head_baseILm0EPKbLb0EE7_M_headERKS2_
FN:237,237,_ZNSt10_Head_baseILm0EPNSt7__cxx1112basic_stringIcSt11char_traitsIcESaIcEEELb0EE7_M_headERKS7_
FN:237,237,_ZNSt10_Head_baseILm0EPNSt7__cxx1118basic_stringstreamIcSt11char_traitsIcESaIcEEELb0EE7_M_headERKS7_
FN:269,269,_ZNSt11_Tuple_implILm0EJPKN7testing16MatcherInterfaceINSt7__cxx1112basic_stringIcSt11char_traitsIcESaIcEEEEESt14default_deleteIS9_EEE7_M_headERSD_
FN:269,269,_ZNSt11_Tuple_implILm0EJPKN7testing16MatcherInterfaceIRKNSt7__cxx1112basic_stringIcSt11char_traitsIcESaIcEEEEESt14default_deleteISB_EEE7_M_headERSF_
FN:269,269,_ZNSt11_Tuple_implILm0EJPKN7testing16MatcherInterfaceIRKSt17basic_string_viewIcSt11char_traitsIcEEEESt14default_deleteIS9_EEE7_M_headERSD_
FN:269,269,_ZNSt11_Tuple_implILm0EJPKN7testing16MatcherInterfaceISt17basic_string_viewIcSt11char_traitsIcEEEESt14default_deleteIS7_EEE7_M_headERSB_
FN:269,269,_ZNSt11_Tuple_implILm0EJPKbSt14default_deleteIS0_EEE7_M_headERS4_
FN:269,269,_ZNSt11_Tuple_implILm0EJPNSt7__cxx1112basic_stringIcSt11char_traitsIcESaIcEEESt14default_deleteIS5_EEE7_M_headERS9_
FN:269,269,_ZNSt11_Tuple_implILm0EJPNSt7__cxx1118basic_stringstreamIcSt11char_traitsIcESaIcEEESt14default_deleteIS5_EEE7_M_headERS9_
FN:272,272,_ZNSt11_Tuple_implILm0EJPKN7testing16MatcherInterfaceINSt7__cxx1112basic_stringIcSt11char_traitsIcESaIcEEEEESt14default_deleteIS9_EEE7_M_headERKSD_
FN:272,272,_ZNSt11_Tuple_implILm0EJPKN7testing16MatcherInterfaceIRKNSt7__cxx1112basic_stringIcSt11char_traitsIcESaIcEEEEESt14default_deleteISB_EEE7_M_headERKSF_
FN:272,272,_ZNSt11_Tuple_implILm0EJPKN7testing16MatcherInterfaceIRKSt17basic_string_viewIcSt11char_traitsIcEEEESt14default_deleteIS9_EEE7_M_headERKSD_
FN:272,272,_ZNSt11_Tuple_implILm0EJPKN7testing16MatcherInterfaceISt17basic_string_viewIcSt11char_traitsIcEEEESt14default_deleteIS7_EEE7_M_headERKSB_
FN:272,272,_ZNSt11_Tuple_implILm0EJPKNSt7__cxx1112basic_stringIcSt11char_traitsIcESaIcEEESt14default_deleteIS6_EEE7_M_headERKSA_
FN:272,272,_ZNSt11_Tuple_implILm0EJPKbSt14default_deleteIS0_EEE7_M_headERKS4_
FN:272,272,_ZNSt11_Tuple_implILm0EJPNSt7__cxx1112basic_stringIcSt11char_traitsIcESaIcEEESt14default_deleteIS5_EEE7_M_headERKS9_
FN:272,272,_ZNSt11_Tuple_implILm0EJPNSt7__cxx1118basic_stringstreamIcSt11char_traitsIcESaIcEEESt14default_deleteIS5_EEE7_M_headERKS9_
FN:280,281,_ZNSt11_Tuple_implILm0EJPKN7testing16MatcherInterfaceINSt7__cxx1112basic_stringIcSt11char_traitsIcESaIcEEEEESt14default_deleteIS9_EEEC2Ev
FN:280,281,_ZNSt11_Tuple_implILm0EJPKN7testing16MatcherInterfaceIRKNSt7__cxx1112basic_stringIcSt11char_traitsIcESaIcEEEEESt14default_deleteISB_EEEC2Ev
FN:280,281,_ZNSt11_Tuple_implILm0EJPKN7testing16MatcherInterfaceIRKSt17basic_string_viewIcSt11char_traitsIcEEEESt14default_deleteIS9_EEEC2Ev
FN:280,281,_ZNSt11_Tuple_implILm0EJPKN7testing16MatcherInterfaceISt17basic_string_viewIcSt11char_traitsIcEEEESt14default_deleteIS7_EEEC2Ev
FN:280,281,_ZNSt11_Tuple_implILm0EJPKbSt14default_deleteIS0_EEEC2Ev
FN:280,281,_ZNSt11_Tuple_implILm0EJPNSt7__cxx1112basic_stringIcSt11char_traitsIcESaIcEEESt14default_deleteIS5_EEEC2Ev
FN:280,281,_ZNSt11_Tuple_implILm0EJPNSt7__cxx1118basic_stringstreamIcSt11char_traitsIcESaIcEEESt14default_deleteIS5_EEEC2Ev
FN:291,294,_ZNSt11_Tuple_implILm0EJPKN7testing8internal11MatcherBaseINSt7__cxx1112basic_stringIcSt11char_traitsIcESaIcEEEEEPKNS0_16MatcherInterfaceIRKS8_EEEEC2ISB_JSH_EvEEOT_DpOT0_
FN:291,294,_ZNSt11_Tuple_implILm0EJPKN7testing8internal11MatcherBaseINSt7__cxx1112basic_stringIcSt11char_traitsIcESaIcEEEEEPKNS0_16MatcherInterfaceIS8_EEEEC2ISB_JSF_EvEEOT_DpOT0_
FN:291,294,_ZNSt11_Tuple_implILm0EJPKN7testing8internal11MatcherBaseIRKNSt7__cxx1112basic_stringIcSt11char_traitsIcESaIcEEEEEPKNS0_16MatcherInterfaceISA_EEEEC2ISD_JSH_EvEEOT_DpOT0_
FN:291,294,_ZNSt11_Tuple_implILm0EJPKN7testing8internal11MatcherBaseIRKSt17basic_string_viewIcSt11char_traitsIcEEEEPKNS0_16MatcherInterfaceIS8_EEEEC2ISB_JSF_EvEEOT_DpOT0_
FN:291,294,_ZNSt11_Tuple_implILm0EJPKN7testing8internal11MatcherBaseISt17basic_string_viewIcSt11char_traitsIcEEEEPKNS0_16MatcherInterfaceIRKS6_EEEEC2IS9_JSF_EvEEOT_DpOT0_
FN:291,294,_ZNSt11_Tuple_implILm0EJPKN7testing8internal11MatcherBaseISt17basic_string_viewIcSt11char_traitsIcEEEEPKNS0_16MatcherInterfaceIS6_EEEEC2IS9_JSD_EvEEOT_DpOT0_
FN:302,302,_ZNSt11_Tuple_implILm0EJPKN7testing16MatcherInterfaceINSt7__cxx1112basic_stringIcSt11char_traitsIcESaIcEEEEESt14default_deleteIS9_EEEC2EOSD_
FN:302,302,_ZNSt11_Tuple_implILm0EJPKN7testing16MatcherInterfaceIRKNSt7__cxx1112basic_stringIcSt11char_traitsIcESaIcEEEEESt14default_deleteISB_EEEC2EOSF_
FN:302,302,_ZNSt11_Tuple_implILm0EJPKN7testing16MatcherInterfaceIRKSt17basic_string_viewIcSt11char_traitsIcEEEESt14default_deleteIS9_EEEC2EOSD_
FN:302,302,_ZNSt11_Tuple_implILm0EJPKN7testing16MatcherInterfaceISt17basic_string_viewIcSt11char_traitsIcEEEESt14default_deleteIS7_EEEC2EOSB_
FN:497,497,_ZNSt11_Tuple_implILm1EJPKN7testing16MatcherInterfaceINSt7__cxx1112basic_stringIcSt11char_traitsIcESaIcEEEEEEE7_M_headERSB_
FN:497,497,_ZNSt11_Tuple_implILm1EJPKN7testing16MatcherInterfaceIRKNSt7__cxx1112basic_stringIcSt11char_traitsIcESaIcEEEEEEE7_M_headERSD_
FN:497,497,_ZNSt11_Tuple_implILm1EJPKN7testing16MatcherInterfaceIRKSt17basic_string_viewIcSt11char_traitsIcEEEEEE7_M_headERSB_
FN:497,497,_ZNSt11_Tuple_implILm1EJPKN7testing16MatcherInterfaceISt17basic_string_viewIcSt11char_traitsIcEEEEEE7_M_headERS9_
FN:497,497,_ZNSt11_Tuple_implILm1EJSt14default_deleteIKN7testing16MatcherInterfaceINSt7__cxx1112basic_stringIcSt11char_traitsIcESaIcEEEEEEEE7_M_headERSC_
FN:497,497,_ZNSt11_Tuple_implILm1EJSt14default_deleteIKN7testing16MatcherInterfaceIRKNSt7__cxx1112basic_stringIcSt11char_traitsIcESaIcEEEEEEEE7_M_headERSE_
FN:497,497,_ZNSt11_Tuple_implILm1EJSt14default_deleteIKN7testing16MatcherInterfaceIRKSt17basic_string_viewIcSt11char_traitsIcEEEEEEE7_M_headERSC_
FN:497,497,_ZNSt11_Tuple_implILm1EJSt14default_deleteIKN7testing16MatcherInterfaceISt17basic_string_viewIcSt11char_traitsIcEEEEEEE7_M_headERSA_
FN:497,497,_ZNSt11_Tuple_implILm1EJSt14default_deleteIKbEEE7_M_headERS3_
FN:497,497,_ZNSt11_Tuple_implILm1EJSt14default_deleteINSt7__cxx1112basic_stringIcSt11char_traitsIcESaIcEEEEEE7_M_headERS8_
FN:497,497,_ZNSt11_Tuple_implILm1EJSt14default_deleteINSt7__cxx1118basic_stringstreamIcSt11char_traitsIcESaIcEEEEEE7_M_headERS8_
FN:503,504,_ZNSt11_Tuple_implILm1EJSt14default_deleteIKN7testing16MatcherInterfaceINSt7__cxx1112basic_stringIcSt11char_traitsIcESaIcEEEEEEEEC2Ev
FN:503,504,_ZNSt11_Tuple_implILm1EJSt14default_deleteIKN7testing16MatcherInterfaceIRKNSt7__cxx1112basic_stringIcSt11char_traitsIcESaIcEEEEEEEEC2Ev
FN:503,504,_ZNSt11_Tuple_implILm1EJSt14default_deleteIKN7testing16MatcherInterfaceIRKSt17basic_string_viewIcSt11char_traitsIcEEEEEEEC2Ev
FN:503,504,_ZNSt11_Tuple_implILm1EJSt14default_deleteIKN7testing16MatcherInterfaceISt17basic_string_viewIcSt11char_traitsIcEEEEEEEC2Ev
FN:503,504,_ZNSt11_Tuple_implILm1EJSt14default_deleteIKbEEEC2Ev
FN:503,504,_ZNSt11_Tuple_implILm1EJSt14default_deleteINSt7__cxx1112basic_stringIcSt11char_traitsIcESaIcEEEEEEC2Ev
FN:503,504,_ZNSt11_Tuple_implILm1EJSt14default_deleteINSt7__cxx1118basic_stringstreamIcSt11char_traitsIcESaIcEEEEEEC2Ev
FN:513,515,_ZNSt11_Tuple_implILm1EJPKN7testing16MatcherInterfaceINSt7__cxx1112basic_stringIcSt11char_traitsIcESaIcEEEEEEEC2ISA_EEOT_
FN:513,515,_ZNSt11_Tuple_implILm1EJPKN7testing16MatcherInterfaceIRKNSt7__cxx1112basic_stringIcSt11char_traitsIcESaIcEEEEEEEC2ISC_EEOT_
FN:513,515,_ZNSt11_Tuple_implILm1EJPKN7testing16MatcherInterfaceIRKSt17basic_string_viewIcSt11char_traitsIcEEEEEEC2ISA_EEOT_
FN:513,515,_ZNSt11_Tuple_implILm1EJPKN7testing16MatcherInterfaceISt17basic_string_viewIcSt11char_traitsIcEEEEEEC2IS8_EEOT_
FN:527,530,_ZNSt11_Tuple_implILm1EJSt14default_deleteIKN7testing16MatcherInterfaceINSt7__cxx1112basic_stringIcSt11char_traitsIcESaIcEEEEEEEEC2EOSC_
FN:527,530,_ZNSt11_Tuple_implILm1EJSt14default_deleteIKN7testing16MatcherInterfaceIRKNSt7__cxx1112basic_stringIcSt11char_traitsIcESaIcEEEEEEEEC2EOSE_
FN:527,530,_ZNSt11_Tuple_implILm1EJSt14default_deleteIKN7testing16MatcherInterfaceIRKSt17basic_string_viewIcSt11char_traitsIcEEEEEEEC2EOSC_
FN:527,530,_ZNSt11_Tuple_implILm1EJSt14default_deleteIKN7testing16MatcherInterfaceISt17basic_string_viewIcSt11char_traitsIcEEEEEEEC2EOSA_
FN:697,702,_ZNSt17_TupleConstraintsILb1EJPKN7testing8internal11MatcherBaseINSt7__cxx1112basic_stringIcSt11char_traitsIcESaIcEEEEEPKNS0_16MatcherInterfaceIRKS8_EEEE29__is_implicitly_constructibleIJRKSB_RKSH_EEEbv
FN:697,702,_ZNSt17_TupleConstraintsILb1EJPKN7testing8internal11MatcherBaseINSt7__cxx1112basic_stringIcSt11char_traitsIcESaIcEEEEEPKNS0_16MatcherInterfaceIRKS8_EEEE29__is_implicitly_constructibleIJSB_SH_EEEbv
FN:697,702,_ZNSt17_TupleConstraintsILb1EJPKN7testing8internal11MatcherBaseINSt7__cxx1112basic_stringIcSt11char_traitsIcESaIcEEEEEPKNS0_16MatcherInterfaceIS8_EEEE29__is_implicitly_constructibleIJRKSB_RKSF_EEEbv
FN:697,702,_ZNSt17_TupleConstraintsILb1EJPKN7testing8internal11MatcherBaseINSt7__cxx1112basic_stringIcSt11char_traitsIcESaIcEEEEEPKNS0_16MatcherInterfaceIS8_EEEE29__is_implicitly_constructibleIJSB_SF_EEEbv
FN:697,702,_ZNSt17_TupleConstraintsILb1EJPKN7testing8internal11MatcherBaseIRKNSt7__cxx1112basic_stringIcSt11char_traitsIcESaIcEEEEEPKNS0_16MatcherInterfaceISA_EEEE29__is_implicitly_constructibleIJRKSD_RKSH_EEEbv
FN:697,702,_ZNSt17_TupleConstraintsILb1EJPKN7testing8internal11MatcherBaseIRKNSt7__cxx1112basic_stringIcSt11char_traitsIcESaIcEEEEEPKNS0_16MatcherInterfaceISA_EEEE29__is_implicitly_constructibleIJSD_SH_EEEbv
FN:697,702,_ZNSt17_TupleConstraintsILb1EJPKN7testing8internal11MatcherBaseIRKSt17basic_string_viewIcSt11char_traitsIcEEEEPKNS0_16MatcherInterfaceIS8_EEEE29__is_implicitly_constructibleIJRKSB_RKSF_EEEbv
FN:697,702,_ZNSt17_TupleConstraintsILb1EJPKN7testing8internal11MatcherBaseIRKSt17basic_string_viewIcSt11char_traitsIcEEEEPKNS0_16MatcherInterfaceIS8_EEEE29__is_implicitly_constructibleIJSB_SF_EEEbv
FN:697,702,_ZNSt17_TupleConstraintsILb1EJPKN7testing8internal11MatcherBaseISt17basic_string_viewIcSt11char_traitsIcEEEEPKNS0_16MatcherInterfaceIRKS6_EEEE29__is_implicitly_constructibleIJRKS9_RKSF_EEEbv
FN:697,702,_ZNSt17_TupleConstraintsILb1EJPKN7testing8internal11MatcherBaseISt17basic_string_viewIcSt11char_traitsIcEEEEPKNS0_16MatcherInterfaceIRKS6_EEEE29__is_implicitly_constructibleIJS9_SF_EEEbv
FN:697,702,_ZNSt17_TupleConstraintsILb1EJPKN7testing8internal11MatcherBaseISt17basic_string_viewIcSt11char_traitsIcEEEEPKNS0_16MatcherInterfaceIS6_EEEE29__is_implicitly_constructibleIJRKS9_RKSD_EEEbv
FN:697,702,_ZNSt17_TupleConstraintsILb1EJPKN7testing8internal11MatcherBaseISt17basic_string_viewIcSt11char_traitsIcEEEEPKNS0_16MatcherInterfaceIS6_EEEE29__is_implicitly_constructibleIJS9_SD_EEEbv
FN:708,713,_ZNSt17_TupleConstraintsILb1EJPKN7testing8internal11MatcherBaseINSt7__cxx1112basic_stringIcSt11char_traitsIcESaIcEEEEEPKNS0_16MatcherInterfaceIRKS8_EEEE29__is_explicitly_constructibleIJRKSB_RKSH_EEEbv
FN:708,713,_ZNSt17_TupleConstraintsILb1EJPKN7testing8internal11MatcherBaseINSt7__cxx1112basic_stringIcSt11char_traitsIcESaIcEEEEEPKNS0_16MatcherInterfaceIRKS8_EEEE29__is_explicitly_constructibleIJSB_SH_EEEbv
FN:708,713,_ZNSt17_TupleConstraintsILb1EJPKN7testing8internal11MatcherBaseINSt7__cxx1112basic_stringIcSt11char_traitsIcESaIcEEEEEPKNS0_16MatcherInterfaceIS8_EEEE29__is_explicitly_constructibleIJRKSB_RKSF_EEEbv
FN:708,713,_ZNSt17_TupleConstraintsILb1EJPKN7testing8internal11MatcherBaseINSt7__cxx1112basic_stringIcSt11char_traitsIcESaIcEEEEEPKNS0_16MatcherInterfaceIS8_EEEE29__is_explicitly_constructibleIJSB_SF_EEEbv
FN:708,713,_ZNSt17_TupleConstraintsILb1EJPKN7testing8internal11MatcherBaseIRKNSt7__cxx1112basic_stringIcSt11char_traitsIcESaIcEEEEEPKNS0_16MatcherInterfaceISA_EEEE29__is_explicitly_constructibleIJRKSD_RKSH_EEEbv
FN:708,713,_ZNSt17_TupleConstraintsILb1EJPKN7testing8internal11MatcherBaseIRKNSt7__cxx1112basic_stringIcSt11char_traitsIcESaIcEEEEEPKNS0_16MatcherInterfaceISA_EEEE29__is_explicitly_constructibleIJSD_SH_EEEbv
FN:708,713,_ZNSt17_TupleConstraintsILb1EJPKN7testing8internal11MatcherBaseIRKSt17basic_string_viewIcSt11char_traitsIcEEEEPKNS0_16MatcherInterfaceIS8_EEEE29__is_explicitly_constructibleIJRKSB_RKSF_EEEbv
FN:708,713,_ZNSt17_TupleConstraintsILb1EJPKN7testing8internal11MatcherBaseIRKSt17basic_string_viewIcSt11char_traitsIcEEEEPKNS0_16MatcherInterfaceIS8_EEEE29__is_explicitly_constructibleIJSB_SF_EEEbv
FN:708,713,_ZNSt17_TupleConstraintsILb1EJPKN7testing8internal11MatcherBaseISt17basic_string_viewIcSt11char_traitsIcEEEEPKNS0_16MatcherInterfaceIRKS6_EEEE29__is_explicitly_constructibleIJRKS9_RKSF_EEEbv
FN:708,713,_ZNSt17_TupleConstraintsILb1EJPKN7testing8internal11MatcherBaseISt17basic_string_viewIcSt11char_traitsIcEEEEPKNS0_16MatcherInterfaceIRKS6_EEEE29__is_explicitly_constructibleIJS9_SF_EEEbv
FN:708,713,_ZNSt17_TupleConstraintsILb1EJPKN7testing8internal11MatcherBaseISt17basic_string_viewIcSt11char_traitsIcEEEEPKNS0_16MatcherInterfaceIS6_EEEE29__is_explicitly_constructibleIJRKS9_RKSD_EEEbv
FN:708,713,_ZNSt17_TupleConstraintsILb1EJPKN7testing8internal11MatcherBaseISt17basic_string_viewIcSt11char_traitsIcEEEEPKNS0_16MatcherInterfaceIS6_EEEE29__is_explicitly_constructibleIJS9_SD_EEEbv
FN:715,719,_ZNSt17_TupleConstraintsILb1EJPKN7testing16MatcherInterfaceINSt7__cxx1112basic_stringIcSt11char_traitsIcESaIcEEEEESt14default_deleteIS9_EEE37__is_implicitly_default_constructibleEv
FN:715,719,_ZNSt17_TupleConstraintsILb1EJPKN7testing16MatcherInterfaceIRKNSt7__cxx1112basic_stringIcSt11char_traitsIcESaIcEEEEESt14default_deleteISB_EEE37__is_implicitly_default_constructibleEv
FN:715,719,_ZNSt17_TupleConstraintsILb1EJPKN7testing16MatcherInterfaceIRKSt17basic_string_viewIcSt11char_traitsIcEEEESt14default_deleteIS9_EEE37__is_implicitly_default_constructibleEv
FN:715,719,_ZNSt17_TupleConstraintsILb1EJPKN7testing16MatcherInterfaceISt17basic_string_viewIcSt11char_traitsIcEEEESt14default_deleteIS7_EEE37__is_implicitly_default_constructibleEv
FN:715,719,_ZNSt17_TupleConstraintsILb1EJPKN7testing8internal11MatcherBaseINSt7__cxx1112basic_stringIcSt11char_traitsIcESaIcEEEEEPKNS0_16MatcherInterfaceIRKS8_EEEE37__is_implicitly_default_constructibleEv
FN:715,719,_ZNSt17_TupleConstraintsILb1EJPKN7testing8internal11MatcherBaseINSt7__cxx1112basic_stringIcSt11char_traitsIcESaIcEEEEEPKNS0_16MatcherInterfaceIS8_EEEE37__is_implicitly_default_constructibleEv
FN:715,719,_ZNSt17_TupleConstraintsILb1EJPKN7testing8internal11MatcherBaseIRKNSt7__cxx1112basic_stringIcSt11char_traitsIcESaIcEEEEEPKNS0_16MatcherInterfaceISA_EEEE37__is_implicitly_default_constructibleEv
FN:715,719,_ZNSt17_TupleConstraintsILb1EJPKN7testing8internal11MatcherBaseIRKSt17basic_string_viewIcSt11char_traitsIcEEEEPKNS0_16MatcherInterfaceIS8_EEEE37__is_implicitly_default_constructibleEv
FN:715,719,_ZNSt17_TupleConstraintsILb1EJPKN7testing8internal11MatcherBaseISt17basic_string_viewIcSt11char_traitsIcEEEEPKNS0_16MatcherInterfaceIRKS6_EEEE37__is_implicitly_default_constructibleEv
FN:715,719,_ZNSt17_TupleConstraintsILb1EJPKN7testing8internal11MatcherBaseISt17basic_string_viewIcSt11char_traitsIcEEEEPKNS0_16MatcherInterfaceIS6_EEEE37__is_implicitly_default_constructibleEv
FN:715,719,_ZNSt17_TupleConstraintsILb1EJPKNSt7__cxx1112basic_stringIcSt11char_traitsIcESaIcEEESt14default_deleteIS6_EEE37__is_implicitly_default_constructibleEv
FN:715,719,_ZNSt17_TupleConstraintsILb1EJPKbSt14default_deleteIS0_EEE37__is_implicitly_default_constructibleEv
FN:715,719,_ZNSt17_TupleConstraintsILb1EJPN7testing8internal14GTestFlagSaverESt14default_deleteIS2_EEE37__is_implicitly_default_constructibleEv
FN:715,719,_ZNSt17_TupleConstraintsILb1EJPNSt7__cxx1112basic_stringIcSt11char_traitsIcESaIcEEESt14default_deleteIS5_EEE37__is_implicitly_default_constructibleEv
FN:715,719,_ZNSt17_TupleConstraintsILb1EJPNSt7__cxx1118basic_stringstreamIcSt11char_traitsIcESaIcEEESt14default_deleteIS5_EEE37__is_implicitly_default_constructibleEv
FN:721,727,_ZNSt17_TupleConstraintsILb1EJPKN7testing16MatcherInterfaceINSt7__cxx1112basic_stringIcSt11char_traitsIcESaIcEEEEESt14default_deleteIS9_EEE37__is_explicitly_default_constructibleEv
FN:721,727,_ZNSt17_TupleConstraintsILb1EJPKN7testing16MatcherInterfaceIRKNSt7__cxx1112basic_stringIcSt11char_traitsIcESaIcEEEEESt14default_deleteISB_EEE37__is_explicitly_default_constructibleEv
FN:721,727,_ZNSt17_TupleConstraintsILb1EJPKN7testing16MatcherInterfaceIRKSt17basic_string_viewIcSt11char_traitsIcEEEESt14default_deleteIS9_EEE37__is_explicitly_default_constructibleEv
FN:721,727,_ZNSt17_TupleConstraintsILb1EJPKN7testing16MatcherInterfaceISt17basic_string_viewIcSt11char_traitsIcEEEESt14default_deleteIS7_EEE37__is_explicitly_default_constructibleEv
FN:721,727,_ZNSt17_TupleConstraintsILb1EJPKN7testing8internal11MatcherBaseINSt7__cxx1112basic_stringIcSt11char_traitsIcESaIcEEEEEPKNS0_16MatcherInterfaceIRKS8_EEEE37__is_explicitly_default_constructibleEv
FN:721,727,_ZNSt17_TupleConstraintsILb1EJPKN7testing8internal11MatcherBaseINSt7__cxx1112basic_stringIcSt11char_traitsIcESaIcEEEEEPKNS0_16MatcherInterfaceIS8_EEEE37__is_explicitly_default_constructibleEv
FN:721,727,_ZNSt17_TupleConstraintsILb1EJPKN7testing8internal11MatcherBaseIRKNSt7__cxx1112basic_stringIcSt11char_traitsIcESaIcEEEEEPKNS0_16MatcherInterfaceISA_EEEE37__is_explicitly_default_constructibleEv
FN:721,727,_ZNSt17_TupleConstraintsILb1EJPKN7testing8internal11MatcherBaseIRKSt17basic_string_viewIcSt11char_traitsIcEEEEPKNS0_16MatcherInterfaceIS8_EEEE37__is_explicitly_default_constructibleEv
FN:721,727,_ZNSt17_TupleConstraintsILb1EJPKN7testing8internal11MatcherBaseISt17basic_string_viewIcSt11char_traitsIcEEEEPKNS0_16MatcherInterfaceIRKS6_EEEE37__is_explicitly_default_constructibleEv
FN:721,727,_ZNSt17_TupleConstraintsILb1EJPKN7testing8internal11MatcherBaseISt17basic_string_viewIcSt11char_traitsIcEEEEPKNS0_16MatcherInterfaceIS6_EEEE37__is_explicitly_default_constructibleEv
FN:721,727,_ZNSt17_TupleConstraintsILb1EJPKNSt7__cxx1112basic_stringIcSt11char_traitsIcESaIcEEESt14default_deleteIS6_EEE37__is_explicitly_default_constructibleEv
FN:721,727,_ZNSt17_TupleConstraintsILb1EJPKbSt14default_deleteIS0_EEE37__is_explicitly_default_constructibleEv
FN:721,727,_ZNSt17_TupleConstraintsILb1EJPN7testing8internal14GTestFlagSaverESt14default_deleteIS2_EEE37__is_explicitly_default_constructibleEv
FN:721,727,_ZNSt17_TupleConstraintsILb1EJPNSt7__cxx1112basic_stringIcSt11char_traitsIcESaIcEEESt14default_deleteIS5_EEE37__is_explicitly_default_constructibleEv
FN:721,727,_ZNSt17_TupleConstraintsILb1EJPNSt7__cxx1118basic_stringstreamIcSt11char_traitsIcESaIcEEESt14default_deleteIS5_EEE37__is_explicitly_default_constructibleEv
FN:81,82,_ZNSt10_Head_baseILm1ESt14default_deleteIKN7testing16MatcherInterfaceINSt7__cxx1112basic_stringIcSt11char_traitsIcESaIcEEEEEELb1EEC2Ev
FN:81,82,_ZNSt10_Head_baseILm1ESt14default_deleteIKN7testing16MatcherInterfaceIRKNSt7__cxx1112basic_stringIcSt11char_traitsIcESaIcEEEEEELb1EEC2Ev
FN:81,82,_ZNSt10_Head_baseILm1ESt14default_deleteIKN7testing16MatcherInterfaceIRKSt17basic_string_viewIcSt11char_traitsIcEEEEELb1EEC2Ev
FN:81,82,_ZNSt10_Head_baseILm1ESt14default_deleteIKN7testing16MatcherInterfaceISt17basic_string_viewIcSt11char_traitsIcEEEEELb1EEC2Ev
FN:81,82,_ZNSt10_Head_baseILm1ESt14default_deleteIKbELb1EEC2Ev
FN:81,82,_ZNSt10_Head_baseILm1ESt14default_deleteINSt7__cxx1112basic_stringIcSt11char_traitsIcESaIcEEEELb1EEC2Ev
FN:81,82,_ZNSt10_Head_baseILm1ESt14default_deleteINSt7__cxx1118basic_stringstreamIcSt11char_traitsIcESaIcEEEELb1EEC2Ev
FNDA:0,_ZNSt5tupleIJEE4swapERS0_
FNDA:0,_ZNSt10_Head_baseILm1ESt14default_deleteIKN7testing16MatcherInterfaceINSt7__cxx1112basic_stringIcSt11char_traitsIcESaIcEEEEEELb1EE7_M_headERSC_
FNDA:0,_ZNSt10_Head_baseILm1ESt14default_deleteIKN7testing16MatcherInterfaceIRKNSt7__cxx1112basic_stringIcSt11char_traitsIcESaIcEEEEEELb1EE7_M_headERSE_
FNDA:0,_ZNSt10_Head_baseILm1ESt14default_deleteIKN7testing16MatcherInterfaceIRKSt17basic_string_viewIcSt11char_traitsIcEEEEELb1EE7_M_headERSC_
FNDA:0,_ZNSt10_Head_baseILm1ESt14default_deleteIKN7testing16MatcherInterfaceISt17basic_string_viewIcSt11char_traitsIcEEEEELb1EE7_M_headERSA_
FNDA:0,_ZNSt10_Head_baseILm1ESt14default_deleteIKbELb1EE7_M_headERS3_
FNDA:0,_ZNSt10_Head_baseILm1ESt14default_deleteINSt7__cxx1112basic_stringIcSt11char_traitsIcESaIcEEEELb1EE7_M_headERS8_
FNDA:253,_ZNSt10_Head_baseILm1ESt14default_deleteINSt7__cxx1118basic_stringstreamIcSt11char_traitsIcESaIcEEEELb1EE7_M_headERS8_
FNDA:0,_ZNSt5tupleIJPKN7testing16MatcherInterfaceINSt7__cxx1112basic_stringIcSt11char_traitsIcESaIcEEEEESt14default_deleteIS9_EEE12__assignableIRKSA_RKSC_EEbv
FNDA:0,_ZNSt5tupleIJPKN7testing16MatcherInterfaceINSt7__cxx1112basic_stringIcSt11char_traitsIcESaIcEEEEESt14default_deleteIS9_EEE12__assignableISA_SC_EEbv
FNDA:0,_ZNSt5tupleIJPKN7testing16MatcherInterfaceIRKNSt7__cxx1112basic_stringIcSt11char_traitsIcESaIcEEEEESt14default_deleteISB_EEE12__assignableIRKSC_RKSE_EEbv
FNDA:0,_ZNSt5tupleIJPKN7testing16MatcherInterfaceIRKNSt7__cxx1112basic_stringIcSt11char_traitsIcESaIcEEEEESt14default_deleteISB_EEE12__assignableISC_SE_EEbv
FNDA:0,_ZNSt5tupleIJPKN7testing16MatcherInterfaceIRKSt17basic_string_viewIcSt11char_traitsIcEEEESt14default_deleteIS9_EEE12__assignableIRKSA_RKSC_EEbv
FNDA:0,_ZNSt5tupleIJPKN7testing16MatcherInterfaceIRKSt17basic_string_viewIcSt11char_traitsIcEEEESt14default_deleteIS9_EEE12__assignableISA_SC_EEbv
FNDA:0,_ZNSt5tupleIJPKN7testing16MatcherInterfaceISt17basic_string_viewIcSt11char_traitsIcEEEESt14default_deleteIS7_EEE12__assignableIRKS8_RKSA_EEbv
FNDA:0,_ZNSt5tupleIJPKN7testing16MatcherInterfaceISt17basic_string_viewIcSt11char_traitsIcEEEESt14default_deleteIS7_EEE12__assignableIS8_SA_EEbv
FNDA:0,_ZNSt5tupleIJPKN7testing8internal11MatcherBaseINSt7__cxx1112basic_stringIcSt11char_traitsIcESaIcEEEEEPKNS0_16MatcherInterfaceIRKS8_EEEE12__assignableIRKSB_RKSH_EEbv
FNDA:0,_ZNSt5tupleIJPKN7testing8internal11MatcherBaseINSt7__cxx1112basic_stringIcSt11char_traitsIcESaIcEEEEEPKNS0_16MatcherInterfaceIRKS8_EEEE12__assignableISB_SH_EEbv
FNDA:0,_ZNSt5tupleIJPKN7testing8internal11MatcherBaseINSt7__cxx1112basic_stringIcSt11char_traitsIcESaIcEEEEEPKNS0_16MatcherInterfaceIS8_EEEE12__assignableIRKSB_RKSF_EEbv
FNDA:0,_ZNSt5tupleIJPKN7testing8internal11MatcherBaseINSt7__cxx1112basic_stringIcSt11char_traitsIcESaIcEEEEEPKNS0_16MatcherInterfaceIS8_EEEE12__assignableISB_SF_EEbv
FNDA:0,_ZNSt5tupleIJPKN7testing8internal11MatcherBaseIRKNSt7__cxx1112basic_stringIcSt11char_traitsIcESaIcEEEEEPKNS0_16MatcherInterfaceISA_EEEE12__assignableIRKSD_RKSH_EEbv
FNDA:0,_ZNSt5tupleIJPKN7testing8internal11MatcherBaseIRKNSt7__cxx1112basic_stringIcSt11char_traitsIcESaIcEEEEEPKNS0_16MatcherInterfaceISA_EEEE12__assignableISD_SH_EEbv
FNDA:0,_ZNSt5tupleIJPKN7testing8internal11MatcherBaseIRKSt17basic_string_viewIcSt11char_traitsIcEEEEPKNS0_16MatcherInterfaceIS8_EEEE12__assignableIRKSB_RKSF_EEbv
FNDA:0,_ZNSt5tupleIJPKN7testing8internal11MatcherBaseIRKSt17basic_string_viewIcSt11char_traitsIcEEEEPKNS0_16MatcherInterfaceIS8_EEEE12__assignableISB_SF_EEbv
FNDA:0,_ZNSt5tupleIJPKN7testing8internal11MatcherBaseISt17basic_string_viewIcSt11char_traitsIcEEEEPKNS0_16MatcherInterfaceIRKS6_EEEE12__assignableIRKS9_RKSF_EEbv
FNDA:0,_ZNSt5tupleIJPKN7testing8internal11MatcherBaseISt17basic_string_viewIcSt11char_traitsIcEEEEPKNS0_16MatcherInterfaceIRKS6_EEEE12__assignableIS9_SF_EEbv
FNDA:0,_ZNSt5tupleIJPKN7testing8internal11MatcherBaseISt17basic_string_viewIcSt11char_traitsIcEEEEPKNS0_16MatcherInterfaceIS6_EEEE12__assignableIRKS9_RKSD_EEbv
FNDA:0,_ZNSt5tupleIJPKN7testing8internal11MatcherBaseISt17basic_string_viewIcSt11char_traitsIcEEEEPKNS0_16MatcherInterfaceIS6_EEEE12__assignableIS9_SD_EEbv
FNDA:0,_ZNSt5tupleIJPKNSt7__cxx1112basic_stringIcSt11char_traitsIcESaIcEEESt14default_deleteIS6_EEE12__assignableIRKS7_RKS9_EEbv
FNDA:0,_ZNSt5tupleIJPKNSt7__cxx1112basic_stringIcSt11char_traitsIcESaIcEEESt14default_deleteIS6_EEE12__assignableIS7_S9_EEbv
FNDA:0,_ZNSt5tupleIJPKbSt14default_deleteIS0_EEE12__assignableIRKS1_RKS3_EEbv
FNDA:0,_ZNSt5tupleIJPKbSt14default_deleteIS0_EEE12__assignableIS1_S3_EEbv
FNDA:0,_ZNSt5tupleIJPN7testing8internal14GTestFlagSaverESt14default_deleteIS2_EEE12__assignableIRKS3_RKS5_EEbv
FNDA:0,_ZNSt5tupleIJPN7testing8internal14GTestFlagSaverESt14default_deleteIS2_EEE12__assignableIS3_S5_EEbv
FNDA:0,_ZNSt5tupleIJPNSt7__cxx1112basic_stringIcSt11char_traitsIcESaIcEEESt14default_deleteIS5_EEE12__assignableIRKS6_RKS8_EEbv
FNDA:0,_ZNSt5tupleIJPNSt7__cxx1112basic_stringIcSt11char_traitsIcESaIcEEESt14default_deleteIS5_EEE12__assignableIS6_S8_EEbv
FNDA:0,_ZNSt5tupleIJPNSt7__cxx1118basic_stringstreamIcSt11char_traitsIcESaIcEEESt14default_deleteIS5_EEE12__assignableIRKS6_RKS8_EEbv
FNDA:0,_ZNSt5tupleIJPNSt7__cxx1118basic_stringstreamIcSt11char_traitsIcESaIcEEESt14default_deleteIS5_EEE12__assignableIS6_S8_EEbv
FNDA:0,_ZNSt5tupleIJPKN7testing8internal11MatcherBaseINSt7__cxx1112basic_stringIcSt11char_traitsIcESaIcEEEEEPKNS0_16MatcherInterfaceIRKS8_EEEE23__nothrow_constructibleISB_SH_EEbv
FNDA:0,_ZNSt5tupleIJPKN7testing8internal11MatcherBaseINSt7__cxx1112basic_stringIcSt11char_traitsIcESaIcEEEEEPKNS0_16MatcherInterfaceIS8_EEEE23__nothrow_constructibleISB_SF_EEbv
FNDA:0,_ZNSt5tupleIJPKN7testing8internal11MatcherBaseIRKNSt7__cxx1112basic_stringIcSt11char_traitsIcESaIcEEEEEPKNS0_16MatcherInterfaceISA_EEEE23__nothrow_constructibleISD_SH_EEbv
FNDA:0,_ZNSt5tupleIJPKN7testing8internal11MatcherBaseIRKSt17basic_string_viewIcSt11char_traitsIcEEEEPKNS0_16MatcherInterfaceIS8_EEEE23__nothrow_constructibleISB_SF_EEbv
FNDA:0,_ZNSt5tupleIJPKN7testing8internal11MatcherBaseISt17basic_string_viewIcSt11char_traitsIcEEEEPKNS0_16MatcherInterfaceIRKS6_EEEE23__nothrow_constructibleIS9_SF_EEbv
FNDA:0,_ZNSt5tupleIJPKN7testing8internal11MatcherBaseISt17basic_string_viewIcSt11char_traitsIcEEEEPKNS0_16MatcherInterfaceIS6_EEEE23__nothrow_constructibleIS9_SD_EEbv
FNDA:0,_ZNSt5tupleIJPKN7testing16MatcherInterfaceINSt7__cxx1112basic_stringIcSt11char_traitsIcESaIcEEEEESt14default_deleteIS9_EEE31__nothrow_default_constructibleEv
FNDA:0,_ZNSt5tupleIJPKN7testing16MatcherInterfaceIRKNSt7__cxx1112basic_stringIcSt11char_traitsIcESaIcEEEEESt14default_deleteISB_EEE31__nothrow_default_constructibleEv
FNDA:0,_ZNSt5tupleIJPKN7testing16MatcherInterfaceIRKSt17basic_string_viewIcSt11char_traitsIcEEEESt14default_deleteIS9_EEE31__nothrow_default_constructibleEv
FNDA:0,_ZNSt5tupleIJPKN7testing16MatcherInterfaceISt17basic_string_viewIcSt11char_traitsIcEEEESt14default_deleteIS7_EEE31__nothrow_default_constructibleEv
FNDA:0,_ZNSt5tupleIJPKbSt14default_deleteIS0_EEE31__nothrow_default_constructibleEv
FNDA:0,_ZNSt5tupleIJPNSt7__cxx1112basic_stringIcSt11char_traitsIcESaIcEEESt14default_deleteIS5_EEE31__nothrow_default_constructibleEv
FNDA:0,_ZNSt5tupleIJPNSt7__cxx1118basic_stringstreamIcSt11char_traitsIcESaIcEEESt14default_deleteIS5_EEE31__nothrow_default_constructibleEv
FNDA:0,_ZNSt5tupleIJPKN7testing8internal11MatcherBaseINSt7__cxx1112basic_stringIcSt11char_traitsIcESaIcEEEEEPKNS0_16MatcherInterfaceIRKS8_EEEE14__is_alloc_argISB_EEbv
FNDA:0,_ZNSt5tupleIJPKN7testing8internal11MatcherBaseINSt7__cxx1112basic_stringIcSt11char_traitsIcESaIcEEEEEPKNS0_16MatcherInterfaceIS8_EEEE14__is_alloc_argISB_EEbv
FNDA:0,_ZNSt5tupleIJPKN7testing8internal11MatcherBaseIRKNSt7__cxx1112basic_stringIcSt11char_traitsIcESaIcEEEEEPKNS0_16MatcherInterfaceISA_EEEE14__is_alloc_argISD_EEbv
FNDA:0,_ZNSt5tupleIJPKN7testing8internal11MatcherBaseIRKSt17basic_string_viewIcSt11char_traitsIcEEEEPKNS0_16MatcherInterfaceIS8_EEEE14__is_alloc_argISB_EEbv
FNDA:0,_ZNSt5tupleIJPKN7testing8internal11MatcherBaseISt17basic_string_viewIcSt11char_traitsIcEEEEPKNS0_16MatcherInterfaceIRKS6_EEEE14__is_alloc_argIS9_EEbv
FNDA:0,_ZNSt5tupleIJPKN7testing8internal11MatcherBaseISt17basic_string_viewIcSt11char_traitsIcEEEEPKNS0_16MatcherInterfaceIS6_EEEE14__is_alloc_argIS9_EEbv
FNDA:0,_ZNSt5tupleIJPKN7testing16MatcherInterfaceINSt7__cxx1112basic_stringIcSt11char_traitsIcESaIcEEEEESt14default_deleteIS9_EEEC2ILb1ELb1EEEv
FNDA:0,_ZNSt5tupleIJPKN7testing16MatcherInterfaceIRKNSt7__cxx1112basic_stringIcSt11char_traitsIcESaIcEEEEESt14default_deleteISB_EEEC2ILb1ELb1EEEv
FNDA:0,_ZNSt5tupleIJPKN7testing16MatcherInterfaceIRKSt17basic_string_viewIcSt11char_traitsIcEEEESt14default_deleteIS9_EEEC2ILb1ELb1EEEv
FNDA:0,_ZNSt5tupleIJPKN7testing16MatcherInterfaceISt17basic_string_viewIcSt11char_traitsIcEEEESt14default_deleteIS7_EEEC2ILb1ELb1EEEv
FNDA:0,_ZNSt5tupleIJPKbSt14default_deleteIS0_EEEC2ILb1ELb1EEEv
FNDA:146,_ZNSt5tupleIJPNSt7__cxx1112basic_stringIcSt11char_traitsIcESaIcEEESt14default_deleteIS5_EEEC2ILb1ELb1EEEv
FNDA:253,_ZNSt5tupleIJPNSt7__cxx1118basic_stringstreamIcSt11char_traitsIcESaIcEEESt14default_deleteIS5_EEEC2ILb1ELb1EEEv
FNDA:0,_ZNSt5tupleIJPKN7testing8internal11MatcherBaseINSt7__cxx1112basic_stringIcSt11char_traitsIcESaIcEEEEEPKNS0_16MatcherInterfaceIRKS8_EEEEC2ISB_SH_Lb1EEEOT_OT0_
FNDA:0,_ZNSt5tupleIJPKN7testing8internal11MatcherBaseINSt7__cxx1112basic_stringIcSt11char_traitsIcESaIcEEEEEPKNS0_16MatcherInterfaceIS8_EEEEC2ISB_SF_Lb1EEEOT_OT0_
FNDA:0,_ZNSt5tupleIJPKN7testing8internal11MatcherBaseIRKNSt7__cxx1112basic_stringIcSt11char_traitsIcESaIcEEEEEPKNS0_16MatcherInterfaceISA_EEEEC2ISD_SH_Lb1EEEOT_OT0_
FNDA:0,_ZNSt5tupleIJPKN7testing8internal11MatcherBaseIRKSt17basic_string_viewIcSt11char_traitsIcEEEEPKNS0_16MatcherInterfaceIS8_EEEEC2ISB_SF_Lb1EEEOT_OT0_
FNDA:0,_ZNSt5tupleIJPKN7testing8internal11MatcherBaseISt17basic_string_viewIcSt11char_traitsIcEEEEPKNS0_16MatcherInterfaceIRKS6_EEEEC2IS9_SF_Lb1EEEOT_OT0_
FNDA:0,_ZNSt5tupleIJPKN7testing8internal11MatcherBaseISt17basic_string_viewIcSt11char_traitsIcEEEEPKNS0_16MatcherInterfaceIS6_EEEEC2IS9_SD_Lb1EEEOT_OT0_
FNDA:0,_ZNSt5tupleIJPKN7testing16MatcherInterfaceINSt7__cxx1112basic_stringIcSt11char_traitsIcESaIcEEEEESt14default_deleteIS9_EEEC2EOSD_
FNDA:0,_ZNSt5tupleIJPKN7testing16MatcherInterfaceIRKNSt7__cxx1112basic_stringIcSt11char_traitsIcESaIcEEEEESt14default_deleteISB_EEEC2EOSF_
FNDA:0,_ZNSt5tupleIJPKN7testing16MatcherInterfaceIRKSt17basic_string_viewIcSt11char_traitsIcEEEESt14default_deleteIS9_EEEC2EOSD_
FNDA:0,_ZNSt5tupleIJPKN7testing16MatcherInterfaceISt17basic_string_viewIcSt11char_traitsIcEEEESt14default_deleteIS7_EEEC2EOSB_
FNDA:0,_ZSt12__get_helperILm0EPKN7testing16MatcherInterfaceINSt7__cxx1112basic_stringIcSt11char_traitsIcESaIcEEEEEJSt14default_deleteIS9_EEERT0_RSt11_Tuple_implIXT_EJSD_DpT1_EE
FNDA:0,_ZSt12__get_helperILm0EPKN7testing16MatcherInterfaceIRKNSt7__cxx1112basic_stringIcSt11char_traitsIcESaIcEEEEEJSt14default_deleteISB_EEERT0_RSt11_Tuple_implIXT_EJSF_DpT1_EE
FNDA:0,_ZSt12__get_helperILm0EPKN7testing16MatcherInterfaceIRKSt17basic_string_viewIcSt11char_traitsIcEEEEJSt14default_deleteIS9_EEERT0_RSt11_Tuple_implIXT_EJSD_DpT1_EE
FNDA:0,_ZSt12__get_helperILm0EPKN7testing16MatcherInterfaceISt17basic_string_viewIcSt11char_traitsIcEEEEJSt14default_deleteIS7_EEERT0_RSt11_Tuple_implIXT_EJSB_DpT1_EE
FNDA:0,_ZSt12__get_helperILm0EPKbJSt14default_deleteIS0_EEERT0_RSt11_Tuple_implIXT_EJS4_DpT1_EE
FNDA:146,_ZSt12__get_helperILm0EPNSt7__cxx1112basic_stringIcSt11char_traitsIcESaIcEEEJSt14default_deleteIS5_EEERT0_RSt11_Tuple_implIXT_EJS9_DpT1_EE
FNDA:506,_ZSt12__get_helperILm0EPNSt7__cxx1118basic_stringstreamIcSt11char_traitsIcESaIcEEEJSt14default_deleteIS5_EEERT0_RSt11_Tuple_implIXT_EJS9_DpT1_EE
FNDA:0,_ZSt12__get_helperILm1EPKN7testing16MatcherInterfaceINSt7__cxx1112basic_stringIcSt11char_traitsIcESaIcEEEEEJEERT0_RSt11_Tuple_implIXT_EJSB_DpT1_EE
FNDA:0,_ZSt12__get_helperILm1EPKN7testing16MatcherInterfaceIRKNSt7__cxx1112basic_stringIcSt11char_traitsIcESaIcEEEEEJEERT0_RSt11_Tuple_implIXT_EJSD_DpT1_EE
FNDA:0,_ZSt12__get_helperILm1EPKN7testing16MatcherInterfaceIRKSt17basic_string_viewIcSt11char_traitsIcEEEEJEERT0_RSt11_Tuple_implIXT_EJSB_DpT1_EE
FNDA:0,_ZSt12__get_helperILm1EPKN7testing16MatcherInterfaceISt17basic_string_viewIcSt11char_traitsIcEEEEJEERT0_RSt11_Tuple_implIXT_EJS9_DpT1_EE
FNDA:0,_ZSt12__get_helperILm1ESt14default_deleteIKN7testing16MatcherInterfaceINSt7__cxx1112basic_stringIcSt11char_traitsIcESaIcEEEEEEJEERT0_RSt11_Tuple_implIXT_EJSC_DpT1_EE
FNDA:0,_ZSt12__get_helperILm1ESt14default_deleteIKN7testing16MatcherInterfaceIRKNSt7__cxx1112basic_stringIcSt11char_traitsIcESaIcEEEEEEJEERT0_RSt11_Tuple_implIXT_EJSE_DpT1_EE
FNDA:0,_ZSt12__get_helperILm1ESt14default_deleteIKN7testing16MatcherInterfaceIRKSt17basic_string_viewIcSt11char_traitsIcEEEEEJEERT0_RSt11_Tuple_implIXT_EJSC_DpT1_EE
FNDA:0,_ZSt12__get_helperILm1ESt14default_deleteIKN7testing16MatcherInterfaceISt17basic_string_viewIcSt11char_traitsIcEEEEEJEERT0_RSt11_Tuple_implIXT_EJSA_DpT1_EE
FNDA:0,_ZSt12__get_helperILm1ESt14default_deleteIKbEJEERT0_RSt11_Tuple_implIXT_EJS3_DpT1_EE
FNDA:0,_ZSt12__get_helperILm1ESt14default_deleteINSt7__cxx1112basic_stringIcSt11char_traitsIcESaIcEEEEJEERT0_RSt11_Tuple_implIXT_EJS8_DpT1_EE
FNDA:253,_ZSt12__get_helperILm1ESt14default_deleteINSt7__cxx1118basic_stringstreamIcSt11char_traitsIcESaIcEEEEJEERT0_RSt11_Tuple_implIXT_EJS8_DpT1_EE
FNDA:0,_ZSt12__get_helperILm0EPKN7testing16MatcherInterfaceINSt7__cxx1112basic_stringIcSt11char_traitsIcESaIcEEEEEJSt14default_deleteIS9_EEERKT0_RKSt11_Tuple_implIXT_EJSD_DpT1_EE
FNDA:0,_ZSt12__get_helperILm0EPKN7testing16MatcherInterfaceIRKNSt7__cxx1112basic_stringIcSt11char_traitsIcESaIcEEEEEJSt14default_deleteISB_EEERKT0_RKSt11_Tuple_implIXT_EJSF_DpT1_EE
FNDA:0,_ZSt12__get_helperILm0EPKN7testing16MatcherInterfaceIRKSt17basic_string_viewIcSt11char_traitsIcEEEEJSt14default_deleteIS9_EEERKT0_RKSt11_Tuple_implIXT_EJSD_DpT1_EE
FNDA:0,_ZSt12__get_helperILm0EPKN7testing16MatcherInterfaceISt17basic_string_viewIcSt11char_traitsIcEEEEJSt14default_deleteIS7_EEERKT0_RKSt11_Tuple_implIXT_EJSB_DpT1_EE
FNDA:122,_ZSt12__get_helperILm0EPKNSt7__cxx1112basic_stringIcSt11char_traitsIcESaIcEEEJSt14default_deleteIS6_EEERKT0_RKSt11_Tuple_implIXT_EJSA_DpT1_EE
FNDA:0,_ZSt12__get_helperILm0EPKbJSt14default_deleteIS0_EEERKT0_RKSt11_Tuple_implIXT_EJS4_DpT1_EE
FNDA:0,_ZSt12__get_helperILm0EPNSt7__cxx1112basic_stringIcSt11char_traitsIcESaIcEEEJSt14default_deleteIS5_EEERKT0_RKSt11_Tuple_implIXT_EJS9_DpT1_EE
FNDA:2527,_ZSt12__get_helperILm0EPNSt7__cxx1118basic_stringstreamIcSt11char_traitsIcESaIcEEEJSt14default_deleteIS5_EEERKT0_RKSt11_Tuple_implIXT_EJS9_DpT1_EE
FNDA:0,_ZSt3getILm0EJPKN7testing16MatcherInterfaceINSt7__cxx1112basic_stringIcSt11char_traitsIcESaIcEEEEESt14default_deleteIS9_EEERNSt13tuple_elementIXT_ESt5tupleIJDpT0_EEE4typeERSH_
FNDA:0,_ZSt3getILm0EJPKN7testing16MatcherInterfaceIRKNSt7__cxx1112basic_stringIcSt11char_traitsIcESaIcEEEEESt14default_deleteISB_EEERNSt13tuple_elementIXT_ESt5tupleIJDpT0_EEE4typeERSJ_
FNDA:0,_ZSt3getILm0EJPKN7testing16MatcherInterfaceIRKSt17basic_string_viewIcSt11char_traitsIcEEEESt14default_deleteIS9_EEERNSt13tuple_elementIXT_ESt5tupleIJDpT0_EEE4typeERSH_
FNDA:0,_ZSt3getILm0EJPKN7testing16MatcherInterfaceISt17basic_string_viewIcSt11char_traitsIcEEEESt14default_deleteIS7_EEERNSt13tuple_elementIXT_ESt5tupleIJDpT0_EEE4typeERSF_
FNDA:0,_ZSt3getILm0EJPKbSt14default_deleteIS0_EEERNSt13tuple_elementIXT_ESt5tupleIJDpT0_EEE4typeERS8_
FNDA:146,_ZSt3getILm0EJPNSt7__cxx1112basic_stringIcSt11char_traitsIcESaIcEEESt14default_deleteIS5_EEERNSt13tuple_elementIXT_ESt5tupleIJDpT0_EEE4typeERSD_
FNDA:506,_ZSt3getILm0EJPNSt7__cxx1118basic_stringstreamIcSt11char_traitsIcESaIcEEESt14default_deleteIS5_EEERNSt13tuple_elementIXT_ESt5tupleIJDpT0_EEE4typeERSD_
FNDA:0,_ZSt3getILm1EJPKN7testing16MatcherInterfaceINSt7__cxx1112basic_stringIcSt11char_traitsIcESaIcEEEEESt14default_deleteIS9_EEERNSt13tuple_elementIXT_ESt5tupleIJDpT0_EEE4typeERSH_
FNDA:0,_ZSt3getILm1EJPKN7testing16MatcherInterfaceIRKNSt7__cxx1112basic_stringIcSt11char_traitsIcESaIcEEEEESt14default_deleteISB_EEERNSt13tuple_elementIXT_ESt5tupleIJDpT0_EEE4typeERSJ_
FNDA:0,_ZSt3getILm1EJPKN7testing16MatcherInterfaceIRKSt17basic_string_viewIcSt11char_traitsIcEEEESt14default_deleteIS9_EEERNSt13tuple_elementIXT_ESt5tupleIJDpT0_EEE4typeERSH_
FNDA:0,_ZSt3getILm1EJPKN7testing16MatcherInterfaceISt17basic_string_viewIcSt11char_traitsIcEEEESt14default_deleteIS7_EEERNSt13tuple_elementIXT_ESt5tupleIJDpT0_EEE4typeERSF_
FNDA:0,_ZSt3getILm1EJPKbSt14default_deleteIS0_EEERNSt13tuple_elementIXT_ESt5tupleIJDpT0_EEE4typeERS8_
FNDA:0,_ZSt3getILm1EJPNSt7__cxx1112basic_stringIcSt11char_traitsIcESaIcEEESt14default_deleteIS5_EEERNSt13tuple_elementIXT_ESt5tupleIJDpT0_EEE4typeERSD_
FNDA:253,_ZSt3getILm1EJPNSt7__cxx1118basic_stringstreamIcSt11char_traitsIcESaIcEEESt14default_deleteIS5_EEERNSt13tuple_elementIXT_ESt5tupleIJDpT0_EEE4typeERSD_
FNDA:0,_ZSt3getILm0EJPKN7testing16MatcherInterfaceINSt7__cxx1112basic_stringIcSt11char_traitsIcESaIcEEEEESt14default_deleteIS9_EEERKNSt13tuple_elementIXT_ESt5tupleIJDpT0_EEE4typeERKSH_
FNDA:0,_ZSt3getILm0EJPKN7testing16MatcherInterfaceIRKNSt7__cxx1112basic_stringIcSt11char_traitsIcESaIcEEEEESt14default_deleteISB_EEERKNSt13tuple_elementIXT_ESt5tupleIJDpT0_EEE4typeERKSJ_
FNDA:0,_ZSt3getILm0EJPKN7testing16MatcherInterfaceIRKSt17basic_string_viewIcSt11char_traitsIcEEEESt14default_deleteIS9_EEERKNSt13tuple_elementIXT_ESt5tupleIJDpT0_EEE4typeERKSH_
FNDA:0,_ZSt3getILm0EJPKN7testing16MatcherInterfaceISt17basic_string_viewIcSt11char_traitsIcEEEESt14default_deleteIS7_EEERKNSt13tuple_elementIXT_ESt5tupleIJDpT0_EEE4typeERKSF_
FNDA:122,_ZSt3getILm0EJPKNSt7__cxx1112basic_stringIcSt11char_traitsIcESaIcEEESt14default_deleteIS6_EEERKNSt13tuple_elementIXT_ESt5tupleIJDpT0_EEE4typeERKSE_
FNDA:0,_ZSt3getILm0EJPKbSt14default_deleteIS0_EEERKNSt13tuple_elementIXT_ESt5tupleIJDpT0_EEE4typeERKS8_
FNDA:0,_ZSt3getILm0EJPNSt7__cxx1112basic_stringIcSt11char_traitsIcESaIcEEESt14default_deleteIS5_EEERKNSt13tuple_elementIXT_ESt5tupleIJDpT0_EEE4typeERKSD_
FNDA:2527,_ZSt3getILm0EJPNSt7__cxx1118basic_stringstreamIcSt11char_traitsIcESaIcEEESt14default_deleteIS5_EEERKNSt13tuple_elementIXT_ESt5tupleIJDpT0_EEE4typeERKSD_
FNDA:0,_ZSt3getILm1EJPKN7testing8internal11MatcherBaseINSt7__cxx1112basic_stringIcSt11char_traitsIcESaIcEEEEEPKNS0_16MatcherInterfaceIRKS8_EEEEONSt13tuple_elementIXT_ESt5tupleIJDpT0_EEE4typeEOSM_
FNDA:0,_ZSt3getILm1EJPKN7testing8internal11MatcherBaseINSt7__cxx1112basic_stringIcSt11char_traitsIcESaIcEEEEEPKNS0_16MatcherInterfaceIS8_EEEEONSt13tuple_elementIXT_ESt5tupleIJDpT0_EEE4typeEOSK_
FNDA:0,_ZSt3getILm1EJPKN7testing8internal11MatcherBaseIRKNSt7__cxx1112basic_stringIcSt11char_traitsIcESaIcEEEEEPKNS0_16MatcherInterfaceISA_EEEEONSt13tuple_elementIXT_ESt5tupleIJDpT0_EEE4typeEOSM_
FNDA:0,_ZSt3getILm1EJPKN7testing8internal11MatcherBaseIRKSt17basic_string_viewIcSt11char_traitsIcEEEEPKNS0_16MatcherInterfaceIS8_EEEEONSt13tuple_elementIXT_ESt5tupleIJDpT0_EEE4typeEOSK_
FNDA:0,_ZSt3getILm1EJPKN7testing8internal11MatcherBaseISt17basic_string_viewIcSt11char_traitsIcEEEEPKNS0_16MatcherInterfaceIRKS6_EEEEONSt13tuple_elementIXT_ESt5tupleIJDpT0_EEE4typeEOSK_
FNDA:0,_ZSt3getILm1EJPKN7testing8internal11MatcherBaseISt17basic_string_viewIcSt11char_traitsIcEEEEPKNS0_16MatcherInterfaceIS6_EEEEONSt13tuple_elementIXT_ESt5tupleIJDpT0_EEE4typeEOSI_
FNDA:0,_ZNSt10_Head_baseILm0EPKN7testing16MatcherInterfaceINSt7__cxx1112basic_stringIcSt11char_traitsIcESaIcEEEEELb0EEC2Ev
FNDA:0,_ZNSt10_Head_baseILm0EPKN7testing16MatcherInterfaceIRKNSt7__cxx1112basic_stringIcSt11char_traitsIcESaIcEEEEELb0EEC2Ev
FNDA:0,_ZNSt10_Head_baseILm0EPKN7testing16MatcherInterfaceIRKSt17basic_string_viewIcSt11char_traitsIcEEEELb0EEC2Ev
FNDA:0,_ZNSt10_Head_baseILm0EPKN7testing16MatcherInterfaceISt17basic_string_viewIcSt11char_traitsIcEEEELb0EEC2Ev
FNDA:0,_ZNSt10_Head_baseILm0EPKbLb0EEC2Ev
FNDA:146,_ZNSt10_Head_baseILm0EPNSt7__cxx1112basic_stringIcSt11char_traitsIcESaIcEEELb0EEC2Ev
FNDA:253,_ZNSt10_Head_baseILm0EPNSt7__cxx1118basic_stringstreamIcSt11char_traitsIcESaIcEEELb0EEC2Ev
FNDA:0,_ZNSt10_Head_baseILm0EPKN7testing8internal11MatcherBaseINSt7__cxx1112basic_stringIcSt11char_traitsIcESaIcEEEEELb0EEC2ISB_EEOT_
FNDA:0,_ZNSt10_Head_baseILm0EPKN7testing8internal11MatcherBaseIRKNSt7__cxx1112basic_stringIcSt11char_traitsIcESaIcEEEEELb0EEC2ISD_EEOT_
FNDA:0,_ZNSt10_Head_baseILm0EPKN7testing8internal11MatcherBaseIRKSt17basic_string_viewIcSt11char_traitsIcEEEELb0EEC2ISB_EEOT_
FNDA:0,_ZNSt10_Head_baseILm0EPKN7testing8internal11MatcherBaseISt17basic_string_viewIcSt11char_traitsIcEEEELb0EEC2IS9_EEOT_
FNDA:0,_ZNSt10_Head_baseILm1EPKN7testing16MatcherInterfaceINSt7__cxx1112basic_stringIcSt11char_traitsIcESaIcEEEEELb0EEC2ISA_EEOT_
FNDA:0,_ZNSt10_Head_baseILm1EPKN7testing16MatcherInterfaceIRKNSt7__cxx1112basic_stringIcSt11char_traitsIcESaIcEEEEELb0EEC2ISC_EEOT_
FNDA:0,_ZNSt10_Head_baseILm1EPKN7testing16MatcherInterfaceIRKSt17basic_string_viewIcSt11char_traitsIcEEEELb0EEC2ISA_EEOT_
FNDA:0,_ZNSt10_Head_baseILm1EPKN7testing16MatcherInterfaceISt17basic_string_viewIcSt11char_traitsIcEEEELb0EEC2IS8_EEOT_
FNDA:0,_ZSt10make_tupleIJPKN7testing8internal11MatcherBaseINSt7__cxx1112basic_stringIcSt11char_traitsIcESaIcEEEEEPKNS0_16MatcherInterfaceIRKS8_EEEESt5tupleIJDpNSt25__strip_reference_wrapperINSt5decayIT_E4typeEE6__typeEEEDpOSL_
FNDA:0,_ZSt10make_tupleIJPKN7testing8internal11MatcherBaseINSt7__cxx1112basic_stringIcSt11char_traitsIcESaIcEEEEEPKNS0_16MatcherInterfaceIS8_EEEESt5tupleIJDpNSt25__strip_reference_wrapperINSt5decayIT_E4typeEE6__typeEEEDpOSJ_
FNDA:0,_ZSt10make_tupleIJPKN7testing8internal11MatcherBaseIRKNSt7__cxx1112basic_stringIcSt11char_traitsIcESaIcEEEEEPKNS0_16MatcherInterfaceISA_EEEESt5tupleIJDpNSt25__strip_reference_wrapperINSt5decayIT_E4typeEE6__typeEEEDpOSL_
FNDA:0,_ZSt10make_tupleIJPKN7testing8internal11MatcherBaseIRKSt17basic_string_viewIcSt11char_traitsIcEEEEPKNS0_16MatcherInterfaceIS8_EEEESt5tupleIJDpNSt25__strip_reference_wrapperINSt5decayIT_E4typeEE6__typeEEEDpOSJ_
FNDA:0,_ZSt10make_tupleIJPKN7testing8internal11MatcherBaseISt17basic_string_viewIcSt11char_traitsIcEEEEPKNS0_16MatcherInterfaceIRKS6_EEEESt5tupleIJDpNSt25__strip_reference_wrapperINSt5decayIT_E4typeEE6__typeEEEDpOSJ_
FNDA:0,_ZSt10make_tupleIJPKN7testing8internal11MatcherBaseISt17basic_string_viewIcSt11char_traitsIcEEEEPKNS0_16MatcherInterfaceIS6_EEEESt5tupleIJDpNSt25__strip_reference_wrapperINSt5decayIT_E4typeEE6__typeEEEDpOSH_
FNDA:0,_ZNSt10_Head_baseILm0EPKN7testing16MatcherInterfaceINSt7__cxx1112basic_stringIcSt11char_traitsIcESaIcEEEEELb0EE7_M_headERSB_
FNDA:0,_ZNSt10_Head_baseILm0EPKN7testing16MatcherInterfaceIRKNSt7__cxx1112basic_stringIcSt11char_traitsIcESaIcEEEEELb0EE7_M_headERSD_
FNDA:0,_ZNSt10_Head_baseILm0EPKN7testing16MatcherInterfaceIRKSt17basic_string_viewIcSt11char_traitsIcEEEELb0EE7_M_headERSB_
FNDA:0,_ZNSt10_Head_baseILm0EPKN7testing16MatcherInterfaceISt17basic_string_viewIcSt11char_traitsIcEEEELb0EE7_M_headERS9_
FNDA:0,_ZNSt10_Head_baseILm0EPKbLb0EE7_M_headERS2_
FNDA:146,_ZNSt10_Head_baseILm0EPNSt7__cxx1112basic_stringIcSt11char_traitsIcESaIcEEELb0EE7_M_headERS7_
FNDA:506,_ZNSt10_Head_baseILm0EPNSt7__cxx1118basic_stringstreamIcSt11char_traitsIcESaIcEEELb0EE7_M_headERS7_
FNDA:0,_ZNSt10_Head_baseILm1EPKN7testing16MatcherInterfaceINSt7__cxx1112basic_stringIcSt11char_traitsIcESaIcEEEEELb0EE7_M_headERSB_
FNDA:0,_ZNSt10_Head_baseILm1EPKN7testing16MatcherInterfaceIRKNSt7__cxx1112basic_stringIcSt11char_traitsIcESaIcEEEEELb0EE7_M_headERSD_
FNDA:0,_ZNSt10_Head_baseILm1EPKN7testing16MatcherInterfaceIRKSt17basic_string_viewIcSt11char_traitsIcEEEELb0EE7_M_headERSB_
FNDA:0,_ZNSt10_Head_baseILm1EPKN7testing16MatcherInterfaceISt17basic_string_viewIcSt11char_traitsIcEEEELb0EE7_M_headERS9_
FNDA:0,_ZNSt10_Head_baseILm0EPKN7testing16MatcherInterfaceINSt7__cxx1112basic_stringIcSt11char_traitsIcESaIcEEEEELb0EE7_M_headERKSB_
FNDA:0,_ZNSt10_Head_baseILm0EPKN7testing16MatcherInterfaceIRKNSt7__cxx1112basic_stringIcSt11char_traitsIcESaIcEEEEELb0EE7_M_headERKSD_
FNDA:0,_ZNSt10_Head_baseILm0EPKN7testing16MatcherInterfaceIRKSt17basic_string_viewIcSt11char_traitsIcEEEELb0EE7_M_headERKSB_
FNDA:0,_ZNSt10_Head_baseILm0EPKN7testing16MatcherInterfaceISt17basic_string_viewIcSt11char_traitsIcEEEELb0EE7_M_headERKS9_
FNDA:122,_ZNSt10_Head_baseILm0EPKNSt7__cxx1112basic_stringIcSt11char_traitsIcESaIcEEELb0EE7_M_headERKS8_
FNDA:0,_ZNSt10_Head_baseILm0EPKbLb0EE7_M_headERKS2_
FNDA:0,_ZNSt10_Head_baseILm0EPNSt7__cxx1112basic_stringIcSt11char_traitsIcESaIcEEELb0EE7_M_headERKS7_
FNDA:2527,_ZNSt10_Head_baseILm0EPNSt7__cxx1118basic_stringstreamIcSt11char_traitsIcESaIcEEELb0EE7_M_headERKS7_
FNDA:0,_ZNSt11_Tuple_implILm0EJPKN7testing16MatcherInterfaceINSt7__cxx1112basic_stringIcSt11char_traitsIcESaIcEEEEESt14default_deleteIS9_EEE7_M_headERSD_
FNDA:0,_ZNSt11_Tuple_implILm0EJPKN7testing16MatcherInterfaceIRKNSt7__cxx1112basic_stringIcSt11char_traitsIcESaIcEEEEESt14default_deleteISB_EEE7_M_headERSF_
FNDA:0,_ZNSt11_Tuple_implILm0EJPKN7testing16MatcherInterfaceIRKSt17basic_string_viewIcSt11char_traitsIcEEEESt14default_deleteIS9_EEE7_M_headERSD_
FNDA:0,_ZNSt11_Tuple_implILm0EJPKN7testing16MatcherInterfaceISt17basic_string_viewIcSt11char_traitsIcEEEESt14default_deleteIS7_EEE7_M_headERSB_
FNDA:0,_ZNSt11_Tuple_implILm0EJPKbSt14default_deleteIS0_EEE7_M_headERS4_
FNDA:146,_ZNSt11_Tuple_implILm0EJPNSt7__cxx1112basic_stringIcSt11char_traitsIcESaIcEEESt14default_deleteIS5_EEE7_M_headERS9_
FNDA:506,_ZNSt11_Tuple_implILm0EJPNSt7__cxx1118basic_stringstreamIcSt11char_traitsIcESaIcEEESt14default_deleteIS5_EEE7_M_headERS9_
FNDA:0,_ZNSt11_Tuple_implILm0EJPKN7testing16MatcherInterfaceINSt7__cxx1112basic_stringIcSt11char_traitsIcESaIcEEEEESt14default_deleteIS9_EEE7_M_headERKSD_
FNDA:0,_ZNSt11_Tuple_implILm0EJPKN7testing16MatcherInterfaceIRKNSt7__cxx1112basic_stringIcSt11char_traitsIcESaIcEEEEESt14default_deleteISB_EEE7_M_headERKSF_
FNDA:0,_ZNSt11_Tuple_implILm0EJPKN7testing16MatcherInterfaceIRKSt17basic_string_viewIcSt11char_traitsIcEEEESt14default_deleteIS9_EEE7_M_headERKSD_
FNDA:0,_ZNSt11_Tuple_implILm0EJPKN7testing16MatcherInterfaceISt17basic_string_viewIcSt11char_traitsIcEEEESt14default_deleteIS7_EEE7_M_headERKSB_
FNDA:122,_ZNSt11_Tuple_implILm0EJPKNSt7__cxx1112basic_stringIcSt11char_traitsIcESaIcEEESt14default_deleteIS6_EEE7_M_headERKSA_
FNDA:0,_ZNSt11_Tuple_implILm0EJPKbSt14default_deleteIS0_EEE7_M_headERKS4_
FNDA:0,_ZNSt11_Tuple_implILm0EJPNSt7__cxx1112basic_stringIcSt11char_traitsIcESaIcEEESt14default_deleteIS5_EEE7_M_headERKS9_
FNDA:2527,_ZNSt11_Tuple_implILm0EJPNSt7__cxx1118basic_stringstreamIcSt11char_traitsIcESaIcEEESt14default_deleteIS5_EEE7_M_headERKS9_
FNDA:0,_ZNSt11_Tuple_implILm0EJPKN7testing16MatcherInterfaceINSt7__cxx1112basic_stringIcSt11char_traitsIcESaIcEEEEESt14default_deleteIS9_EEEC2Ev
FNDA:0,_ZNSt11_Tuple_implILm0EJPKN7testing16MatcherInterfaceIRKNSt7__cxx1112basic_stringIcSt11char_traitsIcESaIcEEEEESt14default_deleteISB_EEEC2Ev
FNDA:0,_ZNSt11_Tuple_implILm0EJPKN7testing16MatcherInterfaceIRKSt17basic_string_viewIcSt11char_traitsIcEEEESt14default_deleteIS9_EEEC2Ev
FNDA:0,_ZNSt11_Tuple_implILm0EJPKN7testing16MatcherInterfaceISt17basic_string_viewIcSt11char_traitsIcEEEESt14default_deleteIS7_EEEC2Ev
FNDA:0,_ZNSt11_Tuple_implILm0EJPKbSt14default_deleteIS0_EEEC2Ev
FNDA:146,_ZNSt11_Tuple_implILm0EJPNSt7__cxx1112basic_stringIcSt11char_traitsIcESaIcEEESt14default_deleteIS5_EEEC2Ev
FNDA:253,_ZNSt11_Tuple_implILm0EJPNSt7__cxx1118basic_stringstreamIcSt11char_traitsIcESaIcEEESt14default_deleteIS5_EEEC2Ev
FNDA:0,_ZNSt11_Tuple_implILm0EJPKN7testing8internal11MatcherBaseINSt7__cxx1112basic_stringIcSt11char_traitsIcESaIcEEEEEPKNS0_16MatcherInterfaceIRKS8_EEEEC2ISB_JSH_EvEEOT_DpOT0_
FNDA:0,_ZNSt11_Tuple_implILm0EJPKN7testing8internal11MatcherBaseINSt7__cxx1112basic_stringIcSt11char_traitsIcESaIcEEEEEPKNS0_16MatcherInterfaceIS8_EEEEC2ISB_JSF_EvEEOT_DpOT0_
FNDA:0,_ZNSt11_Tuple_implILm0EJPKN7testing8internal11MatcherBaseIRKNSt7__cxx1112basic_stringIcSt11char_traitsIcESaIcEEEEEPKNS0_16MatcherInterfaceISA_EEEEC2ISD_JSH_EvEEOT_DpOT0_
FNDA:0,_ZNSt11_Tuple_implILm0EJPKN7testing8internal11MatcherBaseIRKSt17basic_string_viewIcSt11char_traitsIcEEEEPKNS0_16MatcherInterfaceIS8_EEEEC2ISB_JSF_EvEEOT_DpOT0_
FNDA:0,_ZNSt11_Tuple_implILm0EJPKN7testing8internal11MatcherBaseISt17basic_string_viewIcSt11char_traitsIcEEEEPKNS0_16MatcherInterfaceIRKS6_EEEEC2IS9_JSF_EvEEOT_DpOT0_
FNDA:0,_ZNSt11_Tuple_implILm0EJPKN7testing8internal11MatcherBaseISt17basic_string_viewIcSt11char_traitsIcEEEEPKNS0_16MatcherInterfaceIS6_EEEEC2IS9_JSD_EvEEOT_DpOT0_
FNDA:0,_ZNSt11_Tuple_implILm0EJPKN7testing16MatcherInterfaceINSt7__cxx1112basic_stringIcSt11char_traitsIcESaIcEEEEESt14default_deleteIS9_EEEC2EOSD_
FNDA:0,_ZNSt11_Tuple_implILm0EJPKN7testing16MatcherInterfaceIRKNSt7__cxx1112basic_stringIcSt11char_traitsIcESaIcEEEEESt14default_deleteISB_EEEC2EOSF_
FNDA:0,_ZNSt11_Tuple_implILm0EJPKN7testing16MatcherInterfaceIRKSt17basic_string_viewIcSt11char_traitsIcEEEESt14default_deleteIS9_EEEC2EOSD_
FNDA:0,_ZNSt11_Tuple_implILm0EJPKN7testing16MatcherInterfaceISt17basic_string_viewIcSt11char_traitsIcEEEESt14default_deleteIS7_EEEC2EOSB_
FNDA:0,_ZNSt11_Tuple_implILm1EJPKN7testing16MatcherInterfaceINSt7__cxx1112basic_stringIcSt11char_traitsIcESaIcEEEEEEE7_M_headERSB_
FNDA:0,_ZNSt11_Tuple_implILm1EJPKN7testing16MatcherInterfaceIRKNSt7__cxx1112basic_stringIcSt11char_traitsIcESaIcEEEEEEE7_M_headERSD_
FNDA:0,_ZNSt11_Tuple_implILm1EJPKN7testing16MatcherInterfaceIRKSt17basic_string_viewIcSt11char_traitsIcEEEEEE7_M_headERSB_
FNDA:0,_ZNSt11_Tuple_implILm1EJPKN7testing16MatcherInterfaceISt17basic_string_viewIcSt11char_traitsIcEEEEEE7_M_headERS9_
FNDA:0,_ZNSt11_Tuple_implILm1EJSt14default_deleteIKN7testing16MatcherInterfaceINSt7__cxx1112basic_stringIcSt11char_traitsIcESaIcEEEEEEEE7_M_headERSC_
FNDA:0,_ZNSt11_Tuple_implILm1EJSt14default_deleteIKN7testing16MatcherInterfaceIRKNSt7__cxx1112basic_stringIcSt11char_traitsIcESaIcEEEEEEEE7_M_headERSE_
FNDA:0,_ZNSt11_Tuple_implILm1EJSt14default_deleteIKN7testing16MatcherInterfaceIRKSt17basic_string_viewIcSt11char_traitsIcEEEEEEE7_M_headERSC_
FNDA:0,_ZNSt11_Tuple_implILm1EJSt14default_deleteIKN7testing16MatcherInterfaceISt17basic_string_viewIcSt11char_traitsIcEEEEEEE7_M_headERSA_
FNDA:0,_ZNSt11_Tuple_implILm1EJSt14default_deleteIKbEEE7_M_headERS3_
FNDA:0,_ZNSt11_Tuple_implILm1EJSt14default_deleteINSt7__cxx1112basic_stringIcSt11char_traitsIcESaIcEEEEEE7_M_headERS8_
FNDA:253,_ZNSt11_Tuple_implILm1EJSt14default_deleteINSt7__cxx1118basic_stringstreamIcSt11char_traitsIcESaIcEEEEEE7_M_headERS8_
FNDA:0,_ZNSt11_Tuple_implILm1EJSt14default_deleteIKN7testing16MatcherInterfaceINSt7__cxx1112basic_stringIcSt11char_traitsIcESaIcEEEEEEEEC2Ev
FNDA:0,_ZNSt11_Tuple_implILm1EJSt14default_deleteIKN7testing16MatcherInterfaceIRKNSt7__cxx1112basic_stringIcSt11char_traitsIcESaIcEEEEEEEEC2Ev
FNDA:0,_ZNSt11_Tuple_implILm1EJSt14default_deleteIKN7testing16MatcherInterfaceIRKSt17basic_string_viewIcSt11char_traitsIcEEEEEEEC2Ev
FNDA:0,_ZNSt11_Tuple_implILm1EJSt14default_deleteIKN7testing16MatcherInterfaceISt17basic_string_viewIcSt11char_traitsIcEEEEEEEC2Ev
FNDA:0,_ZNSt11_Tuple_implILm1EJSt14default_deleteIKbEEEC2Ev
FNDA:146,_ZNSt11_Tuple_implILm1EJSt14default_deleteINSt7__cxx1112basic_stringIcSt11char_traitsIcESaIcEEEEEEC2Ev
FNDA:253,_ZNSt11_Tuple_implILm1EJSt14default_deleteINSt7__cxx1118basic_stringstreamIcSt11char_traitsIcESaIcEEEEEEC2Ev
FNDA:0,_ZNSt11_Tuple_implILm1EJPKN7testing16MatcherInterfaceINSt7__cxx1112basic_stringIcSt11char_traitsIcESaIcEEEEEEEC2ISA_EEOT_
FNDA:0,_ZNSt11_Tuple_implILm1EJPKN7testing16MatcherInterfaceIRKNSt7__cxx1112basic_stringIcSt11char_traitsIcESaIcEEEEEEEC2ISC_EEOT_
FNDA:0,_ZNSt11_Tuple_implILm1EJPKN7testing16MatcherInterfaceIRKSt17basic_string_viewIcSt11char_traitsIcEEEEEEC2ISA_EEOT_
FNDA:0,_ZNSt11_Tuple_implILm1EJPKN7testing16MatcherInterfaceISt17basic_string_viewIcSt11char_traitsIcEEEEEEC2IS8_EEOT_
FNDA:0,_ZNSt11_Tuple_implILm1EJSt14default_deleteIKN7testing16MatcherInterfaceINSt7__cxx1112basic_stringIcSt11char_traitsIcESaIcEEEEEEEEC2EOSC_
FNDA:0,_ZNSt11_Tuple_implILm1EJSt14default_deleteIKN7testing16MatcherInterfaceIRKNSt7__cxx1112basic_stringIcSt11char_traitsIcESaIcEEEEEEEEC2EOSE_
FNDA:0,_ZNSt11_Tuple_implILm1EJSt14default_deleteIKN7testing16MatcherInterfaceIRKSt17basic_string_viewIcSt11char_traitsIcEEEEEEEC2EOSC_
FNDA:0,_ZNSt11_Tuple_implILm1EJSt14default_deleteIKN7testing16MatcherInterfaceISt17basic_string_viewIcSt11char_traitsIcEEEEEEEC2EOSA_
FNDA:0,_ZNSt17_TupleConstraintsILb1EJPKN7testing8internal11MatcherBaseINSt7__cxx1112basic_stringIcSt11char_traitsIcESaIcEEEEEPKNS0_16MatcherInterfaceIRKS8_EEEE29__is_implicitly_constructibleIJRKSB_RKSH_EEEbv
